
hackberry.elf:     file format elf32-littlearm

Sections:
Idx Name          Size      VMA       LMA       File off  Algn
  0 .isr_vector   00000188  08000000  08000000  00008000  2**0
                  CONTENTS, ALLOC, LOAD, READONLY, DATA
  1 .text         00004510  08000188  08000188  00008188  2**2
                  CONTENTS, ALLOC, LOAD, READONLY, CODE
  2 .ARM          00000008  08004698  08004698  0000c698  2**2
                  CONTENTS, ALLOC, LOAD, READONLY, DATA
  3 .init_array   00000008  080046a0  080046a0  0000c6a0  2**2
                  CONTENTS, ALLOC, LOAD, DATA
  4 .fini_array   00000004  080046a8  080046a8  0000c6a8  2**2
                  CONTENTS, ALLOC, LOAD, DATA
  5 .data         00000874  20000000  080046ac  00010000  2**3
                  CONTENTS, ALLOC, LOAD, DATA
  6 .jcr          00000004  20000874  08004f20  00010874  2**2
                  CONTENTS, ALLOC, LOAD, DATA
  7 .bss          0000005c  20000878  08004f24  00010878  2**2
                  ALLOC
  8 ._user_heap_stack 00000400  200008d4  08004f80  00010878  2**0
                  ALLOC
  9 .ARM.attributes 0000002e  00000000  00000000  00010878  2**0
                  CONTENTS, READONLY
 10 .debug_info   000055e4  00000000  00000000  000108a6  2**0
                  CONTENTS, READONLY, DEBUGGING
 11 .debug_abbrev 00001026  00000000  00000000  00015e8a  2**0
                  CONTENTS, READONLY, DEBUGGING
 12 .debug_aranges 000001c8  00000000  00000000  00016eb0  2**3
                  CONTENTS, READONLY, DEBUGGING
 13 .debug_line   00001b4d  00000000  00000000  00017078  2**0
                  CONTENTS, READONLY, DEBUGGING
 14 .debug_str    0000200f  00000000  00000000  00018bc5  2**0
                  CONTENTS, READONLY, DEBUGGING
 15 .comment      00000070  00000000  00000000  0001abd4  2**0
                  CONTENTS, READONLY
 16 .debug_frame  000021b8  00000000  00000000  0001ac44  2**2
                  CONTENTS, READONLY, DEBUGGING
 17 .debug_ranges 00000020  00000000  00000000  0001ce00  2**3
                  CONTENTS, READONLY, DEBUGGING

Disassembly of section .text:

08000188 <__do_global_dtors_aux>:
 8000188:	b510      	push	{r4, lr}
 800018a:	4c05      	ldr	r4, [pc, #20]	; (80001a0 <__do_global_dtors_aux+0x18>)
 800018c:	7823      	ldrb	r3, [r4, #0]
 800018e:	b933      	cbnz	r3, 800019e <__do_global_dtors_aux+0x16>
 8000190:	4b04      	ldr	r3, [pc, #16]	; (80001a4 <__do_global_dtors_aux+0x1c>)
 8000192:	b113      	cbz	r3, 800019a <__do_global_dtors_aux+0x12>
 8000194:	4804      	ldr	r0, [pc, #16]	; (80001a8 <__do_global_dtors_aux+0x20>)
 8000196:	f3af 8000 	nop.w
 800019a:	2301      	movs	r3, #1
 800019c:	7023      	strb	r3, [r4, #0]
 800019e:	bd10      	pop	{r4, pc}
 80001a0:	20000878 	.word	0x20000878
 80001a4:	00000000 	.word	0x00000000
 80001a8:	0800467c 	.word	0x0800467c

080001ac <frame_dummy>:
 80001ac:	4b08      	ldr	r3, [pc, #32]	; (80001d0 <frame_dummy+0x24>)
 80001ae:	b510      	push	{r4, lr}
 80001b0:	b11b      	cbz	r3, 80001ba <frame_dummy+0xe>
 80001b2:	4808      	ldr	r0, [pc, #32]	; (80001d4 <frame_dummy+0x28>)
 80001b4:	4908      	ldr	r1, [pc, #32]	; (80001d8 <frame_dummy+0x2c>)
 80001b6:	f3af 8000 	nop.w
 80001ba:	4808      	ldr	r0, [pc, #32]	; (80001dc <frame_dummy+0x30>)
 80001bc:	6803      	ldr	r3, [r0, #0]
 80001be:	b903      	cbnz	r3, 80001c2 <frame_dummy+0x16>
 80001c0:	bd10      	pop	{r4, pc}
 80001c2:	4b07      	ldr	r3, [pc, #28]	; (80001e0 <frame_dummy+0x34>)
 80001c4:	2b00      	cmp	r3, #0
 80001c6:	d0fb      	beq.n	80001c0 <frame_dummy+0x14>
 80001c8:	e8bd 4010 	ldmia.w	sp!, {r4, lr}
 80001cc:	4718      	bx	r3
 80001ce:	bf00      	nop
 80001d0:	00000000 	.word	0x00000000
 80001d4:	0800467c 	.word	0x0800467c
 80001d8:	2000087c 	.word	0x2000087c
 80001dc:	20000874 	.word	0x20000874
 80001e0:	00000000 	.word	0x00000000

080001e4 <_mainCRTStartup>:
 80001e4:	4b15      	ldr	r3, [pc, #84]	; (800023c <_mainCRTStartup+0x58>)
 80001e6:	2b00      	cmp	r3, #0
 80001e8:	bf08      	it	eq
 80001ea:	4b13      	ldreq	r3, [pc, #76]	; (8000238 <_mainCRTStartup+0x54>)
 80001ec:	469d      	mov	sp, r3
 80001ee:	f5a3 3a80 	sub.w	sl, r3, #65536	; 0x10000
 80001f2:	2100      	movs	r1, #0
 80001f4:	468b      	mov	fp, r1
 80001f6:	460f      	mov	r7, r1
 80001f8:	4813      	ldr	r0, [pc, #76]	; (8000248 <_mainCRTStartup+0x64>)
 80001fa:	4a14      	ldr	r2, [pc, #80]	; (800024c <_mainCRTStartup+0x68>)
 80001fc:	1a12      	subs	r2, r2, r0
 80001fe:	f003 fcb5 	bl	8003b6c <memset>
 8000202:	4b0f      	ldr	r3, [pc, #60]	; (8000240 <_mainCRTStartup+0x5c>)
 8000204:	2b00      	cmp	r3, #0
 8000206:	d000      	beq.n	800020a <_mainCRTStartup+0x26>
 8000208:	4798      	blx	r3
 800020a:	4b0e      	ldr	r3, [pc, #56]	; (8000244 <_mainCRTStartup+0x60>)
 800020c:	2b00      	cmp	r3, #0
 800020e:	d000      	beq.n	8000212 <_mainCRTStartup+0x2e>
 8000210:	4798      	blx	r3
 8000212:	2000      	movs	r0, #0
 8000214:	2100      	movs	r1, #0
 8000216:	0004      	movs	r4, r0
 8000218:	000d      	movs	r5, r1
 800021a:	480d      	ldr	r0, [pc, #52]	; (8000250 <_mainCRTStartup+0x6c>)
 800021c:	2800      	cmp	r0, #0
 800021e:	d002      	beq.n	8000226 <_mainCRTStartup+0x42>
 8000220:	480c      	ldr	r0, [pc, #48]	; (8000254 <_mainCRTStartup+0x70>)
 8000222:	f003 fd65 	bl	8003cf0 <atexit>
 8000226:	f003 fc79 	bl	8003b1c <__libc_init_array>
 800022a:	0020      	movs	r0, r4
 800022c:	0029      	movs	r1, r5
 800022e:	f000 f813 	bl	8000258 <main>
 8000232:	f003 fc63 	bl	8003afc <exit>
 8000236:	bf00      	nop
 8000238:	00080000 	.word	0x00080000
	...
 8000248:	20000878 	.word	0x20000878
 800024c:	200008d4 	.word	0x200008d4
 8000250:	08003cf1 	.word	0x08003cf1
 8000254:	08003cfd 	.word	0x08003cfd

08000258 <main>:
#include "stm32f4xx.h"
#include "camera_peripherals.h"
#include "fifo_peripherals.h"

int main(void) {
 8000258:	b580      	push	{r7, lr}
 800025a:	af00      	add	r7, sp, #0

  
  initCameraClk();
 800025c:	f000 f886 	bl	800036c <initCameraClk>
  initFifoClk();
 8000260:	f000 f802 	bl	8000268 <initFifoClk>

  while(1); // Don't wait to exit
 8000264:	e7fe      	b.n	8000264 <main+0xc>
 8000266:	bf00      	nop

08000268 <initFifoClk>:
#include "stm32f4xx_it.h"
#include "fifo_peripherals.h"

void initFifoClk() {
 8000268:	b580      	push	{r7, lr}
 800026a:	b082      	sub	sp, #8
 800026c:	af00      	add	r7, sp, #0

  /* timer_tick_frequency = TIM4_default_frequency / (prescaler + 1) */
	/* PWM_frequency = timer_tick_frequency / (period + 1) */
	/* period = timer_tick_frequency / PWM_frequency - 1 */

  uint16_t period = 3-1;
 800026e:	2302      	movs	r3, #2
 8000270:	80fb      	strh	r3, [r7, #6]
  uint16_t prescaler = 0;
 8000272:	2300      	movs	r3, #0
 8000274:	80bb      	strh	r3, [r7, #4]

  initTim3ForFifoClk(period, prescaler);
 8000276:	88fa      	ldrh	r2, [r7, #6]
 8000278:	88bb      	ldrh	r3, [r7, #4]
 800027a:	4610      	mov	r0, r2
 800027c:	4619      	mov	r1, r3
 800027e:	f000 f829 	bl	80002d4 <initTim3ForFifoClk>
  initGPIOForFifoClk();
 8000282:	f000 f807 	bl	8000294 <initGPIOForFifoClk>
  initPWMForFifoClk(period);
 8000286:	88fb      	ldrh	r3, [r7, #6]
 8000288:	4618      	mov	r0, r3
 800028a:	f000 f84b 	bl	8000324 <initPWMForFifoClk>

}
 800028e:	3708      	adds	r7, #8
 8000290:	46bd      	mov	sp, r7
 8000292:	bd80      	pop	{r7, pc}

08000294 <initGPIOForFifoClk>:

void initGPIOForFifoClk(void) {
 8000294:	b580      	push	{r7, lr}
 8000296:	b082      	sub	sp, #8
 8000298:	af00      	add	r7, sp, #0
  
  // Configure GPIO port C pin 12 to output 
  // pin to send clk signal to camera

  RCC_AHB1PeriphClockCmd(RCC_AHB1Periph_GPIOA, ENABLE);
 800029a:	2001      	movs	r0, #1
 800029c:	2101      	movs	r1, #1
 800029e:	f000 ff1f 	bl	80010e0 <RCC_AHB1PeriphClockCmd>

  GPIO_InitTypeDef GPIO_InitStructure;
  GPIO_InitStructure.GPIO_Pin = GPIO_Pin_6;
 80002a2:	2340      	movs	r3, #64	; 0x40
 80002a4:	603b      	str	r3, [r7, #0]

  GPIO_InitStructure.GPIO_OType = GPIO_OType_PP;
 80002a6:	2300      	movs	r3, #0
 80002a8:	71bb      	strb	r3, [r7, #6]
  GPIO_InitStructure.GPIO_PuPd = GPIO_PuPd_NOPULL;
 80002aa:	2300      	movs	r3, #0
 80002ac:	71fb      	strb	r3, [r7, #7]
  GPIO_InitStructure.GPIO_Mode = GPIO_Mode_AF;
 80002ae:	2302      	movs	r3, #2
 80002b0:	713b      	strb	r3, [r7, #4]
  GPIO_InitStructure.GPIO_Speed = GPIO_Speed_100MHz;
 80002b2:	2303      	movs	r3, #3
 80002b4:	717b      	strb	r3, [r7, #5]
  GPIO_Init(GPIOA, &GPIO_InitStructure);
 80002b6:	463b      	mov	r3, r7
 80002b8:	4805      	ldr	r0, [pc, #20]	; (80002d0 <initGPIOForFifoClk+0x3c>)
 80002ba:	4619      	mov	r1, r3
 80002bc:	f001 fba2 	bl	8001a04 <GPIO_Init>

  GPIO_PinAFConfig(GPIOA, GPIO_PinSource6, GPIO_AF_TIM3);
 80002c0:	4803      	ldr	r0, [pc, #12]	; (80002d0 <initGPIOForFifoClk+0x3c>)
 80002c2:	2106      	movs	r1, #6
 80002c4:	2202      	movs	r2, #2
 80002c6:	f001 fd0b 	bl	8001ce0 <GPIO_PinAFConfig>
}
 80002ca:	3708      	adds	r7, #8
 80002cc:	46bd      	mov	sp, r7
 80002ce:	bd80      	pop	{r7, pc}
 80002d0:	40020000 	.word	0x40020000

080002d4 <initTim3ForFifoClk>:

void initTim3ForFifoClk(uint16_t period, uint16_t prescaler) {
 80002d4:	b580      	push	{r7, lr}
 80002d6:	b086      	sub	sp, #24
 80002d8:	af00      	add	r7, sp, #0
 80002da:	4603      	mov	r3, r0
 80002dc:	460a      	mov	r2, r1
 80002de:	80fb      	strh	r3, [r7, #6]
 80002e0:	4613      	mov	r3, r2
 80002e2:	80bb      	strh	r3, [r7, #4]
  
  //Enable APB2 Peripheral Clock
  RCC_APB1PeriphClockCmd(RCC_APB1Periph_TIM3, ENABLE);
 80002e4:	2002      	movs	r0, #2
 80002e6:	2101      	movs	r1, #1
 80002e8:	f000 ff54 	bl	8001194 <RCC_APB1PeriphClockCmd>

  TIM_TimeBaseInitTypeDef timerInitStructure;
  timerInitStructure.TIM_Prescaler = prescaler;
 80002ec:	88bb      	ldrh	r3, [r7, #4]
 80002ee:	81bb      	strh	r3, [r7, #12]
  timerInitStructure.TIM_CounterMode = TIM_CounterMode_Up;
 80002f0:	2300      	movs	r3, #0
 80002f2:	81fb      	strh	r3, [r7, #14]
  timerInitStructure.TIM_Period = period;
 80002f4:	88fb      	ldrh	r3, [r7, #6]
 80002f6:	613b      	str	r3, [r7, #16]
  timerInitStructure.TIM_ClockDivision = TIM_CKD_DIV1;
 80002f8:	2300      	movs	r3, #0
 80002fa:	82bb      	strh	r3, [r7, #20]

  TIM_TimeBaseInit(TIM3, &timerInitStructure);
 80002fc:	f107 030c 	add.w	r3, r7, #12
 8000300:	4807      	ldr	r0, [pc, #28]	; (8000320 <initTim3ForFifoClk+0x4c>)
 8000302:	4619      	mov	r1, r3
 8000304:	f001 fe12 	bl	8001f2c <TIM_TimeBaseInit>

  TIM_ARRPreloadConfig(TIM3, ENABLE);
 8000308:	4805      	ldr	r0, [pc, #20]	; (8000320 <initTim3ForFifoClk+0x4c>)
 800030a:	2101      	movs	r1, #1
 800030c:	f001 ff38 	bl	8002180 <TIM_ARRPreloadConfig>

  // Enable Timer 3
  TIM_Cmd(TIM3, ENABLE);
 8000310:	4803      	ldr	r0, [pc, #12]	; (8000320 <initTim3ForFifoClk+0x4c>)
 8000312:	2101      	movs	r1, #1
 8000314:	f001 ff8c 	bl	8002230 <TIM_Cmd>

}
 8000318:	3718      	adds	r7, #24
 800031a:	46bd      	mov	sp, r7
 800031c:	bd80      	pop	{r7, pc}
 800031e:	bf00      	nop
 8000320:	40000400 	.word	0x40000400

08000324 <initPWMForFifoClk>:

void initPWMForFifoClk(uint16_t period) {
 8000324:	b580      	push	{r7, lr}
 8000326:	b088      	sub	sp, #32
 8000328:	af00      	add	r7, sp, #0
 800032a:	4603      	mov	r3, r0
 800032c:	80fb      	strh	r3, [r7, #6]
  uint16_t pulse;

  /* pulse = ((period + 1) * DutyCycle) / 100 - 1 */

  /*pulse = ((period + 1) * 50) / 100 - 1;*/
  pulse = period/2;
 800032e:	88fb      	ldrh	r3, [r7, #6]
 8000330:	085b      	lsrs	r3, r3, #1
 8000332:	83fb      	strh	r3, [r7, #30]
  /*if (pulse >= period) {*/
    /*pulse = 1;*/
  /*}*/

  TIM_OCInitTypeDef outputChannelInit;
  outputChannelInit.TIM_OCMode = TIM_OCMode_PWM1;
 8000334:	2360      	movs	r3, #96	; 0x60
 8000336:	813b      	strh	r3, [r7, #8]
  outputChannelInit.TIM_Pulse = pulse;
 8000338:	8bfb      	ldrh	r3, [r7, #30]
 800033a:	613b      	str	r3, [r7, #16]
  outputChannelInit.TIM_OutputState = TIM_OutputState_Enable;
 800033c:	2301      	movs	r3, #1
 800033e:	817b      	strh	r3, [r7, #10]
  outputChannelInit.TIM_OCPolarity = TIM_OCPolarity_High;
 8000340:	2300      	movs	r3, #0
 8000342:	82bb      	strh	r3, [r7, #20]

  TIM_OC1Init(TIM3, &outputChannelInit);
 8000344:	f107 0308 	add.w	r3, r7, #8
 8000348:	4807      	ldr	r0, [pc, #28]	; (8000368 <initPWMForFifoClk+0x44>)
 800034a:	4619      	mov	r1, r3
 800034c:	f001 ff90 	bl	8002270 <TIM_OC1Init>
  TIM_OC1PreloadConfig(TIM3, TIM_OCPreload_Enable);
 8000350:	4805      	ldr	r0, [pc, #20]	; (8000368 <initPWMForFifoClk+0x44>)
 8000352:	2108      	movs	r1, #8
 8000354:	f002 faa0 	bl	8002898 <TIM_OC1PreloadConfig>

  TIM_CtrlPWMOutputs(TIM3, ENABLE);
 8000358:	4803      	ldr	r0, [pc, #12]	; (8000368 <initPWMForFifoClk+0x44>)
 800035a:	2101      	movs	r1, #1
 800035c:	f002 fecc 	bl	80030f8 <TIM_CtrlPWMOutputs>

}
 8000360:	3720      	adds	r7, #32
 8000362:	46bd      	mov	sp, r7
 8000364:	bd80      	pop	{r7, pc}
 8000366:	bf00      	nop
 8000368:	40000400 	.word	0x40000400

0800036c <initCameraClk>:
#include "stm32f4xx_it.h"
#include "camera_peripherals.h"

  
void initCameraClk() {
 800036c:	b580      	push	{r7, lr}
 800036e:	b082      	sub	sp, #8
 8000370:	af00      	add	r7, sp, #0

  /* timer_tick_frequency = TIM4_default_frequency / (prescaler + 1) */
	/* PWM_frequency = timer_tick_frequency / (period + 1) */
	/* period = timer_tick_frequency / PWM_frequency - 1 */

  uint16_t period = 50;
 8000372:	2332      	movs	r3, #50	; 0x32
 8000374:	80fb      	strh	r3, [r7, #6]
  uint16_t prescaler = 0;
 8000376:	2300      	movs	r3, #0
 8000378:	80bb      	strh	r3, [r7, #4]

  initGPIOForCameraClk();
 800037a:	f000 f80d 	bl	8000398 <initGPIOForCameraClk>
  initTim4ForCameraClk(period, prescaler);
 800037e:	88fa      	ldrh	r2, [r7, #6]
 8000380:	88bb      	ldrh	r3, [r7, #4]
 8000382:	4610      	mov	r0, r2
 8000384:	4619      	mov	r1, r3
 8000386:	f000 f829 	bl	80003dc <initTim4ForCameraClk>
  initPWMForCameraClk(period);
 800038a:	88fb      	ldrh	r3, [r7, #6]
 800038c:	4618      	mov	r0, r3
 800038e:	f000 f84b 	bl	8000428 <initPWMForCameraClk>

}
 8000392:	3708      	adds	r7, #8
 8000394:	46bd      	mov	sp, r7
 8000396:	bd80      	pop	{r7, pc}

08000398 <initGPIOForCameraClk>:


void initGPIOForCameraClk(void) {
 8000398:	b580      	push	{r7, lr}
 800039a:	b082      	sub	sp, #8
 800039c:	af00      	add	r7, sp, #0
  
  // Configure GPIO port D pin 12 to output 
  // pin to send clk signal to camera

  RCC_AHB1PeriphClockCmd(RCC_AHB1Periph_GPIOD, ENABLE);
 800039e:	2008      	movs	r0, #8
 80003a0:	2101      	movs	r1, #1
 80003a2:	f000 fe9d 	bl	80010e0 <RCC_AHB1PeriphClockCmd>

  GPIO_InitTypeDef GPIO_InitStructure;
  GPIO_InitStructure.GPIO_Pin = GPIO_Pin_12;
 80003a6:	f44f 5380 	mov.w	r3, #4096	; 0x1000
 80003aa:	603b      	str	r3, [r7, #0]

  GPIO_InitStructure.GPIO_OType = GPIO_OType_PP;
 80003ac:	2300      	movs	r3, #0
 80003ae:	71bb      	strb	r3, [r7, #6]
  GPIO_InitStructure.GPIO_PuPd = GPIO_PuPd_NOPULL;
 80003b0:	2300      	movs	r3, #0
 80003b2:	71fb      	strb	r3, [r7, #7]
  GPIO_InitStructure.GPIO_Mode = GPIO_Mode_AF;
 80003b4:	2302      	movs	r3, #2
 80003b6:	713b      	strb	r3, [r7, #4]
  GPIO_InitStructure.GPIO_Speed = GPIO_Speed_100MHz;
 80003b8:	2303      	movs	r3, #3
 80003ba:	717b      	strb	r3, [r7, #5]
  GPIO_Init(GPIOD, &GPIO_InitStructure);
 80003bc:	463b      	mov	r3, r7
 80003be:	4806      	ldr	r0, [pc, #24]	; (80003d8 <initGPIOForCameraClk+0x40>)
 80003c0:	4619      	mov	r1, r3
 80003c2:	f001 fb1f 	bl	8001a04 <GPIO_Init>

  /* Connect TIM4 pins to  GPIO Port D Pin 12 */
  GPIO_PinAFConfig(GPIOD, GPIO_PinSource12, GPIO_AF_TIM4);
 80003c6:	4804      	ldr	r0, [pc, #16]	; (80003d8 <initGPIOForCameraClk+0x40>)
 80003c8:	210c      	movs	r1, #12
 80003ca:	2202      	movs	r2, #2
 80003cc:	f001 fc88 	bl	8001ce0 <GPIO_PinAFConfig>
}
 80003d0:	3708      	adds	r7, #8
 80003d2:	46bd      	mov	sp, r7
 80003d4:	bd80      	pop	{r7, pc}
 80003d6:	bf00      	nop
 80003d8:	40020c00 	.word	0x40020c00

080003dc <initTim4ForCameraClk>:
  

void initTim4ForCameraClk(uint16_t period, uint16_t prescaler) {
 80003dc:	b580      	push	{r7, lr}
 80003de:	b086      	sub	sp, #24
 80003e0:	af00      	add	r7, sp, #0
 80003e2:	4603      	mov	r3, r0
 80003e4:	460a      	mov	r2, r1
 80003e6:	80fb      	strh	r3, [r7, #6]
 80003e8:	4613      	mov	r3, r2
 80003ea:	80bb      	strh	r3, [r7, #4]
  
  // Enable APB1 Peripheral Clock for Timer 4
  RCC_APB1PeriphClockCmd(RCC_APB1Periph_TIM4, ENABLE);
 80003ec:	2004      	movs	r0, #4
 80003ee:	2101      	movs	r1, #1
 80003f0:	f000 fed0 	bl	8001194 <RCC_APB1PeriphClockCmd>

  TIM_TimeBaseInitTypeDef timerInitStructure;
  timerInitStructure.TIM_Prescaler = prescaler;
 80003f4:	88bb      	ldrh	r3, [r7, #4]
 80003f6:	81bb      	strh	r3, [r7, #12]
  timerInitStructure.TIM_CounterMode = TIM_CounterMode_Up;
 80003f8:	2300      	movs	r3, #0
 80003fa:	81fb      	strh	r3, [r7, #14]
  timerInitStructure.TIM_Period = period;
 80003fc:	88fb      	ldrh	r3, [r7, #6]
 80003fe:	613b      	str	r3, [r7, #16]
  timerInitStructure.TIM_ClockDivision = TIM_CKD_DIV1;
 8000400:	2300      	movs	r3, #0
 8000402:	82bb      	strh	r3, [r7, #20]
  timerInitStructure.TIM_RepetitionCounter = 0;
 8000404:	2300      	movs	r3, #0
 8000406:	75bb      	strb	r3, [r7, #22]
  TIM_TimeBaseInit(TIM4, &timerInitStructure);
 8000408:	f107 030c 	add.w	r3, r7, #12
 800040c:	4805      	ldr	r0, [pc, #20]	; (8000424 <initTim4ForCameraClk+0x48>)
 800040e:	4619      	mov	r1, r3
 8000410:	f001 fd8c 	bl	8001f2c <TIM_TimeBaseInit>
  TIM_Cmd(TIM4, ENABLE);
 8000414:	4803      	ldr	r0, [pc, #12]	; (8000424 <initTim4ForCameraClk+0x48>)
 8000416:	2101      	movs	r1, #1
 8000418:	f001 ff0a 	bl	8002230 <TIM_Cmd>

}
 800041c:	3718      	adds	r7, #24
 800041e:	46bd      	mov	sp, r7
 8000420:	bd80      	pop	{r7, pc}
 8000422:	bf00      	nop
 8000424:	40000800 	.word	0x40000800

08000428 <initPWMForCameraClk>:
  
void initPWMForCameraClk(uint16_t period) {
 8000428:	b580      	push	{r7, lr}
 800042a:	b088      	sub	sp, #32
 800042c:	af00      	add	r7, sp, #0
 800042e:	4603      	mov	r3, r0
 8000430:	80fb      	strh	r3, [r7, #6]

  uint16_t pulse;

  /* pulse = ((period + 1) * DutyCycle) / 100 - 1 */

  pulse = ((period + 1) * 50) / 100 - 1;
 8000432:	88fb      	ldrh	r3, [r7, #6]
 8000434:	3301      	adds	r3, #1
 8000436:	2232      	movs	r2, #50	; 0x32
 8000438:	fb02 f303 	mul.w	r3, r2, r3
 800043c:	4a10      	ldr	r2, [pc, #64]	; (8000480 <initPWMForCameraClk+0x58>)
 800043e:	fb82 1203 	smull	r1, r2, r2, r3
 8000442:	1152      	asrs	r2, r2, #5
 8000444:	17db      	asrs	r3, r3, #31
 8000446:	1ad3      	subs	r3, r2, r3
 8000448:	b29b      	uxth	r3, r3
 800044a:	3b01      	subs	r3, #1
 800044c:	83fb      	strh	r3, [r7, #30]

  TIM_OCInitTypeDef outputChannelInit;
  outputChannelInit.TIM_OCMode = TIM_OCMode_PWM2;
 800044e:	2370      	movs	r3, #112	; 0x70
 8000450:	813b      	strh	r3, [r7, #8]
  outputChannelInit.TIM_Pulse = pulse;
 8000452:	8bfb      	ldrh	r3, [r7, #30]
 8000454:	613b      	str	r3, [r7, #16]
  outputChannelInit.TIM_OutputState = TIM_OutputState_Enable;
 8000456:	2301      	movs	r3, #1
 8000458:	817b      	strh	r3, [r7, #10]
  outputChannelInit.TIM_OCPolarity = TIM_OCPolarity_Low;
 800045a:	2302      	movs	r3, #2
 800045c:	82bb      	strh	r3, [r7, #20]

  TIM_OC1Init(TIM4, &outputChannelInit);
 800045e:	f107 0308 	add.w	r3, r7, #8
 8000462:	4808      	ldr	r0, [pc, #32]	; (8000484 <initPWMForCameraClk+0x5c>)
 8000464:	4619      	mov	r1, r3
 8000466:	f001 ff03 	bl	8002270 <TIM_OC1Init>
  TIM_OC1PreloadConfig(TIM4, TIM_OCPreload_Enable);
 800046a:	4806      	ldr	r0, [pc, #24]	; (8000484 <initPWMForCameraClk+0x5c>)
 800046c:	2108      	movs	r1, #8
 800046e:	f002 fa13 	bl	8002898 <TIM_OC1PreloadConfig>

  TIM_CtrlPWMOutputs(TIM4,ENABLE);
 8000472:	4804      	ldr	r0, [pc, #16]	; (8000484 <initPWMForCameraClk+0x5c>)
 8000474:	2101      	movs	r1, #1
 8000476:	f002 fe3f 	bl	80030f8 <TIM_CtrlPWMOutputs>

}
 800047a:	3720      	adds	r7, #32
 800047c:	46bd      	mov	sp, r7
 800047e:	bd80      	pop	{r7, pc}
 8000480:	51eb851f 	.word	0x51eb851f
 8000484:	40000800 	.word	0x40000800

08000488 <SYS_Enable_GPIOB_CLK>:

SYS_GPIO_TypeDef * SYS_GPIOB = (SYS_GPIO_TypeDef *)((uint32_t)SYS_GPIOB_ADDR);
SYS_USART_TypeDef * SYS_USART1 = (SYS_USART_TypeDef *)((uint32_t)SYS_USART1_ADDR);

void SYS_Enable_GPIOB_CLK()
{
 8000488:	b480      	push	{r7}
 800048a:	b083      	sub	sp, #12
 800048c:	af00      	add	r7, sp, #0
	volatile uint32_t *AHB1ENR = (uint32_t*)SYS_AHB1ENR_ADDR;
 800048e:	4b06      	ldr	r3, [pc, #24]	; (80004a8 <SYS_Enable_GPIOB_CLK+0x20>)
 8000490:	607b      	str	r3, [r7, #4]
	*AHB1ENR |= 1<<1;	//Enable GPIO B
 8000492:	687b      	ldr	r3, [r7, #4]
 8000494:	681b      	ldr	r3, [r3, #0]
 8000496:	f043 0202 	orr.w	r2, r3, #2
 800049a:	687b      	ldr	r3, [r7, #4]
 800049c:	601a      	str	r2, [r3, #0]
}
 800049e:	370c      	adds	r7, #12
 80004a0:	46bd      	mov	sp, r7
 80004a2:	f85d 7b04 	ldr.w	r7, [sp], #4
 80004a6:	4770      	bx	lr
 80004a8:	40023830 	.word	0x40023830

080004ac <SYS_Enable_USART1_CLK>:

void SYS_Enable_USART1_CLK()
{
 80004ac:	b480      	push	{r7}
 80004ae:	b083      	sub	sp, #12
 80004b0:	af00      	add	r7, sp, #0
	volatile uint32_t *APB2ENR = (uint32_t*)SYS_APB2ENR_ADDR;
 80004b2:	4b06      	ldr	r3, [pc, #24]	; (80004cc <SYS_Enable_USART1_CLK+0x20>)
 80004b4:	607b      	str	r3, [r7, #4]
	*APB2ENR |= 1<<4;	//Enable USART 1
 80004b6:	687b      	ldr	r3, [r7, #4]
 80004b8:	681b      	ldr	r3, [r3, #0]
 80004ba:	f043 0210 	orr.w	r2, r3, #16
 80004be:	687b      	ldr	r3, [r7, #4]
 80004c0:	601a      	str	r2, [r3, #0]
}
 80004c2:	370c      	adds	r7, #12
 80004c4:	46bd      	mov	sp, r7
 80004c6:	f85d 7b04 	ldr.w	r7, [sp], #4
 80004ca:	4770      	bx	lr
 80004cc:	40023844 	.word	0x40023844

080004d0 <SYS_Config_GPIOB>:

void SYS_Config_GPIOB()
{
 80004d0:	b480      	push	{r7}
 80004d2:	af00      	add	r7, sp, #0
	SYS_GPIOB->MODER &= ~(0x3 << (6*2));
 80004d4:	4b1d      	ldr	r3, [pc, #116]	; (800054c <SYS_Config_GPIOB+0x7c>)
 80004d6:	681b      	ldr	r3, [r3, #0]
 80004d8:	4a1c      	ldr	r2, [pc, #112]	; (800054c <SYS_Config_GPIOB+0x7c>)
 80004da:	6812      	ldr	r2, [r2, #0]
 80004dc:	6812      	ldr	r2, [r2, #0]
 80004de:	f422 5240 	bic.w	r2, r2, #12288	; 0x3000
 80004e2:	601a      	str	r2, [r3, #0]
	SYS_GPIOB->MODER |= (0x2 << (6*2));
 80004e4:	4b19      	ldr	r3, [pc, #100]	; (800054c <SYS_Config_GPIOB+0x7c>)
 80004e6:	681b      	ldr	r3, [r3, #0]
 80004e8:	4a18      	ldr	r2, [pc, #96]	; (800054c <SYS_Config_GPIOB+0x7c>)
 80004ea:	6812      	ldr	r2, [r2, #0]
 80004ec:	6812      	ldr	r2, [r2, #0]
 80004ee:	f442 5200 	orr.w	r2, r2, #8192	; 0x2000
 80004f2:	601a      	str	r2, [r3, #0]

	SYS_GPIOB->OTYPER &= ~(0x1 << 6);
 80004f4:	4b15      	ldr	r3, [pc, #84]	; (800054c <SYS_Config_GPIOB+0x7c>)
 80004f6:	681b      	ldr	r3, [r3, #0]
 80004f8:	4a14      	ldr	r2, [pc, #80]	; (800054c <SYS_Config_GPIOB+0x7c>)
 80004fa:	6812      	ldr	r2, [r2, #0]
 80004fc:	6852      	ldr	r2, [r2, #4]
 80004fe:	f022 0240 	bic.w	r2, r2, #64	; 0x40
 8000502:	605a      	str	r2, [r3, #4]

	SYS_GPIOB->OSPEEDR &= ~(0x3 << (6*2));
 8000504:	4b11      	ldr	r3, [pc, #68]	; (800054c <SYS_Config_GPIOB+0x7c>)
 8000506:	681b      	ldr	r3, [r3, #0]
 8000508:	4a10      	ldr	r2, [pc, #64]	; (800054c <SYS_Config_GPIOB+0x7c>)
 800050a:	6812      	ldr	r2, [r2, #0]
 800050c:	6892      	ldr	r2, [r2, #8]
 800050e:	f422 5240 	bic.w	r2, r2, #12288	; 0x3000
 8000512:	609a      	str	r2, [r3, #8]
	SYS_GPIOB->OSPEEDR |= (0x2 << (6*2));
 8000514:	4b0d      	ldr	r3, [pc, #52]	; (800054c <SYS_Config_GPIOB+0x7c>)
 8000516:	681b      	ldr	r3, [r3, #0]
 8000518:	4a0c      	ldr	r2, [pc, #48]	; (800054c <SYS_Config_GPIOB+0x7c>)
 800051a:	6812      	ldr	r2, [r2, #0]
 800051c:	6892      	ldr	r2, [r2, #8]
 800051e:	f442 5200 	orr.w	r2, r2, #8192	; 0x2000
 8000522:	609a      	str	r2, [r3, #8]

	SYS_GPIOB->AFRL &= ~(0x7 << (6*4));
 8000524:	4b09      	ldr	r3, [pc, #36]	; (800054c <SYS_Config_GPIOB+0x7c>)
 8000526:	681b      	ldr	r3, [r3, #0]
 8000528:	4a08      	ldr	r2, [pc, #32]	; (800054c <SYS_Config_GPIOB+0x7c>)
 800052a:	6812      	ldr	r2, [r2, #0]
 800052c:	6a12      	ldr	r2, [r2, #32]
 800052e:	f022 62e0 	bic.w	r2, r2, #117440512	; 0x7000000
 8000532:	621a      	str	r2, [r3, #32]
	SYS_GPIOB->AFRL |= (0x7 << (6*4));
 8000534:	4b05      	ldr	r3, [pc, #20]	; (800054c <SYS_Config_GPIOB+0x7c>)
 8000536:	681b      	ldr	r3, [r3, #0]
 8000538:	4a04      	ldr	r2, [pc, #16]	; (800054c <SYS_Config_GPIOB+0x7c>)
 800053a:	6812      	ldr	r2, [r2, #0]
 800053c:	6a12      	ldr	r2, [r2, #32]
 800053e:	f042 62e0 	orr.w	r2, r2, #117440512	; 0x7000000
 8000542:	621a      	str	r2, [r3, #32]
}
 8000544:	46bd      	mov	sp, r7
 8000546:	f85d 7b04 	ldr.w	r7, [sp], #4
 800054a:	4770      	bx	lr
 800054c:	20000004 	.word	0x20000004

08000550 <SYS_Config_USART1>:

void SYS_Config_USART1(uint32_t baud)
{
 8000550:	b480      	push	{r7}
 8000552:	b087      	sub	sp, #28
 8000554:	af00      	add	r7, sp, #0
 8000556:	6078      	str	r0, [r7, #4]
	SYS_USART1->CR1 &= ~(0x1<<12);	//8 data bits
 8000558:	4b50      	ldr	r3, [pc, #320]	; (800069c <SYS_Config_USART1+0x14c>)
 800055a:	681b      	ldr	r3, [r3, #0]
 800055c:	4a4f      	ldr	r2, [pc, #316]	; (800069c <SYS_Config_USART1+0x14c>)
 800055e:	6812      	ldr	r2, [r2, #0]
 8000560:	8992      	ldrh	r2, [r2, #12]
 8000562:	b292      	uxth	r2, r2
 8000564:	f422 5280 	bic.w	r2, r2, #4096	; 0x1000
 8000568:	b292      	uxth	r2, r2
 800056a:	819a      	strh	r2, [r3, #12]
	SYS_USART1->CR1 &= ~(0x1<<10);	//no parity bit
 800056c:	4b4b      	ldr	r3, [pc, #300]	; (800069c <SYS_Config_USART1+0x14c>)
 800056e:	681b      	ldr	r3, [r3, #0]
 8000570:	4a4a      	ldr	r2, [pc, #296]	; (800069c <SYS_Config_USART1+0x14c>)
 8000572:	6812      	ldr	r2, [r2, #0]
 8000574:	8992      	ldrh	r2, [r2, #12]
 8000576:	b292      	uxth	r2, r2
 8000578:	f422 6280 	bic.w	r2, r2, #1024	; 0x400
 800057c:	b292      	uxth	r2, r2
 800057e:	819a      	strh	r2, [r3, #12]
	SYS_USART1->CR1 |= (0x1<<3);	//tx enabled
 8000580:	4b46      	ldr	r3, [pc, #280]	; (800069c <SYS_Config_USART1+0x14c>)
 8000582:	681b      	ldr	r3, [r3, #0]
 8000584:	4a45      	ldr	r2, [pc, #276]	; (800069c <SYS_Config_USART1+0x14c>)
 8000586:	6812      	ldr	r2, [r2, #0]
 8000588:	8992      	ldrh	r2, [r2, #12]
 800058a:	b292      	uxth	r2, r2
 800058c:	f042 0208 	orr.w	r2, r2, #8
 8000590:	b292      	uxth	r2, r2
 8000592:	819a      	strh	r2, [r3, #12]
	SYS_USART1->CR1 |= (0x1<<2);	//rx enabled
 8000594:	4b41      	ldr	r3, [pc, #260]	; (800069c <SYS_Config_USART1+0x14c>)
 8000596:	681b      	ldr	r3, [r3, #0]
 8000598:	4a40      	ldr	r2, [pc, #256]	; (800069c <SYS_Config_USART1+0x14c>)
 800059a:	6812      	ldr	r2, [r2, #0]
 800059c:	8992      	ldrh	r2, [r2, #12]
 800059e:	b292      	uxth	r2, r2
 80005a0:	f042 0204 	orr.w	r2, r2, #4
 80005a4:	b292      	uxth	r2, r2
 80005a6:	819a      	strh	r2, [r3, #12]
	SYS_USART1->CR2 &= ~(0x3<<12);	//1 stop bit
 80005a8:	4b3c      	ldr	r3, [pc, #240]	; (800069c <SYS_Config_USART1+0x14c>)
 80005aa:	681b      	ldr	r3, [r3, #0]
 80005ac:	4a3b      	ldr	r2, [pc, #236]	; (800069c <SYS_Config_USART1+0x14c>)
 80005ae:	6812      	ldr	r2, [r2, #0]
 80005b0:	8a12      	ldrh	r2, [r2, #16]
 80005b2:	b292      	uxth	r2, r2
 80005b4:	f422 5240 	bic.w	r2, r2, #12288	; 0x3000
 80005b8:	b292      	uxth	r2, r2
 80005ba:	821a      	strh	r2, [r3, #16]
	SYS_USART1->CR3 &= ~(0x3<<8);	//hardware flow control disabled
 80005bc:	4b37      	ldr	r3, [pc, #220]	; (800069c <SYS_Config_USART1+0x14c>)
 80005be:	681b      	ldr	r3, [r3, #0]
 80005c0:	4a36      	ldr	r2, [pc, #216]	; (800069c <SYS_Config_USART1+0x14c>)
 80005c2:	6812      	ldr	r2, [r2, #0]
 80005c4:	8a92      	ldrh	r2, [r2, #20]
 80005c6:	b292      	uxth	r2, r2
 80005c8:	f422 7240 	bic.w	r2, r2, #768	; 0x300
 80005cc:	b292      	uxth	r2, r2
 80005ce:	829a      	strh	r2, [r3, #20]

	//baud rate calculations
	uint32_t tmp, integer, fraction;
	if((SYS_USART1->CR1 & (uint16_t)0x8000) != 0)	//8 oversamples
 80005d0:	4b32      	ldr	r3, [pc, #200]	; (800069c <SYS_Config_USART1+0x14c>)
 80005d2:	681b      	ldr	r3, [r3, #0]
 80005d4:	899b      	ldrh	r3, [r3, #12]
 80005d6:	b29b      	uxth	r3, r3
 80005d8:	b29b      	uxth	r3, r3
 80005da:	b21b      	sxth	r3, r3
 80005dc:	2b00      	cmp	r3, #0
 80005de:	da27      	bge.n	8000630 <SYS_Config_USART1+0xe0>
	{
		tmp = (SYS_PCLK_FREQ*25)/(baud*2);
 80005e0:	687b      	ldr	r3, [r7, #4]
 80005e2:	005b      	lsls	r3, r3, #1
 80005e4:	4a2e      	ldr	r2, [pc, #184]	; (80006a0 <SYS_Config_USART1+0x150>)
 80005e6:	fbb2 f3f3 	udiv	r3, r2, r3
 80005ea:	617b      	str	r3, [r7, #20]
		integer = (tmp/100);
 80005ec:	697b      	ldr	r3, [r7, #20]
 80005ee:	4a2d      	ldr	r2, [pc, #180]	; (80006a4 <SYS_Config_USART1+0x154>)
 80005f0:	fba2 2303 	umull	r2, r3, r2, r3
 80005f4:	095b      	lsrs	r3, r3, #5
 80005f6:	613b      	str	r3, [r7, #16]
		fraction = (((tmp-(integer*100))*8)+50)/100;
 80005f8:	693b      	ldr	r3, [r7, #16]
 80005fa:	2264      	movs	r2, #100	; 0x64
 80005fc:	fb02 f303 	mul.w	r3, r2, r3
 8000600:	697a      	ldr	r2, [r7, #20]
 8000602:	1ad3      	subs	r3, r2, r3
 8000604:	00db      	lsls	r3, r3, #3
 8000606:	3332      	adds	r3, #50	; 0x32
 8000608:	4a26      	ldr	r2, [pc, #152]	; (80006a4 <SYS_Config_USART1+0x154>)
 800060a:	fba2 2303 	umull	r2, r3, r2, r3
 800060e:	095b      	lsrs	r3, r3, #5
 8000610:	60fb      	str	r3, [r7, #12]
		SYS_USART1->BRR = (integer << 4) | (fraction & (uint8_t)0x7);
 8000612:	4b22      	ldr	r3, [pc, #136]	; (800069c <SYS_Config_USART1+0x14c>)
 8000614:	681b      	ldr	r3, [r3, #0]
 8000616:	693a      	ldr	r2, [r7, #16]
 8000618:	b292      	uxth	r2, r2
 800061a:	0112      	lsls	r2, r2, #4
 800061c:	b291      	uxth	r1, r2
 800061e:	68fa      	ldr	r2, [r7, #12]
 8000620:	b292      	uxth	r2, r2
 8000622:	f002 0207 	and.w	r2, r2, #7
 8000626:	b292      	uxth	r2, r2
 8000628:	430a      	orrs	r2, r1
 800062a:	b292      	uxth	r2, r2
 800062c:	811a      	strh	r2, [r3, #8]
 800062e:	e026      	b.n	800067e <SYS_Config_USART1+0x12e>
	}
	else	//16 oversamples
	{
		tmp = (SYS_PCLK_FREQ*25)/(baud*4);
 8000630:	687b      	ldr	r3, [r7, #4]
 8000632:	009b      	lsls	r3, r3, #2
 8000634:	4a1a      	ldr	r2, [pc, #104]	; (80006a0 <SYS_Config_USART1+0x150>)
 8000636:	fbb2 f3f3 	udiv	r3, r2, r3
 800063a:	617b      	str	r3, [r7, #20]
		integer = (tmp/100);
 800063c:	697b      	ldr	r3, [r7, #20]
 800063e:	4a19      	ldr	r2, [pc, #100]	; (80006a4 <SYS_Config_USART1+0x154>)
 8000640:	fba2 2303 	umull	r2, r3, r2, r3
 8000644:	095b      	lsrs	r3, r3, #5
 8000646:	613b      	str	r3, [r7, #16]
		fraction = (((tmp-(integer*100))*16)+50)/100;
 8000648:	693b      	ldr	r3, [r7, #16]
 800064a:	2264      	movs	r2, #100	; 0x64
 800064c:	fb02 f303 	mul.w	r3, r2, r3
 8000650:	697a      	ldr	r2, [r7, #20]
 8000652:	1ad3      	subs	r3, r2, r3
 8000654:	011b      	lsls	r3, r3, #4
 8000656:	3332      	adds	r3, #50	; 0x32
 8000658:	4a12      	ldr	r2, [pc, #72]	; (80006a4 <SYS_Config_USART1+0x154>)
 800065a:	fba2 2303 	umull	r2, r3, r2, r3
 800065e:	095b      	lsrs	r3, r3, #5
 8000660:	60fb      	str	r3, [r7, #12]
		SYS_USART1->BRR = (integer << 4) | (fraction & (uint8_t)0xF);
 8000662:	4b0e      	ldr	r3, [pc, #56]	; (800069c <SYS_Config_USART1+0x14c>)
 8000664:	681b      	ldr	r3, [r3, #0]
 8000666:	693a      	ldr	r2, [r7, #16]
 8000668:	b292      	uxth	r2, r2
 800066a:	0112      	lsls	r2, r2, #4
 800066c:	b291      	uxth	r1, r2
 800066e:	68fa      	ldr	r2, [r7, #12]
 8000670:	b292      	uxth	r2, r2
 8000672:	f002 020f 	and.w	r2, r2, #15
 8000676:	b292      	uxth	r2, r2
 8000678:	430a      	orrs	r2, r1
 800067a:	b292      	uxth	r2, r2
 800067c:	811a      	strh	r2, [r3, #8]
	}

	SYS_USART1->CR1 |= (0x1<<13);	//usart1 enabled
 800067e:	4b07      	ldr	r3, [pc, #28]	; (800069c <SYS_Config_USART1+0x14c>)
 8000680:	681b      	ldr	r3, [r3, #0]
 8000682:	4a06      	ldr	r2, [pc, #24]	; (800069c <SYS_Config_USART1+0x14c>)
 8000684:	6812      	ldr	r2, [r2, #0]
 8000686:	8992      	ldrh	r2, [r2, #12]
 8000688:	b292      	uxth	r2, r2
 800068a:	f442 5200 	orr.w	r2, r2, #8192	; 0x2000
 800068e:	b292      	uxth	r2, r2
 8000690:	819a      	strh	r2, [r3, #12]
}
 8000692:	371c      	adds	r7, #28
 8000694:	46bd      	mov	sp, r7
 8000696:	f85d 7b04 	ldr.w	r7, [sp], #4
 800069a:	4770      	bx	lr
 800069c:	20000008 	.word	0x20000008
 80006a0:	7d2b7500 	.word	0x7d2b7500
 80006a4:	51eb851f 	.word	0x51eb851f

080006a8 <SYS_Init_Debug>:

void SYS_Init_Debug()
{
 80006a8:	b580      	push	{r7, lr}
 80006aa:	af00      	add	r7, sp, #0
	SYS_Enable_GPIOB_CLK();
 80006ac:	f7ff feec 	bl	8000488 <SYS_Enable_GPIOB_CLK>
	SYS_Enable_USART1_CLK();
 80006b0:	f7ff fefc 	bl	80004ac <SYS_Enable_USART1_CLK>

	SYS_Config_GPIOB();
 80006b4:	f7ff ff0c 	bl	80004d0 <SYS_Config_GPIOB>
	SYS_Config_USART1(SYS_USART1_BAUD);
 80006b8:	f44f 30e1 	mov.w	r0, #115200	; 0x1c200
 80006bc:	f7ff ff48 	bl	8000550 <SYS_Config_USART1>
}
 80006c0:	bd80      	pop	{r7, pc}
 80006c2:	bf00      	nop

080006c4 <SYS_Print>:

int SYS_Print(char * buf, int len)
{
 80006c4:	b580      	push	{r7, lr}
 80006c6:	b084      	sub	sp, #16
 80006c8:	af00      	add	r7, sp, #0
 80006ca:	6078      	str	r0, [r7, #4]
 80006cc:	6039      	str	r1, [r7, #0]
	SYS_Init_Debug();
 80006ce:	f7ff ffeb 	bl	80006a8 <SYS_Init_Debug>

	int i;
	for (i=0;i<len;i++)
 80006d2:	2300      	movs	r3, #0
 80006d4:	60fb      	str	r3, [r7, #12]
 80006d6:	e014      	b.n	8000702 <SYS_Print+0x3e>
	{
		// wait until data register is empty
		while( !(SYS_USART1->SR & 0x00000040) );
 80006d8:	bf00      	nop
 80006da:	4b0e      	ldr	r3, [pc, #56]	; (8000714 <SYS_Print+0x50>)
 80006dc:	681b      	ldr	r3, [r3, #0]
 80006de:	881b      	ldrh	r3, [r3, #0]
 80006e0:	b29b      	uxth	r3, r3
 80006e2:	f003 0340 	and.w	r3, r3, #64	; 0x40
 80006e6:	2b00      	cmp	r3, #0
 80006e8:	d0f7      	beq.n	80006da <SYS_Print+0x16>
		SYS_USART1->DR = ((char)*buf & 0x01FF);
 80006ea:	4b0a      	ldr	r3, [pc, #40]	; (8000714 <SYS_Print+0x50>)
 80006ec:	681b      	ldr	r3, [r3, #0]
 80006ee:	687a      	ldr	r2, [r7, #4]
 80006f0:	7812      	ldrb	r2, [r2, #0]
 80006f2:	b292      	uxth	r2, r2
 80006f4:	809a      	strh	r2, [r3, #4]
		buf++;
 80006f6:	687b      	ldr	r3, [r7, #4]
 80006f8:	3301      	adds	r3, #1
 80006fa:	607b      	str	r3, [r7, #4]
int SYS_Print(char * buf, int len)
{
	SYS_Init_Debug();

	int i;
	for (i=0;i<len;i++)
 80006fc:	68fb      	ldr	r3, [r7, #12]
 80006fe:	3301      	adds	r3, #1
 8000700:	60fb      	str	r3, [r7, #12]
 8000702:	68fa      	ldr	r2, [r7, #12]
 8000704:	683b      	ldr	r3, [r7, #0]
 8000706:	429a      	cmp	r2, r3
 8000708:	dbe6      	blt.n	80006d8 <SYS_Print+0x14>
		while( !(SYS_USART1->SR & 0x00000040) );
		SYS_USART1->DR = ((char)*buf & 0x01FF);
		buf++;
	}

	return len;
 800070a:	683b      	ldr	r3, [r7, #0]
}
 800070c:	4618      	mov	r0, r3
 800070e:	3710      	adds	r7, #16
 8000710:	46bd      	mov	sp, r7
 8000712:	bd80      	pop	{r7, pc}
 8000714:	20000008 	.word	0x20000008

08000718 <_exit>:
char *__env[1] = { 0 };
char **environ = __env;

int _write(int file, char *ptr, int len);

void _exit(int status) {
 8000718:	b580      	push	{r7, lr}
 800071a:	b082      	sub	sp, #8
 800071c:	af00      	add	r7, sp, #0
 800071e:	6078      	str	r0, [r7, #4]
	_write(1, "exit", 4);
 8000720:	2001      	movs	r0, #1
 8000722:	4902      	ldr	r1, [pc, #8]	; (800072c <_exit+0x14>)
 8000724:	2204      	movs	r2, #4
 8000726:	f000 f917 	bl	8000958 <_write>
	while (1) {
		;
	}
 800072a:	e7fe      	b.n	800072a <_exit+0x12>
 800072c:	08004650 	.word	0x08004650

08000730 <_close>:
}

int _close(int file) {
 8000730:	b480      	push	{r7}
 8000732:	b083      	sub	sp, #12
 8000734:	af00      	add	r7, sp, #0
 8000736:	6078      	str	r0, [r7, #4]
	return -1;
 8000738:	f04f 33ff 	mov.w	r3, #4294967295	; 0xffffffff
}
 800073c:	4618      	mov	r0, r3
 800073e:	370c      	adds	r7, #12
 8000740:	46bd      	mov	sp, r7
 8000742:	f85d 7b04 	ldr.w	r7, [sp], #4
 8000746:	4770      	bx	lr

08000748 <_execve>:
/*
 execve
 Transfer control to a new process. Minimal implementation (for a system without processes):
 */
int _execve(char *name, char **argv, char **env) {
 8000748:	b480      	push	{r7}
 800074a:	b085      	sub	sp, #20
 800074c:	af00      	add	r7, sp, #0
 800074e:	60f8      	str	r0, [r7, #12]
 8000750:	60b9      	str	r1, [r7, #8]
 8000752:	607a      	str	r2, [r7, #4]
	errno = ENOMEM;
 8000754:	4b05      	ldr	r3, [pc, #20]	; (800076c <_execve+0x24>)
 8000756:	220c      	movs	r2, #12
 8000758:	601a      	str	r2, [r3, #0]
	return -1;
 800075a:	f04f 33ff 	mov.w	r3, #4294967295	; 0xffffffff
}
 800075e:	4618      	mov	r0, r3
 8000760:	3714      	adds	r7, #20
 8000762:	46bd      	mov	sp, r7
 8000764:	f85d 7b04 	ldr.w	r7, [sp], #4
 8000768:	4770      	bx	lr
 800076a:	bf00      	nop
 800076c:	200008d0 	.word	0x200008d0

08000770 <_fork>:
/*
 fork
 Create a new process. Minimal implementation (for a system without processes):
 */

int _fork() {
 8000770:	b480      	push	{r7}
 8000772:	af00      	add	r7, sp, #0
	errno = EAGAIN;
 8000774:	4b04      	ldr	r3, [pc, #16]	; (8000788 <_fork+0x18>)
 8000776:	220b      	movs	r2, #11
 8000778:	601a      	str	r2, [r3, #0]
	return -1;
 800077a:	f04f 33ff 	mov.w	r3, #4294967295	; 0xffffffff
}
 800077e:	4618      	mov	r0, r3
 8000780:	46bd      	mov	sp, r7
 8000782:	f85d 7b04 	ldr.w	r7, [sp], #4
 8000786:	4770      	bx	lr
 8000788:	200008d0 	.word	0x200008d0

0800078c <_fstat>:
 fstat
 Status of an open file. For consistency with other minimal implementations in these examples,
 all files are regarded as character special devices.
 The `sys/stat.h' header file required is distributed in the `include' subdirectory for this C library.
 */
int _fstat(int file, struct stat *st) {
 800078c:	b480      	push	{r7}
 800078e:	b083      	sub	sp, #12
 8000790:	af00      	add	r7, sp, #0
 8000792:	6078      	str	r0, [r7, #4]
 8000794:	6039      	str	r1, [r7, #0]
	st->st_mode = S_IFCHR;
 8000796:	683b      	ldr	r3, [r7, #0]
 8000798:	f44f 5200 	mov.w	r2, #8192	; 0x2000
 800079c:	605a      	str	r2, [r3, #4]
	return 0;
 800079e:	2300      	movs	r3, #0
}
 80007a0:	4618      	mov	r0, r3
 80007a2:	370c      	adds	r7, #12
 80007a4:	46bd      	mov	sp, r7
 80007a6:	f85d 7b04 	ldr.w	r7, [sp], #4
 80007aa:	4770      	bx	lr

080007ac <_getpid>:
/*
 getpid
 Process-ID; this is sometimes used to generate strings unlikely to conflict with other processes. Minimal implementation, for a system without processes:
 */

int _getpid() {
 80007ac:	b480      	push	{r7}
 80007ae:	af00      	add	r7, sp, #0
	return 1;
 80007b0:	2301      	movs	r3, #1
}
 80007b2:	4618      	mov	r0, r3
 80007b4:	46bd      	mov	sp, r7
 80007b6:	f85d 7b04 	ldr.w	r7, [sp], #4
 80007ba:	4770      	bx	lr

080007bc <_isatty>:

/*
 isatty
 Query whether output stream is a terminal. For consistency with the other minimal implementations,
 */
int _isatty(int file) {
 80007bc:	b480      	push	{r7}
 80007be:	b083      	sub	sp, #12
 80007c0:	af00      	add	r7, sp, #0
 80007c2:	6078      	str	r0, [r7, #4]
	switch (file) {
 80007c4:	687b      	ldr	r3, [r7, #4]
 80007c6:	3300      	adds	r3, #0
 80007c8:	2b02      	cmp	r3, #2
 80007ca:	d801      	bhi.n	80007d0 <_isatty+0x14>
	case STDOUT_FILENO:
	case STDERR_FILENO:
	case STDIN_FILENO:
		return 1;
 80007cc:	2301      	movs	r3, #1
 80007ce:	e003      	b.n	80007d8 <_isatty+0x1c>
	default:
		//errno = ENOTTY;
		errno = EBADF;
 80007d0:	4b04      	ldr	r3, [pc, #16]	; (80007e4 <_isatty+0x28>)
 80007d2:	2209      	movs	r2, #9
 80007d4:	601a      	str	r2, [r3, #0]
		return 0;
 80007d6:	2300      	movs	r3, #0
	}
}
 80007d8:	4618      	mov	r0, r3
 80007da:	370c      	adds	r7, #12
 80007dc:	46bd      	mov	sp, r7
 80007de:	f85d 7b04 	ldr.w	r7, [sp], #4
 80007e2:	4770      	bx	lr
 80007e4:	200008d0 	.word	0x200008d0

080007e8 <_kill>:

/*
 kill
 Send a signal. Minimal implementation:
 */
int _kill(int pid, int sig) {
 80007e8:	b480      	push	{r7}
 80007ea:	b083      	sub	sp, #12
 80007ec:	af00      	add	r7, sp, #0
 80007ee:	6078      	str	r0, [r7, #4]
 80007f0:	6039      	str	r1, [r7, #0]
	errno = EINVAL;
 80007f2:	4b05      	ldr	r3, [pc, #20]	; (8000808 <_kill+0x20>)
 80007f4:	2216      	movs	r2, #22
 80007f6:	601a      	str	r2, [r3, #0]
	return (-1);
 80007f8:	f04f 33ff 	mov.w	r3, #4294967295	; 0xffffffff
}
 80007fc:	4618      	mov	r0, r3
 80007fe:	370c      	adds	r7, #12
 8000800:	46bd      	mov	sp, r7
 8000802:	f85d 7b04 	ldr.w	r7, [sp], #4
 8000806:	4770      	bx	lr
 8000808:	200008d0 	.word	0x200008d0

0800080c <_link>:
/*
 link
 Establish a new name for an existing file. Minimal implementation:
 */

int _link(char *old, char *new) {
 800080c:	b480      	push	{r7}
 800080e:	b083      	sub	sp, #12
 8000810:	af00      	add	r7, sp, #0
 8000812:	6078      	str	r0, [r7, #4]
 8000814:	6039      	str	r1, [r7, #0]
	errno = EMLINK;
 8000816:	4b05      	ldr	r3, [pc, #20]	; (800082c <_link+0x20>)
 8000818:	221f      	movs	r2, #31
 800081a:	601a      	str	r2, [r3, #0]
	return -1;
 800081c:	f04f 33ff 	mov.w	r3, #4294967295	; 0xffffffff
}
 8000820:	4618      	mov	r0, r3
 8000822:	370c      	adds	r7, #12
 8000824:	46bd      	mov	sp, r7
 8000826:	f85d 7b04 	ldr.w	r7, [sp], #4
 800082a:	4770      	bx	lr
 800082c:	200008d0 	.word	0x200008d0

08000830 <_lseek>:

/*
 lseek
 Set position in a file. Minimal implementation:
 */
int _lseek(int file, int ptr, int dir) {
 8000830:	b480      	push	{r7}
 8000832:	b085      	sub	sp, #20
 8000834:	af00      	add	r7, sp, #0
 8000836:	60f8      	str	r0, [r7, #12]
 8000838:	60b9      	str	r1, [r7, #8]
 800083a:	607a      	str	r2, [r7, #4]
	return 0;
 800083c:	2300      	movs	r3, #0
}
 800083e:	4618      	mov	r0, r3
 8000840:	3714      	adds	r7, #20
 8000842:	46bd      	mov	sp, r7
 8000844:	f85d 7b04 	ldr.w	r7, [sp], #4
 8000848:	4770      	bx	lr
 800084a:	bf00      	nop

0800084c <_sbrk>:
/*
 sbrk
 Increase program data space.
 Malloc and related functions depend on this
 */
caddr_t _sbrk(int incr) {
 800084c:	b590      	push	{r4, r7, lr}
 800084e:	b085      	sub	sp, #20
 8000850:	af00      	add	r7, sp, #0
 8000852:	6078      	str	r0, [r7, #4]

	extern char _ebss; // Defined by the linker
	static char *heap_end;
	char *prev_heap_end;

	if (heap_end == 0) {
 8000854:	4b15      	ldr	r3, [pc, #84]	; (80008ac <_sbrk+0x60>)
 8000856:	681b      	ldr	r3, [r3, #0]
 8000858:	2b00      	cmp	r3, #0
 800085a:	d102      	bne.n	8000862 <_sbrk+0x16>
		heap_end = &_ebss;
 800085c:	4b13      	ldr	r3, [pc, #76]	; (80008ac <_sbrk+0x60>)
 800085e:	4a14      	ldr	r2, [pc, #80]	; (80008b0 <_sbrk+0x64>)
 8000860:	601a      	str	r2, [r3, #0]
	}
	prev_heap_end = heap_end;
 8000862:	4b12      	ldr	r3, [pc, #72]	; (80008ac <_sbrk+0x60>)
 8000864:	681b      	ldr	r3, [r3, #0]
 8000866:	60fb      	str	r3, [r7, #12]
 */
__attribute__( ( always_inline ) ) static __INLINE uint32_t __get_MSP(void)
{
  register uint32_t result;

  __ASM volatile ("MRS %0, msp\n" : "=r" (result) );
 8000868:	f3ef 8308 	mrs	r3, MSP
 800086c:	461c      	mov	r4, r3
  return(result);
 800086e:	4623      	mov	r3, r4

	char * stack = (char*) __get_MSP();
 8000870:	60bb      	str	r3, [r7, #8]
	if (heap_end + incr > stack) {
 8000872:	4b0e      	ldr	r3, [pc, #56]	; (80008ac <_sbrk+0x60>)
 8000874:	681a      	ldr	r2, [r3, #0]
 8000876:	687b      	ldr	r3, [r7, #4]
 8000878:	441a      	add	r2, r3
 800087a:	68bb      	ldr	r3, [r7, #8]
 800087c:	429a      	cmp	r2, r3
 800087e:	d90a      	bls.n	8000896 <_sbrk+0x4a>
		_write(STDERR_FILENO, "Heap and stack collision\n", 25);
 8000880:	2002      	movs	r0, #2
 8000882:	490c      	ldr	r1, [pc, #48]	; (80008b4 <_sbrk+0x68>)
 8000884:	2219      	movs	r2, #25
 8000886:	f000 f867 	bl	8000958 <_write>
		errno = ENOMEM;
 800088a:	4b0b      	ldr	r3, [pc, #44]	; (80008b8 <_sbrk+0x6c>)
 800088c:	220c      	movs	r2, #12
 800088e:	601a      	str	r2, [r3, #0]
		return (caddr_t) -1;
 8000890:	f04f 33ff 	mov.w	r3, #4294967295	; 0xffffffff
 8000894:	e006      	b.n	80008a4 <_sbrk+0x58>
		//abort ();
	}

	heap_end += incr;
 8000896:	4b05      	ldr	r3, [pc, #20]	; (80008ac <_sbrk+0x60>)
 8000898:	681a      	ldr	r2, [r3, #0]
 800089a:	687b      	ldr	r3, [r7, #4]
 800089c:	4413      	add	r3, r2
 800089e:	4a03      	ldr	r2, [pc, #12]	; (80008ac <_sbrk+0x60>)
 80008a0:	6013      	str	r3, [r2, #0]
	return (caddr_t) prev_heap_end;
 80008a2:	68fb      	ldr	r3, [r7, #12]

}
 80008a4:	4618      	mov	r0, r3
 80008a6:	3714      	adds	r7, #20
 80008a8:	46bd      	mov	sp, r7
 80008aa:	bd90      	pop	{r4, r7, pc}
 80008ac:	20000898 	.word	0x20000898
 80008b0:	200008d4 	.word	0x200008d4
 80008b4:	08004658 	.word	0x08004658
 80008b8:	200008d0 	.word	0x200008d0

080008bc <_read>:
 read
 Read a character to a file. `libc' subroutines will use this system routine for input from all files, including stdin
 Returns -1 on error or blocks until the number of characters have been read.
 */

int _read(int file, char *ptr, int len) {
 80008bc:	b480      	push	{r7}
 80008be:	b085      	sub	sp, #20
 80008c0:	af00      	add	r7, sp, #0
 80008c2:	60f8      	str	r0, [r7, #12]
 80008c4:	60b9      	str	r1, [r7, #8]
 80008c6:	607a      	str	r2, [r7, #4]
	return -1;
 80008c8:	f04f 33ff 	mov.w	r3, #4294967295	; 0xffffffff
}
 80008cc:	4618      	mov	r0, r3
 80008ce:	3714      	adds	r7, #20
 80008d0:	46bd      	mov	sp, r7
 80008d2:	f85d 7b04 	ldr.w	r7, [sp], #4
 80008d6:	4770      	bx	lr

080008d8 <_stat>:
 stat
 Status of a file (by name). Minimal implementation:
 int    _EXFUN(stat,( const char *__path, struct stat *__sbuf ));
 */

int _stat(const char *filepath, struct stat *st) {
 80008d8:	b480      	push	{r7}
 80008da:	b083      	sub	sp, #12
 80008dc:	af00      	add	r7, sp, #0
 80008de:	6078      	str	r0, [r7, #4]
 80008e0:	6039      	str	r1, [r7, #0]
	st->st_mode = S_IFCHR;
 80008e2:	683b      	ldr	r3, [r7, #0]
 80008e4:	f44f 5200 	mov.w	r2, #8192	; 0x2000
 80008e8:	605a      	str	r2, [r3, #4]
	return 0;
 80008ea:	2300      	movs	r3, #0
}
 80008ec:	4618      	mov	r0, r3
 80008ee:	370c      	adds	r7, #12
 80008f0:	46bd      	mov	sp, r7
 80008f2:	f85d 7b04 	ldr.w	r7, [sp], #4
 80008f6:	4770      	bx	lr

080008f8 <_times>:
/*
 times
 Timing information for current process. Minimal implementation:
 */

clock_t _times(struct tms *buf) {
 80008f8:	b480      	push	{r7}
 80008fa:	b083      	sub	sp, #12
 80008fc:	af00      	add	r7, sp, #0
 80008fe:	6078      	str	r0, [r7, #4]
	return -1;
 8000900:	f04f 33ff 	mov.w	r3, #4294967295	; 0xffffffff
}
 8000904:	4618      	mov	r0, r3
 8000906:	370c      	adds	r7, #12
 8000908:	46bd      	mov	sp, r7
 800090a:	f85d 7b04 	ldr.w	r7, [sp], #4
 800090e:	4770      	bx	lr

08000910 <_unlink>:

/*
 unlink
 Remove a file's directory entry. Minimal implementation:
 */
int _unlink(char *name) {
 8000910:	b480      	push	{r7}
 8000912:	b083      	sub	sp, #12
 8000914:	af00      	add	r7, sp, #0
 8000916:	6078      	str	r0, [r7, #4]
	errno = ENOENT;
 8000918:	4b05      	ldr	r3, [pc, #20]	; (8000930 <_unlink+0x20>)
 800091a:	2202      	movs	r2, #2
 800091c:	601a      	str	r2, [r3, #0]
	return -1;
 800091e:	f04f 33ff 	mov.w	r3, #4294967295	; 0xffffffff
}
 8000922:	4618      	mov	r0, r3
 8000924:	370c      	adds	r7, #12
 8000926:	46bd      	mov	sp, r7
 8000928:	f85d 7b04 	ldr.w	r7, [sp], #4
 800092c:	4770      	bx	lr
 800092e:	bf00      	nop
 8000930:	200008d0 	.word	0x200008d0

08000934 <_wait>:

/*
 wait
 Wait for a child process. Minimal implementation:
 */
int _wait(int *status) {
 8000934:	b480      	push	{r7}
 8000936:	b083      	sub	sp, #12
 8000938:	af00      	add	r7, sp, #0
 800093a:	6078      	str	r0, [r7, #4]
	errno = ECHILD;
 800093c:	4b05      	ldr	r3, [pc, #20]	; (8000954 <_wait+0x20>)
 800093e:	220a      	movs	r2, #10
 8000940:	601a      	str	r2, [r3, #0]
	return -1;
 8000942:	f04f 33ff 	mov.w	r3, #4294967295	; 0xffffffff
}
 8000946:	4618      	mov	r0, r3
 8000948:	370c      	adds	r7, #12
 800094a:	46bd      	mov	sp, r7
 800094c:	f85d 7b04 	ldr.w	r7, [sp], #4
 8000950:	4770      	bx	lr
 8000952:	bf00      	nop
 8000954:	200008d0 	.word	0x200008d0

08000958 <_write>:
/*
 write
 Write a character to a file. `libc' subroutines will use this system routine for output to all files, including stdout
 Returns -1 on error or number of bytes sent
 */
int _write(int file, char *ptr, int len) {
 8000958:	b580      	push	{r7, lr}
 800095a:	b084      	sub	sp, #16
 800095c:	af00      	add	r7, sp, #0
 800095e:	60f8      	str	r0, [r7, #12]
 8000960:	60b9      	str	r1, [r7, #8]
 8000962:	607a      	str	r2, [r7, #4]
	switch (file) {
 8000964:	68fb      	ldr	r3, [r7, #12]
 8000966:	2b01      	cmp	r3, #1
 8000968:	d002      	beq.n	8000970 <_write+0x18>
 800096a:	2b02      	cmp	r3, #2
 800096c:	d006      	beq.n	800097c <_write+0x24>
 800096e:	e00b      	b.n	8000988 <_write+0x30>
	case STDOUT_FILENO: /*stdout*/
		len = SYS_Print(ptr, len);
 8000970:	68b8      	ldr	r0, [r7, #8]
 8000972:	6879      	ldr	r1, [r7, #4]
 8000974:	f7ff fea6 	bl	80006c4 <SYS_Print>
 8000978:	6078      	str	r0, [r7, #4]
		break;
 800097a:	e00b      	b.n	8000994 <_write+0x3c>
	case STDERR_FILENO: /* stderr */
		len = SYS_Print(ptr, len);
 800097c:	68b8      	ldr	r0, [r7, #8]
 800097e:	6879      	ldr	r1, [r7, #4]
 8000980:	f7ff fea0 	bl	80006c4 <SYS_Print>
 8000984:	6078      	str	r0, [r7, #4]
		break;
 8000986:	e005      	b.n	8000994 <_write+0x3c>
	default:
		errno = EBADF;
 8000988:	4b05      	ldr	r3, [pc, #20]	; (80009a0 <_write+0x48>)
 800098a:	2209      	movs	r2, #9
 800098c:	601a      	str	r2, [r3, #0]
		return -1;
 800098e:	f04f 33ff 	mov.w	r3, #4294967295	; 0xffffffff
 8000992:	e000      	b.n	8000996 <_write+0x3e>
	}
	return len;
 8000994:	687b      	ldr	r3, [r7, #4]
}
 8000996:	4618      	mov	r0, r3
 8000998:	3710      	adds	r7, #16
 800099a:	46bd      	mov	sp, r7
 800099c:	bd80      	pop	{r7, pc}
 800099e:	bf00      	nop
 80009a0:	200008d0 	.word	0x200008d0

080009a4 <SystemInit>:
  *         SystemFrequency variable.
  * @param  None
  * @retval None
  */
void SystemInit(void)
{
 80009a4:	b580      	push	{r7, lr}
 80009a6:	af00      	add	r7, sp, #0
  /* FPU settings ------------------------------------------------------------*/
  #if (__FPU_PRESENT == 1) && (__FPU_USED == 1)
    SCB->CPACR |= ((3UL << 10*2)|(3UL << 11*2));  /* set CP10 and CP11 Full Access */
 80009a8:	4a15      	ldr	r2, [pc, #84]	; (8000a00 <SystemInit+0x5c>)
 80009aa:	4b15      	ldr	r3, [pc, #84]	; (8000a00 <SystemInit+0x5c>)
 80009ac:	f8d3 3088 	ldr.w	r3, [r3, #136]	; 0x88
 80009b0:	f443 0370 	orr.w	r3, r3, #15728640	; 0xf00000
 80009b4:	f8c2 3088 	str.w	r3, [r2, #136]	; 0x88
  #endif
  /* Reset the RCC clock configuration to the default reset state ------------*/
  /* Set HSION bit */
  RCC->CR |= (uint32_t)0x00000001;
 80009b8:	4a12      	ldr	r2, [pc, #72]	; (8000a04 <SystemInit+0x60>)
 80009ba:	4b12      	ldr	r3, [pc, #72]	; (8000a04 <SystemInit+0x60>)
 80009bc:	681b      	ldr	r3, [r3, #0]
 80009be:	f043 0301 	orr.w	r3, r3, #1
 80009c2:	6013      	str	r3, [r2, #0]

  /* Reset CFGR register */
  RCC->CFGR = 0x00000000;
 80009c4:	4b0f      	ldr	r3, [pc, #60]	; (8000a04 <SystemInit+0x60>)
 80009c6:	2200      	movs	r2, #0
 80009c8:	609a      	str	r2, [r3, #8]

  /* Reset HSEON, CSSON and PLLON bits */
  RCC->CR &= (uint32_t)0xFEF6FFFF;
 80009ca:	4a0e      	ldr	r2, [pc, #56]	; (8000a04 <SystemInit+0x60>)
 80009cc:	4b0d      	ldr	r3, [pc, #52]	; (8000a04 <SystemInit+0x60>)
 80009ce:	681b      	ldr	r3, [r3, #0]
 80009d0:	f023 7384 	bic.w	r3, r3, #17301504	; 0x1080000
 80009d4:	f423 3380 	bic.w	r3, r3, #65536	; 0x10000
 80009d8:	6013      	str	r3, [r2, #0]

  /* Reset PLLCFGR register */
  RCC->PLLCFGR = 0x24003010;
 80009da:	4b0a      	ldr	r3, [pc, #40]	; (8000a04 <SystemInit+0x60>)
 80009dc:	4a0a      	ldr	r2, [pc, #40]	; (8000a08 <SystemInit+0x64>)
 80009de:	605a      	str	r2, [r3, #4]

  /* Reset HSEBYP bit */
  RCC->CR &= (uint32_t)0xFFFBFFFF;
 80009e0:	4a08      	ldr	r2, [pc, #32]	; (8000a04 <SystemInit+0x60>)
 80009e2:	4b08      	ldr	r3, [pc, #32]	; (8000a04 <SystemInit+0x60>)
 80009e4:	681b      	ldr	r3, [r3, #0]
 80009e6:	f423 2380 	bic.w	r3, r3, #262144	; 0x40000
 80009ea:	6013      	str	r3, [r2, #0]

  /* Disable all interrupts */
  RCC->CIR = 0x00000000;
 80009ec:	4b05      	ldr	r3, [pc, #20]	; (8000a04 <SystemInit+0x60>)
 80009ee:	2200      	movs	r2, #0
 80009f0:	60da      	str	r2, [r3, #12]
  SystemInit_ExtMemCtl(); 
#endif /* DATA_IN_ExtSRAM || DATA_IN_ExtSDRAM */
         
  /* Configure the System clock source, PLL Multiplier and Divider factors, 
     AHB/APBx prescalers and Flash settings ----------------------------------*/
  SetSysClock();
 80009f2:	f000 f869 	bl	8000ac8 <SetSysClock>

  /* Configure the Vector Table location add offset address ------------------*/
#ifdef VECT_TAB_SRAM
  SCB->VTOR = SRAM_BASE | VECT_TAB_OFFSET; /* Vector Table Relocation in Internal SRAM */
#else
  SCB->VTOR = FLASH_BASE | VECT_TAB_OFFSET; /* Vector Table Relocation in Internal FLASH */
 80009f6:	4b02      	ldr	r3, [pc, #8]	; (8000a00 <SystemInit+0x5c>)
 80009f8:	f04f 6200 	mov.w	r2, #134217728	; 0x8000000
 80009fc:	609a      	str	r2, [r3, #8]
#endif
}
 80009fe:	bd80      	pop	{r7, pc}
 8000a00:	e000ed00 	.word	0xe000ed00
 8000a04:	40023800 	.word	0x40023800
 8000a08:	24003010 	.word	0x24003010

08000a0c <SystemCoreClockUpdate>:
  *     
  * @param  None
  * @retval None
  */
void SystemCoreClockUpdate(void)
{
 8000a0c:	b480      	push	{r7}
 8000a0e:	b087      	sub	sp, #28
 8000a10:	af00      	add	r7, sp, #0
  uint32_t tmp = 0, pllvco = 0, pllp = 2, pllsource = 0, pllm = 2;
 8000a12:	2300      	movs	r3, #0
 8000a14:	617b      	str	r3, [r7, #20]
 8000a16:	2300      	movs	r3, #0
 8000a18:	613b      	str	r3, [r7, #16]
 8000a1a:	2302      	movs	r3, #2
 8000a1c:	60fb      	str	r3, [r7, #12]
 8000a1e:	2300      	movs	r3, #0
 8000a20:	60bb      	str	r3, [r7, #8]
 8000a22:	2302      	movs	r3, #2
 8000a24:	607b      	str	r3, [r7, #4]
  
  /* Get SYSCLK source -------------------------------------------------------*/
  tmp = RCC->CFGR & RCC_CFGR_SWS;
 8000a26:	4b23      	ldr	r3, [pc, #140]	; (8000ab4 <SystemCoreClockUpdate+0xa8>)
 8000a28:	689b      	ldr	r3, [r3, #8]
 8000a2a:	f003 030c 	and.w	r3, r3, #12
 8000a2e:	617b      	str	r3, [r7, #20]

  switch (tmp)
 8000a30:	697b      	ldr	r3, [r7, #20]
 8000a32:	2b04      	cmp	r3, #4
 8000a34:	d007      	beq.n	8000a46 <SystemCoreClockUpdate+0x3a>
 8000a36:	2b08      	cmp	r3, #8
 8000a38:	d009      	beq.n	8000a4e <SystemCoreClockUpdate+0x42>
 8000a3a:	2b00      	cmp	r3, #0
 8000a3c:	d121      	bne.n	8000a82 <SystemCoreClockUpdate+0x76>
  {
    case 0x00:  /* HSI used as system clock source */
      SystemCoreClock = HSI_VALUE;
 8000a3e:	4b1e      	ldr	r3, [pc, #120]	; (8000ab8 <SystemCoreClockUpdate+0xac>)
 8000a40:	4a1e      	ldr	r2, [pc, #120]	; (8000abc <SystemCoreClockUpdate+0xb0>)
 8000a42:	601a      	str	r2, [r3, #0]
      break;
 8000a44:	e021      	b.n	8000a8a <SystemCoreClockUpdate+0x7e>
    case 0x04:  /* HSE used as system clock source */
      SystemCoreClock = HSE_VALUE;
 8000a46:	4b1c      	ldr	r3, [pc, #112]	; (8000ab8 <SystemCoreClockUpdate+0xac>)
 8000a48:	4a1d      	ldr	r2, [pc, #116]	; (8000ac0 <SystemCoreClockUpdate+0xb4>)
 8000a4a:	601a      	str	r2, [r3, #0]
      break;
 8000a4c:	e01d      	b.n	8000a8a <SystemCoreClockUpdate+0x7e>
    case 0x08:  /* PLL used as system clock source */
       /* PLL_VCO = (HSE_VALUE or HSI_VALUE / PLL_M) * PLL_N
         SYSCLK = PLL_VCO / PLL_P
         */    
      pllsource = (RCC->PLLCFGR & RCC_PLLCFGR_PLLSRC) >> 22;
 8000a4e:	4b19      	ldr	r3, [pc, #100]	; (8000ab4 <SystemCoreClockUpdate+0xa8>)
 8000a50:	685b      	ldr	r3, [r3, #4]
 8000a52:	f403 0380 	and.w	r3, r3, #4194304	; 0x400000
 8000a56:	0d9b      	lsrs	r3, r3, #22
 8000a58:	60bb      	str	r3, [r7, #8]
      pllm = RCC->PLLCFGR & RCC_PLLCFGR_PLLM;
 8000a5a:	4b16      	ldr	r3, [pc, #88]	; (8000ab4 <SystemCoreClockUpdate+0xa8>)
 8000a5c:	685b      	ldr	r3, [r3, #4]
 8000a5e:	f003 033f 	and.w	r3, r3, #63	; 0x3f
 8000a62:	607b      	str	r3, [r7, #4]
        /* HSI used as PLL clock source */
        pllvco = (HSI_VALUE / pllm) * ((RCC->PLLCFGR & RCC_PLLCFGR_PLLN) >> 6);
      }  
#endif /* USE_HSE_BYPASS */  
#endif /* STM32F40_41xxx || STM32F427_437xx || STM32F429_439xx || STM32F401xx */  
      pllp = (((RCC->PLLCFGR & RCC_PLLCFGR_PLLP) >>16) + 1 ) *2;
 8000a64:	4b13      	ldr	r3, [pc, #76]	; (8000ab4 <SystemCoreClockUpdate+0xa8>)
 8000a66:	685b      	ldr	r3, [r3, #4]
 8000a68:	f403 3340 	and.w	r3, r3, #196608	; 0x30000
 8000a6c:	0c1b      	lsrs	r3, r3, #16
 8000a6e:	3301      	adds	r3, #1
 8000a70:	005b      	lsls	r3, r3, #1
 8000a72:	60fb      	str	r3, [r7, #12]
      SystemCoreClock = pllvco/pllp;      
 8000a74:	693a      	ldr	r2, [r7, #16]
 8000a76:	68fb      	ldr	r3, [r7, #12]
 8000a78:	fbb2 f3f3 	udiv	r3, r2, r3
 8000a7c:	4a0e      	ldr	r2, [pc, #56]	; (8000ab8 <SystemCoreClockUpdate+0xac>)
 8000a7e:	6013      	str	r3, [r2, #0]
      break;
 8000a80:	e003      	b.n	8000a8a <SystemCoreClockUpdate+0x7e>
    default:
      SystemCoreClock = HSI_VALUE;
 8000a82:	4b0d      	ldr	r3, [pc, #52]	; (8000ab8 <SystemCoreClockUpdate+0xac>)
 8000a84:	4a0d      	ldr	r2, [pc, #52]	; (8000abc <SystemCoreClockUpdate+0xb0>)
 8000a86:	601a      	str	r2, [r3, #0]
      break;
 8000a88:	bf00      	nop
  }
  /* Compute HCLK frequency --------------------------------------------------*/
  /* Get HCLK prescaler */
  tmp = AHBPrescTable[((RCC->CFGR & RCC_CFGR_HPRE) >> 4)];
 8000a8a:	4b0a      	ldr	r3, [pc, #40]	; (8000ab4 <SystemCoreClockUpdate+0xa8>)
 8000a8c:	689b      	ldr	r3, [r3, #8]
 8000a8e:	f003 03f0 	and.w	r3, r3, #240	; 0xf0
 8000a92:	091b      	lsrs	r3, r3, #4
 8000a94:	4a0b      	ldr	r2, [pc, #44]	; (8000ac4 <SystemCoreClockUpdate+0xb8>)
 8000a96:	5cd3      	ldrb	r3, [r2, r3]
 8000a98:	b2db      	uxtb	r3, r3
 8000a9a:	617b      	str	r3, [r7, #20]
  /* HCLK frequency */
  SystemCoreClock >>= tmp;
 8000a9c:	4b06      	ldr	r3, [pc, #24]	; (8000ab8 <SystemCoreClockUpdate+0xac>)
 8000a9e:	681a      	ldr	r2, [r3, #0]
 8000aa0:	697b      	ldr	r3, [r7, #20]
 8000aa2:	fa22 f303 	lsr.w	r3, r2, r3
 8000aa6:	4a04      	ldr	r2, [pc, #16]	; (8000ab8 <SystemCoreClockUpdate+0xac>)
 8000aa8:	6013      	str	r3, [r2, #0]
}
 8000aaa:	371c      	adds	r7, #28
 8000aac:	46bd      	mov	sp, r7
 8000aae:	f85d 7b04 	ldr.w	r7, [sp], #4
 8000ab2:	4770      	bx	lr
 8000ab4:	40023800 	.word	0x40023800
 8000ab8:	20000010 	.word	0x20000010
 8000abc:	00f42400 	.word	0x00f42400
 8000ac0:	007a1200 	.word	0x007a1200
 8000ac4:	20000014 	.word	0x20000014

08000ac8 <SetSysClock>:
  *         is reset to the default reset state (done in SystemInit() function).   
  * @param  None
  * @retval None
  */
static void SetSysClock(void)
{
 8000ac8:	b480      	push	{r7}
 8000aca:	af00      	add	r7, sp, #0
  while ((RCC->CFGR & (uint32_t)RCC_CFGR_SWS ) != RCC_CFGR_SWS_PLL);
  {
  }
#endif /* USE_HSE_BYPASS */  
#endif /* STM32F40_41xxx || STM32F427_437xx || STM32F429_439xx || STM32F401xx */  
}
 8000acc:	46bd      	mov	sp, r7
 8000ace:	f85d 7b04 	ldr.w	r7, [sp], #4
 8000ad2:	4770      	bx	lr

08000ad4 <delay_us>:
#include "delay.h"

void delay_us(unsigned int i) {     
 8000ad4:	b480      	push	{r7}
 8000ad6:	b083      	sub	sp, #12
 8000ad8:	af00      	add	r7, sp, #0
 8000ada:	6078      	str	r0, [r7, #4]
  while( i--) {}
 8000adc:	bf00      	nop
 8000ade:	687b      	ldr	r3, [r7, #4]
 8000ae0:	1e5a      	subs	r2, r3, #1
 8000ae2:	607a      	str	r2, [r7, #4]
 8000ae4:	2b00      	cmp	r3, #0
 8000ae6:	d1fa      	bne.n	8000ade <delay_us+0xa>
}		  
 8000ae8:	370c      	adds	r7, #12
 8000aea:	46bd      	mov	sp, r7
 8000aec:	f85d 7b04 	ldr.w	r7, [sp], #4
 8000af0:	4770      	bx	lr
 8000af2:	bf00      	nop

08000af4 <delay_ms>:

void delay_ms(unsigned int time) {
 8000af4:	b580      	push	{r7, lr}
 8000af6:	b082      	sub	sp, #8
 8000af8:	af00      	add	r7, sp, #0
 8000afa:	6078      	str	r0, [r7, #4]
  while(time--) {	
 8000afc:	e003      	b.n	8000b06 <delay_ms+0x12>
    delay_us(1000);
 8000afe:	f44f 707a 	mov.w	r0, #1000	; 0x3e8
 8000b02:	f7ff ffe7 	bl	8000ad4 <delay_us>
void delay_us(unsigned int i) {     
  while( i--) {}
}		  

void delay_ms(unsigned int time) {
  while(time--) {	
 8000b06:	687b      	ldr	r3, [r7, #4]
 8000b08:	1e5a      	subs	r2, r3, #1
 8000b0a:	607a      	str	r2, [r7, #4]
 8000b0c:	2b00      	cmp	r3, #0
 8000b0e:	d1f6      	bne.n	8000afe <delay_ms+0xa>
    delay_us(1000);
  }
}
 8000b10:	3708      	adds	r7, #8
 8000b12:	46bd      	mov	sp, r7
 8000b14:	bd80      	pop	{r7, pc}
 8000b16:	bf00      	nop

08000b18 <RCC_DeInit>:
  *            - LSI, LSE and RTC clocks 
  * @param  None
  * @retval None
  */
void RCC_DeInit(void)
{
 8000b18:	b480      	push	{r7}
 8000b1a:	af00      	add	r7, sp, #0
  /* Set HSION bit */
  RCC->CR |= (uint32_t)0x00000001;
 8000b1c:	4a10      	ldr	r2, [pc, #64]	; (8000b60 <RCC_DeInit+0x48>)
 8000b1e:	4b10      	ldr	r3, [pc, #64]	; (8000b60 <RCC_DeInit+0x48>)
 8000b20:	681b      	ldr	r3, [r3, #0]
 8000b22:	f043 0301 	orr.w	r3, r3, #1
 8000b26:	6013      	str	r3, [r2, #0]

  /* Reset CFGR register */
  RCC->CFGR = 0x00000000;
 8000b28:	4b0d      	ldr	r3, [pc, #52]	; (8000b60 <RCC_DeInit+0x48>)
 8000b2a:	2200      	movs	r2, #0
 8000b2c:	609a      	str	r2, [r3, #8]

  /* Reset HSEON, CSSON and PLLON bits */
  RCC->CR &= (uint32_t)0xFEF6FFFF;
 8000b2e:	4a0c      	ldr	r2, [pc, #48]	; (8000b60 <RCC_DeInit+0x48>)
 8000b30:	4b0b      	ldr	r3, [pc, #44]	; (8000b60 <RCC_DeInit+0x48>)
 8000b32:	681b      	ldr	r3, [r3, #0]
 8000b34:	f023 7384 	bic.w	r3, r3, #17301504	; 0x1080000
 8000b38:	f423 3380 	bic.w	r3, r3, #65536	; 0x10000
 8000b3c:	6013      	str	r3, [r2, #0]

  /* Reset PLLCFGR register */
  RCC->PLLCFGR = 0x24003010;
 8000b3e:	4b08      	ldr	r3, [pc, #32]	; (8000b60 <RCC_DeInit+0x48>)
 8000b40:	4a08      	ldr	r2, [pc, #32]	; (8000b64 <RCC_DeInit+0x4c>)
 8000b42:	605a      	str	r2, [r3, #4]

  /* Reset HSEBYP bit */
  RCC->CR &= (uint32_t)0xFFFBFFFF;
 8000b44:	4a06      	ldr	r2, [pc, #24]	; (8000b60 <RCC_DeInit+0x48>)
 8000b46:	4b06      	ldr	r3, [pc, #24]	; (8000b60 <RCC_DeInit+0x48>)
 8000b48:	681b      	ldr	r3, [r3, #0]
 8000b4a:	f423 2380 	bic.w	r3, r3, #262144	; 0x40000
 8000b4e:	6013      	str	r3, [r2, #0]

  /* Disable all interrupts */
  RCC->CIR = 0x00000000;
 8000b50:	4b03      	ldr	r3, [pc, #12]	; (8000b60 <RCC_DeInit+0x48>)
 8000b52:	2200      	movs	r2, #0
 8000b54:	60da      	str	r2, [r3, #12]
}
 8000b56:	46bd      	mov	sp, r7
 8000b58:	f85d 7b04 	ldr.w	r7, [sp], #4
 8000b5c:	4770      	bx	lr
 8000b5e:	bf00      	nop
 8000b60:	40023800 	.word	0x40023800
 8000b64:	24003010 	.word	0x24003010

08000b68 <RCC_HSEConfig>:
  *            @arg RCC_HSE_ON: turn ON the HSE oscillator
  *            @arg RCC_HSE_Bypass: HSE oscillator bypassed with external clock
  * @retval None
  */
void RCC_HSEConfig(uint8_t RCC_HSE)
{
 8000b68:	b480      	push	{r7}
 8000b6a:	b083      	sub	sp, #12
 8000b6c:	af00      	add	r7, sp, #0
 8000b6e:	4603      	mov	r3, r0
 8000b70:	71fb      	strb	r3, [r7, #7]
  /* Check the parameters */
  assert_param(IS_RCC_HSE(RCC_HSE));

  /* Reset HSEON and HSEBYP bits before configuring the HSE ------------------*/
  *(__IO uint8_t *) CR_BYTE3_ADDRESS = RCC_HSE_OFF;
 8000b72:	4b05      	ldr	r3, [pc, #20]	; (8000b88 <RCC_HSEConfig+0x20>)
 8000b74:	2200      	movs	r2, #0
 8000b76:	701a      	strb	r2, [r3, #0]

  /* Set the new HSE configuration -------------------------------------------*/
  *(__IO uint8_t *) CR_BYTE3_ADDRESS = RCC_HSE;
 8000b78:	4a03      	ldr	r2, [pc, #12]	; (8000b88 <RCC_HSEConfig+0x20>)
 8000b7a:	79fb      	ldrb	r3, [r7, #7]
 8000b7c:	7013      	strb	r3, [r2, #0]
}
 8000b7e:	370c      	adds	r7, #12
 8000b80:	46bd      	mov	sp, r7
 8000b82:	f85d 7b04 	ldr.w	r7, [sp], #4
 8000b86:	4770      	bx	lr
 8000b88:	40023802 	.word	0x40023802

08000b8c <RCC_WaitForHSEStartUp>:
  * @retval An ErrorStatus enumeration value:
  *          - SUCCESS: HSE oscillator is stable and ready to use
  *          - ERROR: HSE oscillator not yet ready
  */
ErrorStatus RCC_WaitForHSEStartUp(void)
{
 8000b8c:	b580      	push	{r7, lr}
 8000b8e:	b082      	sub	sp, #8
 8000b90:	af00      	add	r7, sp, #0
  __IO uint32_t startupcounter = 0;
 8000b92:	2300      	movs	r3, #0
 8000b94:	603b      	str	r3, [r7, #0]
  ErrorStatus status = ERROR;
 8000b96:	2300      	movs	r3, #0
 8000b98:	71fb      	strb	r3, [r7, #7]
  FlagStatus hsestatus = RESET;
 8000b9a:	2300      	movs	r3, #0
 8000b9c:	71bb      	strb	r3, [r7, #6]
  /* Wait till HSE is ready and if Time out is reached exit */
  do
  {
    hsestatus = RCC_GetFlagStatus(RCC_FLAG_HSERDY);
 8000b9e:	2031      	movs	r0, #49	; 0x31
 8000ba0:	f000 fc86 	bl	80014b0 <RCC_GetFlagStatus>
 8000ba4:	4603      	mov	r3, r0
 8000ba6:	71bb      	strb	r3, [r7, #6]
    startupcounter++;
 8000ba8:	683b      	ldr	r3, [r7, #0]
 8000baa:	3301      	adds	r3, #1
 8000bac:	603b      	str	r3, [r7, #0]
  } while((startupcounter != HSE_STARTUP_TIMEOUT) && (hsestatus == RESET));
 8000bae:	683b      	ldr	r3, [r7, #0]
 8000bb0:	f5b3 6fa0 	cmp.w	r3, #1280	; 0x500
 8000bb4:	d002      	beq.n	8000bbc <RCC_WaitForHSEStartUp+0x30>
 8000bb6:	79bb      	ldrb	r3, [r7, #6]
 8000bb8:	2b00      	cmp	r3, #0
 8000bba:	d0f0      	beq.n	8000b9e <RCC_WaitForHSEStartUp+0x12>

  if (RCC_GetFlagStatus(RCC_FLAG_HSERDY) != RESET)
 8000bbc:	2031      	movs	r0, #49	; 0x31
 8000bbe:	f000 fc77 	bl	80014b0 <RCC_GetFlagStatus>
 8000bc2:	4603      	mov	r3, r0
 8000bc4:	2b00      	cmp	r3, #0
 8000bc6:	d002      	beq.n	8000bce <RCC_WaitForHSEStartUp+0x42>
  {
    status = SUCCESS;
 8000bc8:	2301      	movs	r3, #1
 8000bca:	71fb      	strb	r3, [r7, #7]
 8000bcc:	e001      	b.n	8000bd2 <RCC_WaitForHSEStartUp+0x46>
  }
  else
  {
    status = ERROR;
 8000bce:	2300      	movs	r3, #0
 8000bd0:	71fb      	strb	r3, [r7, #7]
  }
  return (status);
 8000bd2:	79fb      	ldrb	r3, [r7, #7]
}
 8000bd4:	4618      	mov	r0, r3
 8000bd6:	3708      	adds	r7, #8
 8000bd8:	46bd      	mov	sp, r7
 8000bda:	bd80      	pop	{r7, pc}

08000bdc <RCC_AdjustHSICalibrationValue>:
  * @param  HSICalibrationValue: specifies the calibration trimming value.
  *         This parameter must be a number between 0 and 0x1F.
  * @retval None
  */
void RCC_AdjustHSICalibrationValue(uint8_t HSICalibrationValue)
{
 8000bdc:	b480      	push	{r7}
 8000bde:	b085      	sub	sp, #20
 8000be0:	af00      	add	r7, sp, #0
 8000be2:	4603      	mov	r3, r0
 8000be4:	71fb      	strb	r3, [r7, #7]
  uint32_t tmpreg = 0;
 8000be6:	2300      	movs	r3, #0
 8000be8:	60fb      	str	r3, [r7, #12]
  /* Check the parameters */
  assert_param(IS_RCC_CALIBRATION_VALUE(HSICalibrationValue));

  tmpreg = RCC->CR;
 8000bea:	4b0a      	ldr	r3, [pc, #40]	; (8000c14 <RCC_AdjustHSICalibrationValue+0x38>)
 8000bec:	681b      	ldr	r3, [r3, #0]
 8000bee:	60fb      	str	r3, [r7, #12]

  /* Clear HSITRIM[4:0] bits */
  tmpreg &= ~RCC_CR_HSITRIM;
 8000bf0:	68fb      	ldr	r3, [r7, #12]
 8000bf2:	f023 03f8 	bic.w	r3, r3, #248	; 0xf8
 8000bf6:	60fb      	str	r3, [r7, #12]

  /* Set the HSITRIM[4:0] bits according to HSICalibrationValue value */
  tmpreg |= (uint32_t)HSICalibrationValue << 3;
 8000bf8:	79fb      	ldrb	r3, [r7, #7]
 8000bfa:	00db      	lsls	r3, r3, #3
 8000bfc:	68fa      	ldr	r2, [r7, #12]
 8000bfe:	4313      	orrs	r3, r2
 8000c00:	60fb      	str	r3, [r7, #12]

  /* Store the new value */
  RCC->CR = tmpreg;
 8000c02:	4a04      	ldr	r2, [pc, #16]	; (8000c14 <RCC_AdjustHSICalibrationValue+0x38>)
 8000c04:	68fb      	ldr	r3, [r7, #12]
 8000c06:	6013      	str	r3, [r2, #0]
}
 8000c08:	3714      	adds	r7, #20
 8000c0a:	46bd      	mov	sp, r7
 8000c0c:	f85d 7b04 	ldr.w	r7, [sp], #4
 8000c10:	4770      	bx	lr
 8000c12:	bf00      	nop
 8000c14:	40023800 	.word	0x40023800

08000c18 <RCC_HSICmd>:
  * @note   When the HSI is stopped, HSIRDY flag goes low after 6 HSI oscillator
  *         clock cycles.  
  * @retval None
  */
void RCC_HSICmd(FunctionalState NewState)
{
 8000c18:	b480      	push	{r7}
 8000c1a:	b083      	sub	sp, #12
 8000c1c:	af00      	add	r7, sp, #0
 8000c1e:	4603      	mov	r3, r0
 8000c20:	71fb      	strb	r3, [r7, #7]
  /* Check the parameters */
  assert_param(IS_FUNCTIONAL_STATE(NewState));

  *(__IO uint32_t *) CR_HSION_BB = (uint32_t)NewState;
 8000c22:	4a04      	ldr	r2, [pc, #16]	; (8000c34 <RCC_HSICmd+0x1c>)
 8000c24:	79fb      	ldrb	r3, [r7, #7]
 8000c26:	6013      	str	r3, [r2, #0]
}
 8000c28:	370c      	adds	r7, #12
 8000c2a:	46bd      	mov	sp, r7
 8000c2c:	f85d 7b04 	ldr.w	r7, [sp], #4
 8000c30:	4770      	bx	lr
 8000c32:	bf00      	nop
 8000c34:	42470000 	.word	0x42470000

08000c38 <RCC_LSEConfig>:
  *            @arg RCC_LSE_ON: turn ON the LSE oscillator
  *            @arg RCC_LSE_Bypass: LSE oscillator bypassed with external clock
  * @retval None
  */
void RCC_LSEConfig(uint8_t RCC_LSE)
{
 8000c38:	b480      	push	{r7}
 8000c3a:	b083      	sub	sp, #12
 8000c3c:	af00      	add	r7, sp, #0
 8000c3e:	4603      	mov	r3, r0
 8000c40:	71fb      	strb	r3, [r7, #7]
  /* Check the parameters */
  assert_param(IS_RCC_LSE(RCC_LSE));

  /* Reset LSEON and LSEBYP bits before configuring the LSE ------------------*/
  /* Reset LSEON bit */
  *(__IO uint8_t *) BDCR_ADDRESS = RCC_LSE_OFF;
 8000c42:	4b0c      	ldr	r3, [pc, #48]	; (8000c74 <RCC_LSEConfig+0x3c>)
 8000c44:	2200      	movs	r2, #0
 8000c46:	701a      	strb	r2, [r3, #0]

  /* Reset LSEBYP bit */
  *(__IO uint8_t *) BDCR_ADDRESS = RCC_LSE_OFF;
 8000c48:	4b0a      	ldr	r3, [pc, #40]	; (8000c74 <RCC_LSEConfig+0x3c>)
 8000c4a:	2200      	movs	r2, #0
 8000c4c:	701a      	strb	r2, [r3, #0]

  /* Configure LSE (RCC_LSE_OFF is already covered by the code section above) */
  switch (RCC_LSE)
 8000c4e:	79fb      	ldrb	r3, [r7, #7]
 8000c50:	2b01      	cmp	r3, #1
 8000c52:	d002      	beq.n	8000c5a <RCC_LSEConfig+0x22>
 8000c54:	2b04      	cmp	r3, #4
 8000c56:	d004      	beq.n	8000c62 <RCC_LSEConfig+0x2a>
    case RCC_LSE_Bypass:
      /* Set LSEBYP and LSEON bits */
      *(__IO uint8_t *) BDCR_ADDRESS = RCC_LSE_Bypass | RCC_LSE_ON;
      break;
    default:
      break;
 8000c58:	e007      	b.n	8000c6a <RCC_LSEConfig+0x32>
  /* Configure LSE (RCC_LSE_OFF is already covered by the code section above) */
  switch (RCC_LSE)
  {
    case RCC_LSE_ON:
      /* Set LSEON bit */
      *(__IO uint8_t *) BDCR_ADDRESS = RCC_LSE_ON;
 8000c5a:	4b06      	ldr	r3, [pc, #24]	; (8000c74 <RCC_LSEConfig+0x3c>)
 8000c5c:	2201      	movs	r2, #1
 8000c5e:	701a      	strb	r2, [r3, #0]
      break;
 8000c60:	e003      	b.n	8000c6a <RCC_LSEConfig+0x32>
    case RCC_LSE_Bypass:
      /* Set LSEBYP and LSEON bits */
      *(__IO uint8_t *) BDCR_ADDRESS = RCC_LSE_Bypass | RCC_LSE_ON;
 8000c62:	4b04      	ldr	r3, [pc, #16]	; (8000c74 <RCC_LSEConfig+0x3c>)
 8000c64:	2205      	movs	r2, #5
 8000c66:	701a      	strb	r2, [r3, #0]
      break;
 8000c68:	bf00      	nop
    default:
      break;
  }
}
 8000c6a:	370c      	adds	r7, #12
 8000c6c:	46bd      	mov	sp, r7
 8000c6e:	f85d 7b04 	ldr.w	r7, [sp], #4
 8000c72:	4770      	bx	lr
 8000c74:	40023870 	.word	0x40023870

08000c78 <RCC_LSICmd>:
  * @note   When the LSI is stopped, LSIRDY flag goes low after 6 LSI oscillator
  *         clock cycles. 
  * @retval None
  */
void RCC_LSICmd(FunctionalState NewState)
{
 8000c78:	b480      	push	{r7}
 8000c7a:	b083      	sub	sp, #12
 8000c7c:	af00      	add	r7, sp, #0
 8000c7e:	4603      	mov	r3, r0
 8000c80:	71fb      	strb	r3, [r7, #7]
  /* Check the parameters */
  assert_param(IS_FUNCTIONAL_STATE(NewState));

  *(__IO uint32_t *) CSR_LSION_BB = (uint32_t)NewState;
 8000c82:	4a04      	ldr	r2, [pc, #16]	; (8000c94 <RCC_LSICmd+0x1c>)
 8000c84:	79fb      	ldrb	r3, [r7, #7]
 8000c86:	6013      	str	r3, [r2, #0]
}
 8000c88:	370c      	adds	r7, #12
 8000c8a:	46bd      	mov	sp, r7
 8000c8c:	f85d 7b04 	ldr.w	r7, [sp], #4
 8000c90:	4770      	bx	lr
 8000c92:	bf00      	nop
 8000c94:	42470e80 	.word	0x42470e80

08000c98 <RCC_PLLConfig>:
  *         correctly.
  *   
  * @retval None
  */
void RCC_PLLConfig(uint32_t RCC_PLLSource, uint32_t PLLM, uint32_t PLLN, uint32_t PLLP, uint32_t PLLQ)
{
 8000c98:	b480      	push	{r7}
 8000c9a:	b085      	sub	sp, #20
 8000c9c:	af00      	add	r7, sp, #0
 8000c9e:	60f8      	str	r0, [r7, #12]
 8000ca0:	60b9      	str	r1, [r7, #8]
 8000ca2:	607a      	str	r2, [r7, #4]
 8000ca4:	603b      	str	r3, [r7, #0]
  assert_param(IS_RCC_PLLM_VALUE(PLLM));
  assert_param(IS_RCC_PLLN_VALUE(PLLN));
  assert_param(IS_RCC_PLLP_VALUE(PLLP));
  assert_param(IS_RCC_PLLQ_VALUE(PLLQ));

  RCC->PLLCFGR = PLLM | (PLLN << 6) | (((PLLP >> 1) -1) << 16) | (RCC_PLLSource) |
 8000ca6:	490a      	ldr	r1, [pc, #40]	; (8000cd0 <RCC_PLLConfig+0x38>)
 8000ca8:	687b      	ldr	r3, [r7, #4]
 8000caa:	019a      	lsls	r2, r3, #6
 8000cac:	68bb      	ldr	r3, [r7, #8]
 8000cae:	431a      	orrs	r2, r3
 8000cb0:	683b      	ldr	r3, [r7, #0]
 8000cb2:	085b      	lsrs	r3, r3, #1
 8000cb4:	3b01      	subs	r3, #1
 8000cb6:	041b      	lsls	r3, r3, #16
 8000cb8:	431a      	orrs	r2, r3
 8000cba:	68fb      	ldr	r3, [r7, #12]
 8000cbc:	431a      	orrs	r2, r3
                 (PLLQ << 24);
 8000cbe:	69bb      	ldr	r3, [r7, #24]
 8000cc0:	061b      	lsls	r3, r3, #24
  assert_param(IS_RCC_PLLM_VALUE(PLLM));
  assert_param(IS_RCC_PLLN_VALUE(PLLN));
  assert_param(IS_RCC_PLLP_VALUE(PLLP));
  assert_param(IS_RCC_PLLQ_VALUE(PLLQ));

  RCC->PLLCFGR = PLLM | (PLLN << 6) | (((PLLP >> 1) -1) << 16) | (RCC_PLLSource) |
 8000cc2:	4313      	orrs	r3, r2
 8000cc4:	604b      	str	r3, [r1, #4]
                 (PLLQ << 24);
}
 8000cc6:	3714      	adds	r7, #20
 8000cc8:	46bd      	mov	sp, r7
 8000cca:	f85d 7b04 	ldr.w	r7, [sp], #4
 8000cce:	4770      	bx	lr
 8000cd0:	40023800 	.word	0x40023800

08000cd4 <RCC_PLLCmd>:
  * @note   The main PLL is disabled by hardware when entering STOP and STANDBY modes.
  * @param  NewState: new state of the main PLL. This parameter can be: ENABLE or DISABLE.
  * @retval None
  */
void RCC_PLLCmd(FunctionalState NewState)
{
 8000cd4:	b480      	push	{r7}
 8000cd6:	b083      	sub	sp, #12
 8000cd8:	af00      	add	r7, sp, #0
 8000cda:	4603      	mov	r3, r0
 8000cdc:	71fb      	strb	r3, [r7, #7]
  /* Check the parameters */
  assert_param(IS_FUNCTIONAL_STATE(NewState));
  *(__IO uint32_t *) CR_PLLON_BB = (uint32_t)NewState;
 8000cde:	4a04      	ldr	r2, [pc, #16]	; (8000cf0 <RCC_PLLCmd+0x1c>)
 8000ce0:	79fb      	ldrb	r3, [r7, #7]
 8000ce2:	6013      	str	r3, [r2, #0]
}
 8000ce4:	370c      	adds	r7, #12
 8000ce6:	46bd      	mov	sp, r7
 8000ce8:	f85d 7b04 	ldr.w	r7, [sp], #4
 8000cec:	4770      	bx	lr
 8000cee:	bf00      	nop
 8000cf0:	42470060 	.word	0x42470060

08000cf4 <RCC_PLLI2SConfig>:
  *         on the I2S clock frequency.
  *   
  * @retval None
  */
void RCC_PLLI2SConfig(uint32_t PLLI2SN, uint32_t PLLI2SR)
{
 8000cf4:	b480      	push	{r7}
 8000cf6:	b083      	sub	sp, #12
 8000cf8:	af00      	add	r7, sp, #0
 8000cfa:	6078      	str	r0, [r7, #4]
 8000cfc:	6039      	str	r1, [r7, #0]
  /* Check the parameters */
  assert_param(IS_RCC_PLLI2SN_VALUE(PLLI2SN));
  assert_param(IS_RCC_PLLI2SR_VALUE(PLLI2SR));

  RCC->PLLI2SCFGR = (PLLI2SN << 6) | (PLLI2SR << 28);
 8000cfe:	4906      	ldr	r1, [pc, #24]	; (8000d18 <RCC_PLLI2SConfig+0x24>)
 8000d00:	687b      	ldr	r3, [r7, #4]
 8000d02:	019a      	lsls	r2, r3, #6
 8000d04:	683b      	ldr	r3, [r7, #0]
 8000d06:	071b      	lsls	r3, r3, #28
 8000d08:	4313      	orrs	r3, r2
 8000d0a:	f8c1 3084 	str.w	r3, [r1, #132]	; 0x84
}
 8000d0e:	370c      	adds	r7, #12
 8000d10:	46bd      	mov	sp, r7
 8000d12:	f85d 7b04 	ldr.w	r7, [sp], #4
 8000d16:	4770      	bx	lr
 8000d18:	40023800 	.word	0x40023800

08000d1c <RCC_PLLI2SCmd>:
  * @note   The PLLI2S is disabled by hardware when entering STOP and STANDBY modes.  
  * @param  NewState: new state of the PLLI2S. This parameter can be: ENABLE or DISABLE.
  * @retval None
  */
void RCC_PLLI2SCmd(FunctionalState NewState)
{
 8000d1c:	b480      	push	{r7}
 8000d1e:	b083      	sub	sp, #12
 8000d20:	af00      	add	r7, sp, #0
 8000d22:	4603      	mov	r3, r0
 8000d24:	71fb      	strb	r3, [r7, #7]
  /* Check the parameters */
  assert_param(IS_FUNCTIONAL_STATE(NewState));
  *(__IO uint32_t *) CR_PLLI2SON_BB = (uint32_t)NewState;
 8000d26:	4a04      	ldr	r2, [pc, #16]	; (8000d38 <RCC_PLLI2SCmd+0x1c>)
 8000d28:	79fb      	ldrb	r3, [r7, #7]
 8000d2a:	6013      	str	r3, [r2, #0]
}
 8000d2c:	370c      	adds	r7, #12
 8000d2e:	46bd      	mov	sp, r7
 8000d30:	f85d 7b04 	ldr.w	r7, [sp], #4
 8000d34:	4770      	bx	lr
 8000d36:	bf00      	nop
 8000d38:	42470068 	.word	0x42470068

08000d3c <RCC_ClockSecuritySystemCmd>:
  * @param  NewState: new state of the Clock Security System.
  *         This parameter can be: ENABLE or DISABLE.
  * @retval None
  */
void RCC_ClockSecuritySystemCmd(FunctionalState NewState)
{
 8000d3c:	b480      	push	{r7}
 8000d3e:	b083      	sub	sp, #12
 8000d40:	af00      	add	r7, sp, #0
 8000d42:	4603      	mov	r3, r0
 8000d44:	71fb      	strb	r3, [r7, #7]
  /* Check the parameters */
  assert_param(IS_FUNCTIONAL_STATE(NewState));
  *(__IO uint32_t *) CR_CSSON_BB = (uint32_t)NewState;
 8000d46:	4a04      	ldr	r2, [pc, #16]	; (8000d58 <RCC_ClockSecuritySystemCmd+0x1c>)
 8000d48:	79fb      	ldrb	r3, [r7, #7]
 8000d4a:	6013      	str	r3, [r2, #0]
}
 8000d4c:	370c      	adds	r7, #12
 8000d4e:	46bd      	mov	sp, r7
 8000d50:	f85d 7b04 	ldr.w	r7, [sp], #4
 8000d54:	4770      	bx	lr
 8000d56:	bf00      	nop
 8000d58:	4247004c 	.word	0x4247004c

08000d5c <RCC_MCO1Config>:
  *            @arg RCC_MCO1Div_4: division by 4 applied to MCO1 clock
  *            @arg RCC_MCO1Div_5: division by 5 applied to MCO1 clock
  * @retval None
  */
void RCC_MCO1Config(uint32_t RCC_MCO1Source, uint32_t RCC_MCO1Div)
{
 8000d5c:	b480      	push	{r7}
 8000d5e:	b085      	sub	sp, #20
 8000d60:	af00      	add	r7, sp, #0
 8000d62:	6078      	str	r0, [r7, #4]
 8000d64:	6039      	str	r1, [r7, #0]
  uint32_t tmpreg = 0;
 8000d66:	2300      	movs	r3, #0
 8000d68:	60fb      	str	r3, [r7, #12]
  
  /* Check the parameters */
  assert_param(IS_RCC_MCO1SOURCE(RCC_MCO1Source));
  assert_param(IS_RCC_MCO1DIV(RCC_MCO1Div));  

  tmpreg = RCC->CFGR;
 8000d6a:	4b0a      	ldr	r3, [pc, #40]	; (8000d94 <RCC_MCO1Config+0x38>)
 8000d6c:	689b      	ldr	r3, [r3, #8]
 8000d6e:	60fb      	str	r3, [r7, #12]

  /* Clear MCO1[1:0] and MCO1PRE[2:0] bits */
  tmpreg &= CFGR_MCO1_RESET_MASK;
 8000d70:	68fb      	ldr	r3, [r7, #12]
 8000d72:	f023 63ec 	bic.w	r3, r3, #123731968	; 0x7600000
 8000d76:	60fb      	str	r3, [r7, #12]

  /* Select MCO1 clock source and prescaler */
  tmpreg |= RCC_MCO1Source | RCC_MCO1Div;
 8000d78:	687a      	ldr	r2, [r7, #4]
 8000d7a:	683b      	ldr	r3, [r7, #0]
 8000d7c:	4313      	orrs	r3, r2
 8000d7e:	68fa      	ldr	r2, [r7, #12]
 8000d80:	4313      	orrs	r3, r2
 8000d82:	60fb      	str	r3, [r7, #12]

  /* Store the new value */
  RCC->CFGR = tmpreg;  
 8000d84:	4a03      	ldr	r2, [pc, #12]	; (8000d94 <RCC_MCO1Config+0x38>)
 8000d86:	68fb      	ldr	r3, [r7, #12]
 8000d88:	6093      	str	r3, [r2, #8]
}
 8000d8a:	3714      	adds	r7, #20
 8000d8c:	46bd      	mov	sp, r7
 8000d8e:	f85d 7b04 	ldr.w	r7, [sp], #4
 8000d92:	4770      	bx	lr
 8000d94:	40023800 	.word	0x40023800

08000d98 <RCC_MCO2Config>:
  *            @arg RCC_MCO2Div_4: division by 4 applied to MCO2 clock
  *            @arg RCC_MCO2Div_5: division by 5 applied to MCO2 clock
  * @retval None
  */
void RCC_MCO2Config(uint32_t RCC_MCO2Source, uint32_t RCC_MCO2Div)
{
 8000d98:	b480      	push	{r7}
 8000d9a:	b085      	sub	sp, #20
 8000d9c:	af00      	add	r7, sp, #0
 8000d9e:	6078      	str	r0, [r7, #4]
 8000da0:	6039      	str	r1, [r7, #0]
  uint32_t tmpreg = 0;
 8000da2:	2300      	movs	r3, #0
 8000da4:	60fb      	str	r3, [r7, #12]
  
  /* Check the parameters */
  assert_param(IS_RCC_MCO2SOURCE(RCC_MCO2Source));
  assert_param(IS_RCC_MCO2DIV(RCC_MCO2Div));
  
  tmpreg = RCC->CFGR;
 8000da6:	4b0a      	ldr	r3, [pc, #40]	; (8000dd0 <RCC_MCO2Config+0x38>)
 8000da8:	689b      	ldr	r3, [r3, #8]
 8000daa:	60fb      	str	r3, [r7, #12]
  
  /* Clear MCO2 and MCO2PRE[2:0] bits */
  tmpreg &= CFGR_MCO2_RESET_MASK;
 8000dac:	68fb      	ldr	r3, [r7, #12]
 8000dae:	f023 4378 	bic.w	r3, r3, #4160749568	; 0xf8000000
 8000db2:	60fb      	str	r3, [r7, #12]

  /* Select MCO2 clock source and prescaler */
  tmpreg |= RCC_MCO2Source | RCC_MCO2Div;
 8000db4:	687a      	ldr	r2, [r7, #4]
 8000db6:	683b      	ldr	r3, [r7, #0]
 8000db8:	4313      	orrs	r3, r2
 8000dba:	68fa      	ldr	r2, [r7, #12]
 8000dbc:	4313      	orrs	r3, r2
 8000dbe:	60fb      	str	r3, [r7, #12]

  /* Store the new value */
  RCC->CFGR = tmpreg;  
 8000dc0:	4a03      	ldr	r2, [pc, #12]	; (8000dd0 <RCC_MCO2Config+0x38>)
 8000dc2:	68fb      	ldr	r3, [r7, #12]
 8000dc4:	6093      	str	r3, [r2, #8]
}
 8000dc6:	3714      	adds	r7, #20
 8000dc8:	46bd      	mov	sp, r7
 8000dca:	f85d 7b04 	ldr.w	r7, [sp], #4
 8000dce:	4770      	bx	lr
 8000dd0:	40023800 	.word	0x40023800

08000dd4 <RCC_SYSCLKConfig>:
  *            @arg RCC_SYSCLKSource_HSE:    HSE selected as system clock source
  *            @arg RCC_SYSCLKSource_PLLCLK: PLL selected as system clock source
  * @retval None
  */
void RCC_SYSCLKConfig(uint32_t RCC_SYSCLKSource)
{
 8000dd4:	b480      	push	{r7}
 8000dd6:	b085      	sub	sp, #20
 8000dd8:	af00      	add	r7, sp, #0
 8000dda:	6078      	str	r0, [r7, #4]
  uint32_t tmpreg = 0;
 8000ddc:	2300      	movs	r3, #0
 8000dde:	60fb      	str	r3, [r7, #12]

  /* Check the parameters */
  assert_param(IS_RCC_SYSCLK_SOURCE(RCC_SYSCLKSource));

  tmpreg = RCC->CFGR;
 8000de0:	4b09      	ldr	r3, [pc, #36]	; (8000e08 <RCC_SYSCLKConfig+0x34>)
 8000de2:	689b      	ldr	r3, [r3, #8]
 8000de4:	60fb      	str	r3, [r7, #12]

  /* Clear SW[1:0] bits */
  tmpreg &= ~RCC_CFGR_SW;
 8000de6:	68fb      	ldr	r3, [r7, #12]
 8000de8:	f023 0303 	bic.w	r3, r3, #3
 8000dec:	60fb      	str	r3, [r7, #12]

  /* Set SW[1:0] bits according to RCC_SYSCLKSource value */
  tmpreg |= RCC_SYSCLKSource;
 8000dee:	68fa      	ldr	r2, [r7, #12]
 8000df0:	687b      	ldr	r3, [r7, #4]
 8000df2:	4313      	orrs	r3, r2
 8000df4:	60fb      	str	r3, [r7, #12]

  /* Store the new value */
  RCC->CFGR = tmpreg;
 8000df6:	4a04      	ldr	r2, [pc, #16]	; (8000e08 <RCC_SYSCLKConfig+0x34>)
 8000df8:	68fb      	ldr	r3, [r7, #12]
 8000dfa:	6093      	str	r3, [r2, #8]
}
 8000dfc:	3714      	adds	r7, #20
 8000dfe:	46bd      	mov	sp, r7
 8000e00:	f85d 7b04 	ldr.w	r7, [sp], #4
 8000e04:	4770      	bx	lr
 8000e06:	bf00      	nop
 8000e08:	40023800 	.word	0x40023800

08000e0c <RCC_GetSYSCLKSource>:
  *              - 0x00: HSI used as system clock
  *              - 0x04: HSE used as system clock
  *              - 0x08: PLL used as system clock
  */
uint8_t RCC_GetSYSCLKSource(void)
{
 8000e0c:	b480      	push	{r7}
 8000e0e:	af00      	add	r7, sp, #0
  return ((uint8_t)(RCC->CFGR & RCC_CFGR_SWS));
 8000e10:	4b05      	ldr	r3, [pc, #20]	; (8000e28 <RCC_GetSYSCLKSource+0x1c>)
 8000e12:	689b      	ldr	r3, [r3, #8]
 8000e14:	b2db      	uxtb	r3, r3
 8000e16:	f003 030c 	and.w	r3, r3, #12
 8000e1a:	b2db      	uxtb	r3, r3
}
 8000e1c:	4618      	mov	r0, r3
 8000e1e:	46bd      	mov	sp, r7
 8000e20:	f85d 7b04 	ldr.w	r7, [sp], #4
 8000e24:	4770      	bx	lr
 8000e26:	bf00      	nop
 8000e28:	40023800 	.word	0x40023800

08000e2c <RCC_HCLKConfig>:
  *            @arg RCC_SYSCLK_Div256: AHB clock = SYSCLK/256
  *            @arg RCC_SYSCLK_Div512: AHB clock = SYSCLK/512
  * @retval None
  */
void RCC_HCLKConfig(uint32_t RCC_SYSCLK)
{
 8000e2c:	b480      	push	{r7}
 8000e2e:	b085      	sub	sp, #20
 8000e30:	af00      	add	r7, sp, #0
 8000e32:	6078      	str	r0, [r7, #4]
  uint32_t tmpreg = 0;
 8000e34:	2300      	movs	r3, #0
 8000e36:	60fb      	str	r3, [r7, #12]
  
  /* Check the parameters */
  assert_param(IS_RCC_HCLK(RCC_SYSCLK));

  tmpreg = RCC->CFGR;
 8000e38:	4b09      	ldr	r3, [pc, #36]	; (8000e60 <RCC_HCLKConfig+0x34>)
 8000e3a:	689b      	ldr	r3, [r3, #8]
 8000e3c:	60fb      	str	r3, [r7, #12]

  /* Clear HPRE[3:0] bits */
  tmpreg &= ~RCC_CFGR_HPRE;
 8000e3e:	68fb      	ldr	r3, [r7, #12]
 8000e40:	f023 03f0 	bic.w	r3, r3, #240	; 0xf0
 8000e44:	60fb      	str	r3, [r7, #12]

  /* Set HPRE[3:0] bits according to RCC_SYSCLK value */
  tmpreg |= RCC_SYSCLK;
 8000e46:	68fa      	ldr	r2, [r7, #12]
 8000e48:	687b      	ldr	r3, [r7, #4]
 8000e4a:	4313      	orrs	r3, r2
 8000e4c:	60fb      	str	r3, [r7, #12]

  /* Store the new value */
  RCC->CFGR = tmpreg;
 8000e4e:	4a04      	ldr	r2, [pc, #16]	; (8000e60 <RCC_HCLKConfig+0x34>)
 8000e50:	68fb      	ldr	r3, [r7, #12]
 8000e52:	6093      	str	r3, [r2, #8]
}
 8000e54:	3714      	adds	r7, #20
 8000e56:	46bd      	mov	sp, r7
 8000e58:	f85d 7b04 	ldr.w	r7, [sp], #4
 8000e5c:	4770      	bx	lr
 8000e5e:	bf00      	nop
 8000e60:	40023800 	.word	0x40023800

08000e64 <RCC_PCLK1Config>:
  *            @arg RCC_HCLK_Div8:  APB1 clock = HCLK/8
  *            @arg RCC_HCLK_Div16: APB1 clock = HCLK/16
  * @retval None
  */
void RCC_PCLK1Config(uint32_t RCC_HCLK)
{
 8000e64:	b480      	push	{r7}
 8000e66:	b085      	sub	sp, #20
 8000e68:	af00      	add	r7, sp, #0
 8000e6a:	6078      	str	r0, [r7, #4]
  uint32_t tmpreg = 0;
 8000e6c:	2300      	movs	r3, #0
 8000e6e:	60fb      	str	r3, [r7, #12]

  /* Check the parameters */
  assert_param(IS_RCC_PCLK(RCC_HCLK));

  tmpreg = RCC->CFGR;
 8000e70:	4b09      	ldr	r3, [pc, #36]	; (8000e98 <RCC_PCLK1Config+0x34>)
 8000e72:	689b      	ldr	r3, [r3, #8]
 8000e74:	60fb      	str	r3, [r7, #12]

  /* Clear PPRE1[2:0] bits */
  tmpreg &= ~RCC_CFGR_PPRE1;
 8000e76:	68fb      	ldr	r3, [r7, #12]
 8000e78:	f423 53e0 	bic.w	r3, r3, #7168	; 0x1c00
 8000e7c:	60fb      	str	r3, [r7, #12]

  /* Set PPRE1[2:0] bits according to RCC_HCLK value */
  tmpreg |= RCC_HCLK;
 8000e7e:	68fa      	ldr	r2, [r7, #12]
 8000e80:	687b      	ldr	r3, [r7, #4]
 8000e82:	4313      	orrs	r3, r2
 8000e84:	60fb      	str	r3, [r7, #12]

  /* Store the new value */
  RCC->CFGR = tmpreg;
 8000e86:	4a04      	ldr	r2, [pc, #16]	; (8000e98 <RCC_PCLK1Config+0x34>)
 8000e88:	68fb      	ldr	r3, [r7, #12]
 8000e8a:	6093      	str	r3, [r2, #8]
}
 8000e8c:	3714      	adds	r7, #20
 8000e8e:	46bd      	mov	sp, r7
 8000e90:	f85d 7b04 	ldr.w	r7, [sp], #4
 8000e94:	4770      	bx	lr
 8000e96:	bf00      	nop
 8000e98:	40023800 	.word	0x40023800

08000e9c <RCC_PCLK2Config>:
  *            @arg RCC_HCLK_Div8:  APB2 clock = HCLK/8
  *            @arg RCC_HCLK_Div16: APB2 clock = HCLK/16
  * @retval None
  */
void RCC_PCLK2Config(uint32_t RCC_HCLK)
{
 8000e9c:	b480      	push	{r7}
 8000e9e:	b085      	sub	sp, #20
 8000ea0:	af00      	add	r7, sp, #0
 8000ea2:	6078      	str	r0, [r7, #4]
  uint32_t tmpreg = 0;
 8000ea4:	2300      	movs	r3, #0
 8000ea6:	60fb      	str	r3, [r7, #12]

  /* Check the parameters */
  assert_param(IS_RCC_PCLK(RCC_HCLK));

  tmpreg = RCC->CFGR;
 8000ea8:	4b09      	ldr	r3, [pc, #36]	; (8000ed0 <RCC_PCLK2Config+0x34>)
 8000eaa:	689b      	ldr	r3, [r3, #8]
 8000eac:	60fb      	str	r3, [r7, #12]

  /* Clear PPRE2[2:0] bits */
  tmpreg &= ~RCC_CFGR_PPRE2;
 8000eae:	68fb      	ldr	r3, [r7, #12]
 8000eb0:	f423 4360 	bic.w	r3, r3, #57344	; 0xe000
 8000eb4:	60fb      	str	r3, [r7, #12]

  /* Set PPRE2[2:0] bits according to RCC_HCLK value */
  tmpreg |= RCC_HCLK << 3;
 8000eb6:	687b      	ldr	r3, [r7, #4]
 8000eb8:	00db      	lsls	r3, r3, #3
 8000eba:	68fa      	ldr	r2, [r7, #12]
 8000ebc:	4313      	orrs	r3, r2
 8000ebe:	60fb      	str	r3, [r7, #12]

  /* Store the new value */
  RCC->CFGR = tmpreg;
 8000ec0:	4a03      	ldr	r2, [pc, #12]	; (8000ed0 <RCC_PCLK2Config+0x34>)
 8000ec2:	68fb      	ldr	r3, [r7, #12]
 8000ec4:	6093      	str	r3, [r2, #8]
}
 8000ec6:	3714      	adds	r7, #20
 8000ec8:	46bd      	mov	sp, r7
 8000eca:	f85d 7b04 	ldr.w	r7, [sp], #4
 8000ece:	4770      	bx	lr
 8000ed0:	40023800 	.word	0x40023800

08000ed4 <RCC_GetClocksFreq>:
  *         configuration based on this function will be incorrect.
  *    
  * @retval None
  */
void RCC_GetClocksFreq(RCC_ClocksTypeDef* RCC_Clocks)
{
 8000ed4:	b480      	push	{r7}
 8000ed6:	b089      	sub	sp, #36	; 0x24
 8000ed8:	af00      	add	r7, sp, #0
 8000eda:	6078      	str	r0, [r7, #4]
  uint32_t tmp = 0, presc = 0, pllvco = 0, pllp = 2, pllsource = 0, pllm = 2;
 8000edc:	2300      	movs	r3, #0
 8000ede:	61bb      	str	r3, [r7, #24]
 8000ee0:	2300      	movs	r3, #0
 8000ee2:	617b      	str	r3, [r7, #20]
 8000ee4:	2300      	movs	r3, #0
 8000ee6:	61fb      	str	r3, [r7, #28]
 8000ee8:	2302      	movs	r3, #2
 8000eea:	613b      	str	r3, [r7, #16]
 8000eec:	2300      	movs	r3, #0
 8000eee:	60fb      	str	r3, [r7, #12]
 8000ef0:	2302      	movs	r3, #2
 8000ef2:	60bb      	str	r3, [r7, #8]

  /* Get SYSCLK source -------------------------------------------------------*/
  tmp = RCC->CFGR & RCC_CFGR_SWS;
 8000ef4:	4b48      	ldr	r3, [pc, #288]	; (8001018 <RCC_GetClocksFreq+0x144>)
 8000ef6:	689b      	ldr	r3, [r3, #8]
 8000ef8:	f003 030c 	and.w	r3, r3, #12
 8000efc:	61bb      	str	r3, [r7, #24]

  switch (tmp)
 8000efe:	69bb      	ldr	r3, [r7, #24]
 8000f00:	2b04      	cmp	r3, #4
 8000f02:	d007      	beq.n	8000f14 <RCC_GetClocksFreq+0x40>
 8000f04:	2b08      	cmp	r3, #8
 8000f06:	d009      	beq.n	8000f1c <RCC_GetClocksFreq+0x48>
 8000f08:	2b00      	cmp	r3, #0
 8000f0a:	d13f      	bne.n	8000f8c <RCC_GetClocksFreq+0xb8>
  {
    case 0x00:  /* HSI used as system clock source */
      RCC_Clocks->SYSCLK_Frequency = HSI_VALUE;
 8000f0c:	687b      	ldr	r3, [r7, #4]
 8000f0e:	4a43      	ldr	r2, [pc, #268]	; (800101c <RCC_GetClocksFreq+0x148>)
 8000f10:	601a      	str	r2, [r3, #0]
      break;
 8000f12:	e03f      	b.n	8000f94 <RCC_GetClocksFreq+0xc0>
    case 0x04:  /* HSE used as system clock  source */
      RCC_Clocks->SYSCLK_Frequency = HSE_VALUE;
 8000f14:	687b      	ldr	r3, [r7, #4]
 8000f16:	4a42      	ldr	r2, [pc, #264]	; (8001020 <RCC_GetClocksFreq+0x14c>)
 8000f18:	601a      	str	r2, [r3, #0]
      break;
 8000f1a:	e03b      	b.n	8000f94 <RCC_GetClocksFreq+0xc0>
    case 0x08:  /* PLL used as system clock  source */

      /* PLL_VCO = (HSE_VALUE or HSI_VALUE / PLLM) * PLLN
         SYSCLK = PLL_VCO / PLLP
         */    
      pllsource = (RCC->PLLCFGR & RCC_PLLCFGR_PLLSRC) >> 22;
 8000f1c:	4b3e      	ldr	r3, [pc, #248]	; (8001018 <RCC_GetClocksFreq+0x144>)
 8000f1e:	685b      	ldr	r3, [r3, #4]
 8000f20:	f403 0380 	and.w	r3, r3, #4194304	; 0x400000
 8000f24:	0d9b      	lsrs	r3, r3, #22
 8000f26:	60fb      	str	r3, [r7, #12]
      pllm = RCC->PLLCFGR & RCC_PLLCFGR_PLLM;
 8000f28:	4b3b      	ldr	r3, [pc, #236]	; (8001018 <RCC_GetClocksFreq+0x144>)
 8000f2a:	685b      	ldr	r3, [r3, #4]
 8000f2c:	f003 033f 	and.w	r3, r3, #63	; 0x3f
 8000f30:	60bb      	str	r3, [r7, #8]
      
      if (pllsource != 0)
 8000f32:	68fb      	ldr	r3, [r7, #12]
 8000f34:	2b00      	cmp	r3, #0
 8000f36:	d00d      	beq.n	8000f54 <RCC_GetClocksFreq+0x80>
      {
        /* HSE used as PLL clock source */
        pllvco = (HSE_VALUE / pllm) * ((RCC->PLLCFGR & RCC_PLLCFGR_PLLN) >> 6);
 8000f38:	4a39      	ldr	r2, [pc, #228]	; (8001020 <RCC_GetClocksFreq+0x14c>)
 8000f3a:	68bb      	ldr	r3, [r7, #8]
 8000f3c:	fbb2 f2f3 	udiv	r2, r2, r3
 8000f40:	4b35      	ldr	r3, [pc, #212]	; (8001018 <RCC_GetClocksFreq+0x144>)
 8000f42:	6859      	ldr	r1, [r3, #4]
 8000f44:	f647 73c0 	movw	r3, #32704	; 0x7fc0
 8000f48:	400b      	ands	r3, r1
 8000f4a:	099b      	lsrs	r3, r3, #6
 8000f4c:	fb03 f302 	mul.w	r3, r3, r2
 8000f50:	61fb      	str	r3, [r7, #28]
 8000f52:	e00c      	b.n	8000f6e <RCC_GetClocksFreq+0x9a>
      }
      else
      {
        /* HSI used as PLL clock source */
        pllvco = (HSI_VALUE / pllm) * ((RCC->PLLCFGR & RCC_PLLCFGR_PLLN) >> 6);      
 8000f54:	4a31      	ldr	r2, [pc, #196]	; (800101c <RCC_GetClocksFreq+0x148>)
 8000f56:	68bb      	ldr	r3, [r7, #8]
 8000f58:	fbb2 f2f3 	udiv	r2, r2, r3
 8000f5c:	4b2e      	ldr	r3, [pc, #184]	; (8001018 <RCC_GetClocksFreq+0x144>)
 8000f5e:	6859      	ldr	r1, [r3, #4]
 8000f60:	f647 73c0 	movw	r3, #32704	; 0x7fc0
 8000f64:	400b      	ands	r3, r1
 8000f66:	099b      	lsrs	r3, r3, #6
 8000f68:	fb03 f302 	mul.w	r3, r3, r2
 8000f6c:	61fb      	str	r3, [r7, #28]
      }

      pllp = (((RCC->PLLCFGR & RCC_PLLCFGR_PLLP) >>16) + 1 ) *2;
 8000f6e:	4b2a      	ldr	r3, [pc, #168]	; (8001018 <RCC_GetClocksFreq+0x144>)
 8000f70:	685b      	ldr	r3, [r3, #4]
 8000f72:	f403 3340 	and.w	r3, r3, #196608	; 0x30000
 8000f76:	0c1b      	lsrs	r3, r3, #16
 8000f78:	3301      	adds	r3, #1
 8000f7a:	005b      	lsls	r3, r3, #1
 8000f7c:	613b      	str	r3, [r7, #16]
      RCC_Clocks->SYSCLK_Frequency = pllvco/pllp;
 8000f7e:	69fa      	ldr	r2, [r7, #28]
 8000f80:	693b      	ldr	r3, [r7, #16]
 8000f82:	fbb2 f2f3 	udiv	r2, r2, r3
 8000f86:	687b      	ldr	r3, [r7, #4]
 8000f88:	601a      	str	r2, [r3, #0]
      break;
 8000f8a:	e003      	b.n	8000f94 <RCC_GetClocksFreq+0xc0>
    default:
      RCC_Clocks->SYSCLK_Frequency = HSI_VALUE;
 8000f8c:	687b      	ldr	r3, [r7, #4]
 8000f8e:	4a23      	ldr	r2, [pc, #140]	; (800101c <RCC_GetClocksFreq+0x148>)
 8000f90:	601a      	str	r2, [r3, #0]
      break;
 8000f92:	bf00      	nop
  }
  /* Compute HCLK, PCLK1 and PCLK2 clocks frequencies ------------------------*/

  /* Get HCLK prescaler */
  tmp = RCC->CFGR & RCC_CFGR_HPRE;
 8000f94:	4b20      	ldr	r3, [pc, #128]	; (8001018 <RCC_GetClocksFreq+0x144>)
 8000f96:	689b      	ldr	r3, [r3, #8]
 8000f98:	f003 03f0 	and.w	r3, r3, #240	; 0xf0
 8000f9c:	61bb      	str	r3, [r7, #24]
  tmp = tmp >> 4;
 8000f9e:	69bb      	ldr	r3, [r7, #24]
 8000fa0:	091b      	lsrs	r3, r3, #4
 8000fa2:	61bb      	str	r3, [r7, #24]
  presc = APBAHBPrescTable[tmp];
 8000fa4:	4a1f      	ldr	r2, [pc, #124]	; (8001024 <RCC_GetClocksFreq+0x150>)
 8000fa6:	69bb      	ldr	r3, [r7, #24]
 8000fa8:	4413      	add	r3, r2
 8000faa:	781b      	ldrb	r3, [r3, #0]
 8000fac:	b2db      	uxtb	r3, r3
 8000fae:	617b      	str	r3, [r7, #20]
  /* HCLK clock frequency */
  RCC_Clocks->HCLK_Frequency = RCC_Clocks->SYSCLK_Frequency >> presc;
 8000fb0:	687b      	ldr	r3, [r7, #4]
 8000fb2:	681a      	ldr	r2, [r3, #0]
 8000fb4:	697b      	ldr	r3, [r7, #20]
 8000fb6:	40da      	lsrs	r2, r3
 8000fb8:	687b      	ldr	r3, [r7, #4]
 8000fba:	605a      	str	r2, [r3, #4]

  /* Get PCLK1 prescaler */
  tmp = RCC->CFGR & RCC_CFGR_PPRE1;
 8000fbc:	4b16      	ldr	r3, [pc, #88]	; (8001018 <RCC_GetClocksFreq+0x144>)
 8000fbe:	689b      	ldr	r3, [r3, #8]
 8000fc0:	f403 53e0 	and.w	r3, r3, #7168	; 0x1c00
 8000fc4:	61bb      	str	r3, [r7, #24]
  tmp = tmp >> 10;
 8000fc6:	69bb      	ldr	r3, [r7, #24]
 8000fc8:	0a9b      	lsrs	r3, r3, #10
 8000fca:	61bb      	str	r3, [r7, #24]
  presc = APBAHBPrescTable[tmp];
 8000fcc:	4a15      	ldr	r2, [pc, #84]	; (8001024 <RCC_GetClocksFreq+0x150>)
 8000fce:	69bb      	ldr	r3, [r7, #24]
 8000fd0:	4413      	add	r3, r2
 8000fd2:	781b      	ldrb	r3, [r3, #0]
 8000fd4:	b2db      	uxtb	r3, r3
 8000fd6:	617b      	str	r3, [r7, #20]
  /* PCLK1 clock frequency */
  RCC_Clocks->PCLK1_Frequency = RCC_Clocks->HCLK_Frequency >> presc;
 8000fd8:	687b      	ldr	r3, [r7, #4]
 8000fda:	685a      	ldr	r2, [r3, #4]
 8000fdc:	697b      	ldr	r3, [r7, #20]
 8000fde:	40da      	lsrs	r2, r3
 8000fe0:	687b      	ldr	r3, [r7, #4]
 8000fe2:	609a      	str	r2, [r3, #8]

  /* Get PCLK2 prescaler */
  tmp = RCC->CFGR & RCC_CFGR_PPRE2;
 8000fe4:	4b0c      	ldr	r3, [pc, #48]	; (8001018 <RCC_GetClocksFreq+0x144>)
 8000fe6:	689b      	ldr	r3, [r3, #8]
 8000fe8:	f403 4360 	and.w	r3, r3, #57344	; 0xe000
 8000fec:	61bb      	str	r3, [r7, #24]
  tmp = tmp >> 13;
 8000fee:	69bb      	ldr	r3, [r7, #24]
 8000ff0:	0b5b      	lsrs	r3, r3, #13
 8000ff2:	61bb      	str	r3, [r7, #24]
  presc = APBAHBPrescTable[tmp];
 8000ff4:	4a0b      	ldr	r2, [pc, #44]	; (8001024 <RCC_GetClocksFreq+0x150>)
 8000ff6:	69bb      	ldr	r3, [r7, #24]
 8000ff8:	4413      	add	r3, r2
 8000ffa:	781b      	ldrb	r3, [r3, #0]
 8000ffc:	b2db      	uxtb	r3, r3
 8000ffe:	617b      	str	r3, [r7, #20]
  /* PCLK2 clock frequency */
  RCC_Clocks->PCLK2_Frequency = RCC_Clocks->HCLK_Frequency >> presc;
 8001000:	687b      	ldr	r3, [r7, #4]
 8001002:	685a      	ldr	r2, [r3, #4]
 8001004:	697b      	ldr	r3, [r7, #20]
 8001006:	40da      	lsrs	r2, r3
 8001008:	687b      	ldr	r3, [r7, #4]
 800100a:	60da      	str	r2, [r3, #12]
}
 800100c:	3724      	adds	r7, #36	; 0x24
 800100e:	46bd      	mov	sp, r7
 8001010:	f85d 7b04 	ldr.w	r7, [sp], #4
 8001014:	4770      	bx	lr
 8001016:	bf00      	nop
 8001018:	40023800 	.word	0x40023800
 800101c:	00f42400 	.word	0x00f42400
 8001020:	007a1200 	.word	0x007a1200
 8001024:	20000024 	.word	0x20000024

08001028 <RCC_RTCCLKConfig>:
  *         RTC clock source).
  *  
  * @retval None
  */
void RCC_RTCCLKConfig(uint32_t RCC_RTCCLKSource)
{
 8001028:	b480      	push	{r7}
 800102a:	b085      	sub	sp, #20
 800102c:	af00      	add	r7, sp, #0
 800102e:	6078      	str	r0, [r7, #4]
  uint32_t tmpreg = 0;
 8001030:	2300      	movs	r3, #0
 8001032:	60fb      	str	r3, [r7, #12]

  /* Check the parameters */
  assert_param(IS_RCC_RTCCLK_SOURCE(RCC_RTCCLKSource));

  if ((RCC_RTCCLKSource & 0x00000300) == 0x00000300)
 8001034:	687b      	ldr	r3, [r7, #4]
 8001036:	f403 7340 	and.w	r3, r3, #768	; 0x300
 800103a:	f5b3 7f40 	cmp.w	r3, #768	; 0x300
 800103e:	d111      	bne.n	8001064 <RCC_RTCCLKConfig+0x3c>
  { /* If HSE is selected as RTC clock source, configure HSE division factor for RTC clock */
    tmpreg = RCC->CFGR;
 8001040:	4b0f      	ldr	r3, [pc, #60]	; (8001080 <RCC_RTCCLKConfig+0x58>)
 8001042:	689b      	ldr	r3, [r3, #8]
 8001044:	60fb      	str	r3, [r7, #12]

    /* Clear RTCPRE[4:0] bits */
    tmpreg &= ~RCC_CFGR_RTCPRE;
 8001046:	68fb      	ldr	r3, [r7, #12]
 8001048:	f423 13f8 	bic.w	r3, r3, #2031616	; 0x1f0000
 800104c:	60fb      	str	r3, [r7, #12]

    /* Configure HSE division factor for RTC clock */
    tmpreg |= (RCC_RTCCLKSource & 0xFFFFCFF);
 800104e:	687b      	ldr	r3, [r7, #4]
 8001050:	f023 4370 	bic.w	r3, r3, #4026531840	; 0xf0000000
 8001054:	f423 7340 	bic.w	r3, r3, #768	; 0x300
 8001058:	68fa      	ldr	r2, [r7, #12]
 800105a:	4313      	orrs	r3, r2
 800105c:	60fb      	str	r3, [r7, #12]

    /* Store the new value */
    RCC->CFGR = tmpreg;
 800105e:	4a08      	ldr	r2, [pc, #32]	; (8001080 <RCC_RTCCLKConfig+0x58>)
 8001060:	68fb      	ldr	r3, [r7, #12]
 8001062:	6093      	str	r3, [r2, #8]
  }
    
  /* Select the RTC clock source */
  RCC->BDCR |= (RCC_RTCCLKSource & 0x00000FFF);
 8001064:	4906      	ldr	r1, [pc, #24]	; (8001080 <RCC_RTCCLKConfig+0x58>)
 8001066:	4b06      	ldr	r3, [pc, #24]	; (8001080 <RCC_RTCCLKConfig+0x58>)
 8001068:	6f1a      	ldr	r2, [r3, #112]	; 0x70
 800106a:	687b      	ldr	r3, [r7, #4]
 800106c:	f3c3 030b 	ubfx	r3, r3, #0, #12
 8001070:	4313      	orrs	r3, r2
 8001072:	670b      	str	r3, [r1, #112]	; 0x70
}
 8001074:	3714      	adds	r7, #20
 8001076:	46bd      	mov	sp, r7
 8001078:	f85d 7b04 	ldr.w	r7, [sp], #4
 800107c:	4770      	bx	lr
 800107e:	bf00      	nop
 8001080:	40023800 	.word	0x40023800

08001084 <RCC_RTCCLKCmd>:
  *         using the RCC_RTCCLKConfig function.
  * @param  NewState: new state of the RTC clock. This parameter can be: ENABLE or DISABLE.
  * @retval None
  */
void RCC_RTCCLKCmd(FunctionalState NewState)
{
 8001084:	b480      	push	{r7}
 8001086:	b083      	sub	sp, #12
 8001088:	af00      	add	r7, sp, #0
 800108a:	4603      	mov	r3, r0
 800108c:	71fb      	strb	r3, [r7, #7]
  /* Check the parameters */
  assert_param(IS_FUNCTIONAL_STATE(NewState));

  *(__IO uint32_t *) BDCR_RTCEN_BB = (uint32_t)NewState;
 800108e:	4a04      	ldr	r2, [pc, #16]	; (80010a0 <RCC_RTCCLKCmd+0x1c>)
 8001090:	79fb      	ldrb	r3, [r7, #7]
 8001092:	6013      	str	r3, [r2, #0]
}
 8001094:	370c      	adds	r7, #12
 8001096:	46bd      	mov	sp, r7
 8001098:	f85d 7b04 	ldr.w	r7, [sp], #4
 800109c:	4770      	bx	lr
 800109e:	bf00      	nop
 80010a0:	42470e3c 	.word	0x42470e3c

080010a4 <RCC_BackupResetCmd>:
  * @param  NewState: new state of the Backup domain reset.
  *          This parameter can be: ENABLE or DISABLE.
  * @retval None
  */
void RCC_BackupResetCmd(FunctionalState NewState)
{
 80010a4:	b480      	push	{r7}
 80010a6:	b083      	sub	sp, #12
 80010a8:	af00      	add	r7, sp, #0
 80010aa:	4603      	mov	r3, r0
 80010ac:	71fb      	strb	r3, [r7, #7]
  /* Check the parameters */
  assert_param(IS_FUNCTIONAL_STATE(NewState));
  *(__IO uint32_t *) BDCR_BDRST_BB = (uint32_t)NewState;
 80010ae:	4a04      	ldr	r2, [pc, #16]	; (80010c0 <RCC_BackupResetCmd+0x1c>)
 80010b0:	79fb      	ldrb	r3, [r7, #7]
 80010b2:	6013      	str	r3, [r2, #0]
}
 80010b4:	370c      	adds	r7, #12
 80010b6:	46bd      	mov	sp, r7
 80010b8:	f85d 7b04 	ldr.w	r7, [sp], #4
 80010bc:	4770      	bx	lr
 80010be:	bf00      	nop
 80010c0:	42470e40 	.word	0x42470e40

080010c4 <RCC_I2SCLKConfig>:
  *            @arg RCC_I2S2CLKSource_Ext: External clock mapped on the I2S_CKIN pin
  *                                        used as I2S clock source
  * @retval None
  */
void RCC_I2SCLKConfig(uint32_t RCC_I2SCLKSource)
{
 80010c4:	b480      	push	{r7}
 80010c6:	b083      	sub	sp, #12
 80010c8:	af00      	add	r7, sp, #0
 80010ca:	6078      	str	r0, [r7, #4]
  /* Check the parameters */
  assert_param(IS_RCC_I2SCLK_SOURCE(RCC_I2SCLKSource));

  *(__IO uint32_t *) CFGR_I2SSRC_BB = RCC_I2SCLKSource;
 80010cc:	4a03      	ldr	r2, [pc, #12]	; (80010dc <RCC_I2SCLKConfig+0x18>)
 80010ce:	687b      	ldr	r3, [r7, #4]
 80010d0:	6013      	str	r3, [r2, #0]
}
 80010d2:	370c      	adds	r7, #12
 80010d4:	46bd      	mov	sp, r7
 80010d6:	f85d 7b04 	ldr.w	r7, [sp], #4
 80010da:	4770      	bx	lr
 80010dc:	4247015c 	.word	0x4247015c

080010e0 <RCC_AHB1PeriphClockCmd>:
  * @param  NewState: new state of the specified peripheral clock.
  *          This parameter can be: ENABLE or DISABLE.
  * @retval None
  */
void RCC_AHB1PeriphClockCmd(uint32_t RCC_AHB1Periph, FunctionalState NewState)
{
 80010e0:	b480      	push	{r7}
 80010e2:	b083      	sub	sp, #12
 80010e4:	af00      	add	r7, sp, #0
 80010e6:	6078      	str	r0, [r7, #4]
 80010e8:	460b      	mov	r3, r1
 80010ea:	70fb      	strb	r3, [r7, #3]
  /* Check the parameters */
  assert_param(IS_RCC_AHB1_CLOCK_PERIPH(RCC_AHB1Periph));

  assert_param(IS_FUNCTIONAL_STATE(NewState));
  if (NewState != DISABLE)
 80010ec:	78fb      	ldrb	r3, [r7, #3]
 80010ee:	2b00      	cmp	r3, #0
 80010f0:	d006      	beq.n	8001100 <RCC_AHB1PeriphClockCmd+0x20>
  {
    RCC->AHB1ENR |= RCC_AHB1Periph;
 80010f2:	4909      	ldr	r1, [pc, #36]	; (8001118 <RCC_AHB1PeriphClockCmd+0x38>)
 80010f4:	4b08      	ldr	r3, [pc, #32]	; (8001118 <RCC_AHB1PeriphClockCmd+0x38>)
 80010f6:	6b1a      	ldr	r2, [r3, #48]	; 0x30
 80010f8:	687b      	ldr	r3, [r7, #4]
 80010fa:	4313      	orrs	r3, r2
 80010fc:	630b      	str	r3, [r1, #48]	; 0x30
 80010fe:	e006      	b.n	800110e <RCC_AHB1PeriphClockCmd+0x2e>
  }
  else
  {
    RCC->AHB1ENR &= ~RCC_AHB1Periph;
 8001100:	4905      	ldr	r1, [pc, #20]	; (8001118 <RCC_AHB1PeriphClockCmd+0x38>)
 8001102:	4b05      	ldr	r3, [pc, #20]	; (8001118 <RCC_AHB1PeriphClockCmd+0x38>)
 8001104:	6b1a      	ldr	r2, [r3, #48]	; 0x30
 8001106:	687b      	ldr	r3, [r7, #4]
 8001108:	43db      	mvns	r3, r3
 800110a:	4013      	ands	r3, r2
 800110c:	630b      	str	r3, [r1, #48]	; 0x30
  }
}
 800110e:	370c      	adds	r7, #12
 8001110:	46bd      	mov	sp, r7
 8001112:	f85d 7b04 	ldr.w	r7, [sp], #4
 8001116:	4770      	bx	lr
 8001118:	40023800 	.word	0x40023800

0800111c <RCC_AHB2PeriphClockCmd>:
  * @param  NewState: new state of the specified peripheral clock.
  *          This parameter can be: ENABLE or DISABLE.
  * @retval None
  */
void RCC_AHB2PeriphClockCmd(uint32_t RCC_AHB2Periph, FunctionalState NewState)
{
 800111c:	b480      	push	{r7}
 800111e:	b083      	sub	sp, #12
 8001120:	af00      	add	r7, sp, #0
 8001122:	6078      	str	r0, [r7, #4]
 8001124:	460b      	mov	r3, r1
 8001126:	70fb      	strb	r3, [r7, #3]
  /* Check the parameters */
  assert_param(IS_RCC_AHB2_PERIPH(RCC_AHB2Periph));
  assert_param(IS_FUNCTIONAL_STATE(NewState));

  if (NewState != DISABLE)
 8001128:	78fb      	ldrb	r3, [r7, #3]
 800112a:	2b00      	cmp	r3, #0
 800112c:	d006      	beq.n	800113c <RCC_AHB2PeriphClockCmd+0x20>
  {
    RCC->AHB2ENR |= RCC_AHB2Periph;
 800112e:	4909      	ldr	r1, [pc, #36]	; (8001154 <RCC_AHB2PeriphClockCmd+0x38>)
 8001130:	4b08      	ldr	r3, [pc, #32]	; (8001154 <RCC_AHB2PeriphClockCmd+0x38>)
 8001132:	6b5a      	ldr	r2, [r3, #52]	; 0x34
 8001134:	687b      	ldr	r3, [r7, #4]
 8001136:	4313      	orrs	r3, r2
 8001138:	634b      	str	r3, [r1, #52]	; 0x34
 800113a:	e006      	b.n	800114a <RCC_AHB2PeriphClockCmd+0x2e>
  }
  else
  {
    RCC->AHB2ENR &= ~RCC_AHB2Periph;
 800113c:	4905      	ldr	r1, [pc, #20]	; (8001154 <RCC_AHB2PeriphClockCmd+0x38>)
 800113e:	4b05      	ldr	r3, [pc, #20]	; (8001154 <RCC_AHB2PeriphClockCmd+0x38>)
 8001140:	6b5a      	ldr	r2, [r3, #52]	; 0x34
 8001142:	687b      	ldr	r3, [r7, #4]
 8001144:	43db      	mvns	r3, r3
 8001146:	4013      	ands	r3, r2
 8001148:	634b      	str	r3, [r1, #52]	; 0x34
  }
}
 800114a:	370c      	adds	r7, #12
 800114c:	46bd      	mov	sp, r7
 800114e:	f85d 7b04 	ldr.w	r7, [sp], #4
 8001152:	4770      	bx	lr
 8001154:	40023800 	.word	0x40023800

08001158 <RCC_AHB3PeriphClockCmd>:
  * @param  NewState: new state of the specified peripheral clock.
  *          This parameter can be: ENABLE or DISABLE.
  * @retval None
  */
void RCC_AHB3PeriphClockCmd(uint32_t RCC_AHB3Periph, FunctionalState NewState)
{
 8001158:	b480      	push	{r7}
 800115a:	b083      	sub	sp, #12
 800115c:	af00      	add	r7, sp, #0
 800115e:	6078      	str	r0, [r7, #4]
 8001160:	460b      	mov	r3, r1
 8001162:	70fb      	strb	r3, [r7, #3]
  /* Check the parameters */
  assert_param(IS_RCC_AHB3_PERIPH(RCC_AHB3Periph));  
  assert_param(IS_FUNCTIONAL_STATE(NewState));

  if (NewState != DISABLE)
 8001164:	78fb      	ldrb	r3, [r7, #3]
 8001166:	2b00      	cmp	r3, #0
 8001168:	d006      	beq.n	8001178 <RCC_AHB3PeriphClockCmd+0x20>
  {
    RCC->AHB3ENR |= RCC_AHB3Periph;
 800116a:	4909      	ldr	r1, [pc, #36]	; (8001190 <RCC_AHB3PeriphClockCmd+0x38>)
 800116c:	4b08      	ldr	r3, [pc, #32]	; (8001190 <RCC_AHB3PeriphClockCmd+0x38>)
 800116e:	6b9a      	ldr	r2, [r3, #56]	; 0x38
 8001170:	687b      	ldr	r3, [r7, #4]
 8001172:	4313      	orrs	r3, r2
 8001174:	638b      	str	r3, [r1, #56]	; 0x38
 8001176:	e006      	b.n	8001186 <RCC_AHB3PeriphClockCmd+0x2e>
  }
  else
  {
    RCC->AHB3ENR &= ~RCC_AHB3Periph;
 8001178:	4905      	ldr	r1, [pc, #20]	; (8001190 <RCC_AHB3PeriphClockCmd+0x38>)
 800117a:	4b05      	ldr	r3, [pc, #20]	; (8001190 <RCC_AHB3PeriphClockCmd+0x38>)
 800117c:	6b9a      	ldr	r2, [r3, #56]	; 0x38
 800117e:	687b      	ldr	r3, [r7, #4]
 8001180:	43db      	mvns	r3, r3
 8001182:	4013      	ands	r3, r2
 8001184:	638b      	str	r3, [r1, #56]	; 0x38
  }
}
 8001186:	370c      	adds	r7, #12
 8001188:	46bd      	mov	sp, r7
 800118a:	f85d 7b04 	ldr.w	r7, [sp], #4
 800118e:	4770      	bx	lr
 8001190:	40023800 	.word	0x40023800

08001194 <RCC_APB1PeriphClockCmd>:
  * @param  NewState: new state of the specified peripheral clock.
  *          This parameter can be: ENABLE or DISABLE.
  * @retval None
  */
void RCC_APB1PeriphClockCmd(uint32_t RCC_APB1Periph, FunctionalState NewState)
{
 8001194:	b480      	push	{r7}
 8001196:	b083      	sub	sp, #12
 8001198:	af00      	add	r7, sp, #0
 800119a:	6078      	str	r0, [r7, #4]
 800119c:	460b      	mov	r3, r1
 800119e:	70fb      	strb	r3, [r7, #3]
  /* Check the parameters */
  assert_param(IS_RCC_APB1_PERIPH(RCC_APB1Periph));  
  assert_param(IS_FUNCTIONAL_STATE(NewState));

  if (NewState != DISABLE)
 80011a0:	78fb      	ldrb	r3, [r7, #3]
 80011a2:	2b00      	cmp	r3, #0
 80011a4:	d006      	beq.n	80011b4 <RCC_APB1PeriphClockCmd+0x20>
  {
    RCC->APB1ENR |= RCC_APB1Periph;
 80011a6:	4909      	ldr	r1, [pc, #36]	; (80011cc <RCC_APB1PeriphClockCmd+0x38>)
 80011a8:	4b08      	ldr	r3, [pc, #32]	; (80011cc <RCC_APB1PeriphClockCmd+0x38>)
 80011aa:	6c1a      	ldr	r2, [r3, #64]	; 0x40
 80011ac:	687b      	ldr	r3, [r7, #4]
 80011ae:	4313      	orrs	r3, r2
 80011b0:	640b      	str	r3, [r1, #64]	; 0x40
 80011b2:	e006      	b.n	80011c2 <RCC_APB1PeriphClockCmd+0x2e>
  }
  else
  {
    RCC->APB1ENR &= ~RCC_APB1Periph;
 80011b4:	4905      	ldr	r1, [pc, #20]	; (80011cc <RCC_APB1PeriphClockCmd+0x38>)
 80011b6:	4b05      	ldr	r3, [pc, #20]	; (80011cc <RCC_APB1PeriphClockCmd+0x38>)
 80011b8:	6c1a      	ldr	r2, [r3, #64]	; 0x40
 80011ba:	687b      	ldr	r3, [r7, #4]
 80011bc:	43db      	mvns	r3, r3
 80011be:	4013      	ands	r3, r2
 80011c0:	640b      	str	r3, [r1, #64]	; 0x40
  }
}
 80011c2:	370c      	adds	r7, #12
 80011c4:	46bd      	mov	sp, r7
 80011c6:	f85d 7b04 	ldr.w	r7, [sp], #4
 80011ca:	4770      	bx	lr
 80011cc:	40023800 	.word	0x40023800

080011d0 <RCC_APB2PeriphClockCmd>:
  * @param  NewState: new state of the specified peripheral clock.
  *          This parameter can be: ENABLE or DISABLE.
  * @retval None
  */
void RCC_APB2PeriphClockCmd(uint32_t RCC_APB2Periph, FunctionalState NewState)
{
 80011d0:	b480      	push	{r7}
 80011d2:	b083      	sub	sp, #12
 80011d4:	af00      	add	r7, sp, #0
 80011d6:	6078      	str	r0, [r7, #4]
 80011d8:	460b      	mov	r3, r1
 80011da:	70fb      	strb	r3, [r7, #3]
  /* Check the parameters */
  assert_param(IS_RCC_APB2_PERIPH(RCC_APB2Periph));
  assert_param(IS_FUNCTIONAL_STATE(NewState));

  if (NewState != DISABLE)
 80011dc:	78fb      	ldrb	r3, [r7, #3]
 80011de:	2b00      	cmp	r3, #0
 80011e0:	d006      	beq.n	80011f0 <RCC_APB2PeriphClockCmd+0x20>
  {
    RCC->APB2ENR |= RCC_APB2Periph;
 80011e2:	4909      	ldr	r1, [pc, #36]	; (8001208 <RCC_APB2PeriphClockCmd+0x38>)
 80011e4:	4b08      	ldr	r3, [pc, #32]	; (8001208 <RCC_APB2PeriphClockCmd+0x38>)
 80011e6:	6c5a      	ldr	r2, [r3, #68]	; 0x44
 80011e8:	687b      	ldr	r3, [r7, #4]
 80011ea:	4313      	orrs	r3, r2
 80011ec:	644b      	str	r3, [r1, #68]	; 0x44
 80011ee:	e006      	b.n	80011fe <RCC_APB2PeriphClockCmd+0x2e>
  }
  else
  {
    RCC->APB2ENR &= ~RCC_APB2Periph;
 80011f0:	4905      	ldr	r1, [pc, #20]	; (8001208 <RCC_APB2PeriphClockCmd+0x38>)
 80011f2:	4b05      	ldr	r3, [pc, #20]	; (8001208 <RCC_APB2PeriphClockCmd+0x38>)
 80011f4:	6c5a      	ldr	r2, [r3, #68]	; 0x44
 80011f6:	687b      	ldr	r3, [r7, #4]
 80011f8:	43db      	mvns	r3, r3
 80011fa:	4013      	ands	r3, r2
 80011fc:	644b      	str	r3, [r1, #68]	; 0x44
  }
}
 80011fe:	370c      	adds	r7, #12
 8001200:	46bd      	mov	sp, r7
 8001202:	f85d 7b04 	ldr.w	r7, [sp], #4
 8001206:	4770      	bx	lr
 8001208:	40023800 	.word	0x40023800

0800120c <RCC_AHB1PeriphResetCmd>:
  * @param  NewState: new state of the specified peripheral reset.
  *          This parameter can be: ENABLE or DISABLE.
  * @retval None
  */
void RCC_AHB1PeriphResetCmd(uint32_t RCC_AHB1Periph, FunctionalState NewState)
{
 800120c:	b480      	push	{r7}
 800120e:	b083      	sub	sp, #12
 8001210:	af00      	add	r7, sp, #0
 8001212:	6078      	str	r0, [r7, #4]
 8001214:	460b      	mov	r3, r1
 8001216:	70fb      	strb	r3, [r7, #3]
  /* Check the parameters */
  assert_param(IS_RCC_AHB1_RESET_PERIPH(RCC_AHB1Periph));
  assert_param(IS_FUNCTIONAL_STATE(NewState));

  if (NewState != DISABLE)
 8001218:	78fb      	ldrb	r3, [r7, #3]
 800121a:	2b00      	cmp	r3, #0
 800121c:	d006      	beq.n	800122c <RCC_AHB1PeriphResetCmd+0x20>
  {
    RCC->AHB1RSTR |= RCC_AHB1Periph;
 800121e:	4909      	ldr	r1, [pc, #36]	; (8001244 <RCC_AHB1PeriphResetCmd+0x38>)
 8001220:	4b08      	ldr	r3, [pc, #32]	; (8001244 <RCC_AHB1PeriphResetCmd+0x38>)
 8001222:	691a      	ldr	r2, [r3, #16]
 8001224:	687b      	ldr	r3, [r7, #4]
 8001226:	4313      	orrs	r3, r2
 8001228:	610b      	str	r3, [r1, #16]
 800122a:	e006      	b.n	800123a <RCC_AHB1PeriphResetCmd+0x2e>
  }
  else
  {
    RCC->AHB1RSTR &= ~RCC_AHB1Periph;
 800122c:	4905      	ldr	r1, [pc, #20]	; (8001244 <RCC_AHB1PeriphResetCmd+0x38>)
 800122e:	4b05      	ldr	r3, [pc, #20]	; (8001244 <RCC_AHB1PeriphResetCmd+0x38>)
 8001230:	691a      	ldr	r2, [r3, #16]
 8001232:	687b      	ldr	r3, [r7, #4]
 8001234:	43db      	mvns	r3, r3
 8001236:	4013      	ands	r3, r2
 8001238:	610b      	str	r3, [r1, #16]
  }
}
 800123a:	370c      	adds	r7, #12
 800123c:	46bd      	mov	sp, r7
 800123e:	f85d 7b04 	ldr.w	r7, [sp], #4
 8001242:	4770      	bx	lr
 8001244:	40023800 	.word	0x40023800

08001248 <RCC_AHB2PeriphResetCmd>:
  * @param  NewState: new state of the specified peripheral reset.
  *          This parameter can be: ENABLE or DISABLE.
  * @retval None
  */
void RCC_AHB2PeriphResetCmd(uint32_t RCC_AHB2Periph, FunctionalState NewState)
{
 8001248:	b480      	push	{r7}
 800124a:	b083      	sub	sp, #12
 800124c:	af00      	add	r7, sp, #0
 800124e:	6078      	str	r0, [r7, #4]
 8001250:	460b      	mov	r3, r1
 8001252:	70fb      	strb	r3, [r7, #3]
  /* Check the parameters */
  assert_param(IS_RCC_AHB2_PERIPH(RCC_AHB2Periph));
  assert_param(IS_FUNCTIONAL_STATE(NewState));

  if (NewState != DISABLE)
 8001254:	78fb      	ldrb	r3, [r7, #3]
 8001256:	2b00      	cmp	r3, #0
 8001258:	d006      	beq.n	8001268 <RCC_AHB2PeriphResetCmd+0x20>
  {
    RCC->AHB2RSTR |= RCC_AHB2Periph;
 800125a:	4909      	ldr	r1, [pc, #36]	; (8001280 <RCC_AHB2PeriphResetCmd+0x38>)
 800125c:	4b08      	ldr	r3, [pc, #32]	; (8001280 <RCC_AHB2PeriphResetCmd+0x38>)
 800125e:	695a      	ldr	r2, [r3, #20]
 8001260:	687b      	ldr	r3, [r7, #4]
 8001262:	4313      	orrs	r3, r2
 8001264:	614b      	str	r3, [r1, #20]
 8001266:	e006      	b.n	8001276 <RCC_AHB2PeriphResetCmd+0x2e>
  }
  else
  {
    RCC->AHB2RSTR &= ~RCC_AHB2Periph;
 8001268:	4905      	ldr	r1, [pc, #20]	; (8001280 <RCC_AHB2PeriphResetCmd+0x38>)
 800126a:	4b05      	ldr	r3, [pc, #20]	; (8001280 <RCC_AHB2PeriphResetCmd+0x38>)
 800126c:	695a      	ldr	r2, [r3, #20]
 800126e:	687b      	ldr	r3, [r7, #4]
 8001270:	43db      	mvns	r3, r3
 8001272:	4013      	ands	r3, r2
 8001274:	614b      	str	r3, [r1, #20]
  }
}
 8001276:	370c      	adds	r7, #12
 8001278:	46bd      	mov	sp, r7
 800127a:	f85d 7b04 	ldr.w	r7, [sp], #4
 800127e:	4770      	bx	lr
 8001280:	40023800 	.word	0x40023800

08001284 <RCC_AHB3PeriphResetCmd>:
  * @param  NewState: new state of the specified peripheral reset.
  *          This parameter can be: ENABLE or DISABLE.
  * @retval None
  */
void RCC_AHB3PeriphResetCmd(uint32_t RCC_AHB3Periph, FunctionalState NewState)
{
 8001284:	b480      	push	{r7}
 8001286:	b083      	sub	sp, #12
 8001288:	af00      	add	r7, sp, #0
 800128a:	6078      	str	r0, [r7, #4]
 800128c:	460b      	mov	r3, r1
 800128e:	70fb      	strb	r3, [r7, #3]
  /* Check the parameters */
  assert_param(IS_RCC_AHB3_PERIPH(RCC_AHB3Periph));
  assert_param(IS_FUNCTIONAL_STATE(NewState));

  if (NewState != DISABLE)
 8001290:	78fb      	ldrb	r3, [r7, #3]
 8001292:	2b00      	cmp	r3, #0
 8001294:	d006      	beq.n	80012a4 <RCC_AHB3PeriphResetCmd+0x20>
  {
    RCC->AHB3RSTR |= RCC_AHB3Periph;
 8001296:	4909      	ldr	r1, [pc, #36]	; (80012bc <RCC_AHB3PeriphResetCmd+0x38>)
 8001298:	4b08      	ldr	r3, [pc, #32]	; (80012bc <RCC_AHB3PeriphResetCmd+0x38>)
 800129a:	699a      	ldr	r2, [r3, #24]
 800129c:	687b      	ldr	r3, [r7, #4]
 800129e:	4313      	orrs	r3, r2
 80012a0:	618b      	str	r3, [r1, #24]
 80012a2:	e006      	b.n	80012b2 <RCC_AHB3PeriphResetCmd+0x2e>
  }
  else
  {
    RCC->AHB3RSTR &= ~RCC_AHB3Periph;
 80012a4:	4905      	ldr	r1, [pc, #20]	; (80012bc <RCC_AHB3PeriphResetCmd+0x38>)
 80012a6:	4b05      	ldr	r3, [pc, #20]	; (80012bc <RCC_AHB3PeriphResetCmd+0x38>)
 80012a8:	699a      	ldr	r2, [r3, #24]
 80012aa:	687b      	ldr	r3, [r7, #4]
 80012ac:	43db      	mvns	r3, r3
 80012ae:	4013      	ands	r3, r2
 80012b0:	618b      	str	r3, [r1, #24]
  }
}
 80012b2:	370c      	adds	r7, #12
 80012b4:	46bd      	mov	sp, r7
 80012b6:	f85d 7b04 	ldr.w	r7, [sp], #4
 80012ba:	4770      	bx	lr
 80012bc:	40023800 	.word	0x40023800

080012c0 <RCC_APB1PeriphResetCmd>:
  * @param  NewState: new state of the specified peripheral reset.
  *          This parameter can be: ENABLE or DISABLE.
  * @retval None
  */
void RCC_APB1PeriphResetCmd(uint32_t RCC_APB1Periph, FunctionalState NewState)
{
 80012c0:	b480      	push	{r7}
 80012c2:	b083      	sub	sp, #12
 80012c4:	af00      	add	r7, sp, #0
 80012c6:	6078      	str	r0, [r7, #4]
 80012c8:	460b      	mov	r3, r1
 80012ca:	70fb      	strb	r3, [r7, #3]
  /* Check the parameters */
  assert_param(IS_RCC_APB1_PERIPH(RCC_APB1Periph));
  assert_param(IS_FUNCTIONAL_STATE(NewState));
  if (NewState != DISABLE)
 80012cc:	78fb      	ldrb	r3, [r7, #3]
 80012ce:	2b00      	cmp	r3, #0
 80012d0:	d006      	beq.n	80012e0 <RCC_APB1PeriphResetCmd+0x20>
  {
    RCC->APB1RSTR |= RCC_APB1Periph;
 80012d2:	4909      	ldr	r1, [pc, #36]	; (80012f8 <RCC_APB1PeriphResetCmd+0x38>)
 80012d4:	4b08      	ldr	r3, [pc, #32]	; (80012f8 <RCC_APB1PeriphResetCmd+0x38>)
 80012d6:	6a1a      	ldr	r2, [r3, #32]
 80012d8:	687b      	ldr	r3, [r7, #4]
 80012da:	4313      	orrs	r3, r2
 80012dc:	620b      	str	r3, [r1, #32]
 80012de:	e006      	b.n	80012ee <RCC_APB1PeriphResetCmd+0x2e>
  }
  else
  {
    RCC->APB1RSTR &= ~RCC_APB1Periph;
 80012e0:	4905      	ldr	r1, [pc, #20]	; (80012f8 <RCC_APB1PeriphResetCmd+0x38>)
 80012e2:	4b05      	ldr	r3, [pc, #20]	; (80012f8 <RCC_APB1PeriphResetCmd+0x38>)
 80012e4:	6a1a      	ldr	r2, [r3, #32]
 80012e6:	687b      	ldr	r3, [r7, #4]
 80012e8:	43db      	mvns	r3, r3
 80012ea:	4013      	ands	r3, r2
 80012ec:	620b      	str	r3, [r1, #32]
  }
}
 80012ee:	370c      	adds	r7, #12
 80012f0:	46bd      	mov	sp, r7
 80012f2:	f85d 7b04 	ldr.w	r7, [sp], #4
 80012f6:	4770      	bx	lr
 80012f8:	40023800 	.word	0x40023800

080012fc <RCC_APB2PeriphResetCmd>:
  * @param  NewState: new state of the specified peripheral reset.
  *          This parameter can be: ENABLE or DISABLE.
  * @retval None
  */
void RCC_APB2PeriphResetCmd(uint32_t RCC_APB2Periph, FunctionalState NewState)
{
 80012fc:	b480      	push	{r7}
 80012fe:	b083      	sub	sp, #12
 8001300:	af00      	add	r7, sp, #0
 8001302:	6078      	str	r0, [r7, #4]
 8001304:	460b      	mov	r3, r1
 8001306:	70fb      	strb	r3, [r7, #3]
  /* Check the parameters */
  assert_param(IS_RCC_APB2_RESET_PERIPH(RCC_APB2Periph));
  assert_param(IS_FUNCTIONAL_STATE(NewState));
  if (NewState != DISABLE)
 8001308:	78fb      	ldrb	r3, [r7, #3]
 800130a:	2b00      	cmp	r3, #0
 800130c:	d006      	beq.n	800131c <RCC_APB2PeriphResetCmd+0x20>
  {
    RCC->APB2RSTR |= RCC_APB2Periph;
 800130e:	4909      	ldr	r1, [pc, #36]	; (8001334 <RCC_APB2PeriphResetCmd+0x38>)
 8001310:	4b08      	ldr	r3, [pc, #32]	; (8001334 <RCC_APB2PeriphResetCmd+0x38>)
 8001312:	6a5a      	ldr	r2, [r3, #36]	; 0x24
 8001314:	687b      	ldr	r3, [r7, #4]
 8001316:	4313      	orrs	r3, r2
 8001318:	624b      	str	r3, [r1, #36]	; 0x24
 800131a:	e006      	b.n	800132a <RCC_APB2PeriphResetCmd+0x2e>
  }
  else
  {
    RCC->APB2RSTR &= ~RCC_APB2Periph;
 800131c:	4905      	ldr	r1, [pc, #20]	; (8001334 <RCC_APB2PeriphResetCmd+0x38>)
 800131e:	4b05      	ldr	r3, [pc, #20]	; (8001334 <RCC_APB2PeriphResetCmd+0x38>)
 8001320:	6a5a      	ldr	r2, [r3, #36]	; 0x24
 8001322:	687b      	ldr	r3, [r7, #4]
 8001324:	43db      	mvns	r3, r3
 8001326:	4013      	ands	r3, r2
 8001328:	624b      	str	r3, [r1, #36]	; 0x24
  }
}
 800132a:	370c      	adds	r7, #12
 800132c:	46bd      	mov	sp, r7
 800132e:	f85d 7b04 	ldr.w	r7, [sp], #4
 8001332:	4770      	bx	lr
 8001334:	40023800 	.word	0x40023800

08001338 <RCC_AHB1PeriphClockLPModeCmd>:
  * @param  NewState: new state of the specified peripheral clock.
  *          This parameter can be: ENABLE or DISABLE.
  * @retval None
  */
void RCC_AHB1PeriphClockLPModeCmd(uint32_t RCC_AHB1Periph, FunctionalState NewState)
{
 8001338:	b480      	push	{r7}
 800133a:	b083      	sub	sp, #12
 800133c:	af00      	add	r7, sp, #0
 800133e:	6078      	str	r0, [r7, #4]
 8001340:	460b      	mov	r3, r1
 8001342:	70fb      	strb	r3, [r7, #3]
  /* Check the parameters */
  assert_param(IS_RCC_AHB1_LPMODE_PERIPH(RCC_AHB1Periph));
  assert_param(IS_FUNCTIONAL_STATE(NewState));
  if (NewState != DISABLE)
 8001344:	78fb      	ldrb	r3, [r7, #3]
 8001346:	2b00      	cmp	r3, #0
 8001348:	d006      	beq.n	8001358 <RCC_AHB1PeriphClockLPModeCmd+0x20>
  {
    RCC->AHB1LPENR |= RCC_AHB1Periph;
 800134a:	4909      	ldr	r1, [pc, #36]	; (8001370 <RCC_AHB1PeriphClockLPModeCmd+0x38>)
 800134c:	4b08      	ldr	r3, [pc, #32]	; (8001370 <RCC_AHB1PeriphClockLPModeCmd+0x38>)
 800134e:	6d1a      	ldr	r2, [r3, #80]	; 0x50
 8001350:	687b      	ldr	r3, [r7, #4]
 8001352:	4313      	orrs	r3, r2
 8001354:	650b      	str	r3, [r1, #80]	; 0x50
 8001356:	e006      	b.n	8001366 <RCC_AHB1PeriphClockLPModeCmd+0x2e>
  }
  else
  {
    RCC->AHB1LPENR &= ~RCC_AHB1Periph;
 8001358:	4905      	ldr	r1, [pc, #20]	; (8001370 <RCC_AHB1PeriphClockLPModeCmd+0x38>)
 800135a:	4b05      	ldr	r3, [pc, #20]	; (8001370 <RCC_AHB1PeriphClockLPModeCmd+0x38>)
 800135c:	6d1a      	ldr	r2, [r3, #80]	; 0x50
 800135e:	687b      	ldr	r3, [r7, #4]
 8001360:	43db      	mvns	r3, r3
 8001362:	4013      	ands	r3, r2
 8001364:	650b      	str	r3, [r1, #80]	; 0x50
  }
}
 8001366:	370c      	adds	r7, #12
 8001368:	46bd      	mov	sp, r7
 800136a:	f85d 7b04 	ldr.w	r7, [sp], #4
 800136e:	4770      	bx	lr
 8001370:	40023800 	.word	0x40023800

08001374 <RCC_AHB2PeriphClockLPModeCmd>:
  * @param  NewState: new state of the specified peripheral clock.
  *          This parameter can be: ENABLE or DISABLE.
  * @retval None
  */
void RCC_AHB2PeriphClockLPModeCmd(uint32_t RCC_AHB2Periph, FunctionalState NewState)
{
 8001374:	b480      	push	{r7}
 8001376:	b083      	sub	sp, #12
 8001378:	af00      	add	r7, sp, #0
 800137a:	6078      	str	r0, [r7, #4]
 800137c:	460b      	mov	r3, r1
 800137e:	70fb      	strb	r3, [r7, #3]
  /* Check the parameters */
  assert_param(IS_RCC_AHB2_PERIPH(RCC_AHB2Periph));
  assert_param(IS_FUNCTIONAL_STATE(NewState));
  if (NewState != DISABLE)
 8001380:	78fb      	ldrb	r3, [r7, #3]
 8001382:	2b00      	cmp	r3, #0
 8001384:	d006      	beq.n	8001394 <RCC_AHB2PeriphClockLPModeCmd+0x20>
  {
    RCC->AHB2LPENR |= RCC_AHB2Periph;
 8001386:	4909      	ldr	r1, [pc, #36]	; (80013ac <RCC_AHB2PeriphClockLPModeCmd+0x38>)
 8001388:	4b08      	ldr	r3, [pc, #32]	; (80013ac <RCC_AHB2PeriphClockLPModeCmd+0x38>)
 800138a:	6d5a      	ldr	r2, [r3, #84]	; 0x54
 800138c:	687b      	ldr	r3, [r7, #4]
 800138e:	4313      	orrs	r3, r2
 8001390:	654b      	str	r3, [r1, #84]	; 0x54
 8001392:	e006      	b.n	80013a2 <RCC_AHB2PeriphClockLPModeCmd+0x2e>
  }
  else
  {
    RCC->AHB2LPENR &= ~RCC_AHB2Periph;
 8001394:	4905      	ldr	r1, [pc, #20]	; (80013ac <RCC_AHB2PeriphClockLPModeCmd+0x38>)
 8001396:	4b05      	ldr	r3, [pc, #20]	; (80013ac <RCC_AHB2PeriphClockLPModeCmd+0x38>)
 8001398:	6d5a      	ldr	r2, [r3, #84]	; 0x54
 800139a:	687b      	ldr	r3, [r7, #4]
 800139c:	43db      	mvns	r3, r3
 800139e:	4013      	ands	r3, r2
 80013a0:	654b      	str	r3, [r1, #84]	; 0x54
  }
}
 80013a2:	370c      	adds	r7, #12
 80013a4:	46bd      	mov	sp, r7
 80013a6:	f85d 7b04 	ldr.w	r7, [sp], #4
 80013aa:	4770      	bx	lr
 80013ac:	40023800 	.word	0x40023800

080013b0 <RCC_AHB3PeriphClockLPModeCmd>:
  * @param  NewState: new state of the specified peripheral clock.
  *          This parameter can be: ENABLE or DISABLE.
  * @retval None
  */
void RCC_AHB3PeriphClockLPModeCmd(uint32_t RCC_AHB3Periph, FunctionalState NewState)
{
 80013b0:	b480      	push	{r7}
 80013b2:	b083      	sub	sp, #12
 80013b4:	af00      	add	r7, sp, #0
 80013b6:	6078      	str	r0, [r7, #4]
 80013b8:	460b      	mov	r3, r1
 80013ba:	70fb      	strb	r3, [r7, #3]
  /* Check the parameters */
  assert_param(IS_RCC_AHB3_PERIPH(RCC_AHB3Periph));
  assert_param(IS_FUNCTIONAL_STATE(NewState));
  if (NewState != DISABLE)
 80013bc:	78fb      	ldrb	r3, [r7, #3]
 80013be:	2b00      	cmp	r3, #0
 80013c0:	d006      	beq.n	80013d0 <RCC_AHB3PeriphClockLPModeCmd+0x20>
  {
    RCC->AHB3LPENR |= RCC_AHB3Periph;
 80013c2:	4909      	ldr	r1, [pc, #36]	; (80013e8 <RCC_AHB3PeriphClockLPModeCmd+0x38>)
 80013c4:	4b08      	ldr	r3, [pc, #32]	; (80013e8 <RCC_AHB3PeriphClockLPModeCmd+0x38>)
 80013c6:	6d9a      	ldr	r2, [r3, #88]	; 0x58
 80013c8:	687b      	ldr	r3, [r7, #4]
 80013ca:	4313      	orrs	r3, r2
 80013cc:	658b      	str	r3, [r1, #88]	; 0x58
 80013ce:	e006      	b.n	80013de <RCC_AHB3PeriphClockLPModeCmd+0x2e>
  }
  else
  {
    RCC->AHB3LPENR &= ~RCC_AHB3Periph;
 80013d0:	4905      	ldr	r1, [pc, #20]	; (80013e8 <RCC_AHB3PeriphClockLPModeCmd+0x38>)
 80013d2:	4b05      	ldr	r3, [pc, #20]	; (80013e8 <RCC_AHB3PeriphClockLPModeCmd+0x38>)
 80013d4:	6d9a      	ldr	r2, [r3, #88]	; 0x58
 80013d6:	687b      	ldr	r3, [r7, #4]
 80013d8:	43db      	mvns	r3, r3
 80013da:	4013      	ands	r3, r2
 80013dc:	658b      	str	r3, [r1, #88]	; 0x58
  }
}
 80013de:	370c      	adds	r7, #12
 80013e0:	46bd      	mov	sp, r7
 80013e2:	f85d 7b04 	ldr.w	r7, [sp], #4
 80013e6:	4770      	bx	lr
 80013e8:	40023800 	.word	0x40023800

080013ec <RCC_APB1PeriphClockLPModeCmd>:
  * @param  NewState: new state of the specified peripheral clock.
  *          This parameter can be: ENABLE or DISABLE.
  * @retval None
  */
void RCC_APB1PeriphClockLPModeCmd(uint32_t RCC_APB1Periph, FunctionalState NewState)
{
 80013ec:	b480      	push	{r7}
 80013ee:	b083      	sub	sp, #12
 80013f0:	af00      	add	r7, sp, #0
 80013f2:	6078      	str	r0, [r7, #4]
 80013f4:	460b      	mov	r3, r1
 80013f6:	70fb      	strb	r3, [r7, #3]
  /* Check the parameters */
  assert_param(IS_RCC_APB1_PERIPH(RCC_APB1Periph));
  assert_param(IS_FUNCTIONAL_STATE(NewState));
  if (NewState != DISABLE)
 80013f8:	78fb      	ldrb	r3, [r7, #3]
 80013fa:	2b00      	cmp	r3, #0
 80013fc:	d006      	beq.n	800140c <RCC_APB1PeriphClockLPModeCmd+0x20>
  {
    RCC->APB1LPENR |= RCC_APB1Periph;
 80013fe:	4909      	ldr	r1, [pc, #36]	; (8001424 <RCC_APB1PeriphClockLPModeCmd+0x38>)
 8001400:	4b08      	ldr	r3, [pc, #32]	; (8001424 <RCC_APB1PeriphClockLPModeCmd+0x38>)
 8001402:	6e1a      	ldr	r2, [r3, #96]	; 0x60
 8001404:	687b      	ldr	r3, [r7, #4]
 8001406:	4313      	orrs	r3, r2
 8001408:	660b      	str	r3, [r1, #96]	; 0x60
 800140a:	e006      	b.n	800141a <RCC_APB1PeriphClockLPModeCmd+0x2e>
  }
  else
  {
    RCC->APB1LPENR &= ~RCC_APB1Periph;
 800140c:	4905      	ldr	r1, [pc, #20]	; (8001424 <RCC_APB1PeriphClockLPModeCmd+0x38>)
 800140e:	4b05      	ldr	r3, [pc, #20]	; (8001424 <RCC_APB1PeriphClockLPModeCmd+0x38>)
 8001410:	6e1a      	ldr	r2, [r3, #96]	; 0x60
 8001412:	687b      	ldr	r3, [r7, #4]
 8001414:	43db      	mvns	r3, r3
 8001416:	4013      	ands	r3, r2
 8001418:	660b      	str	r3, [r1, #96]	; 0x60
  }
}
 800141a:	370c      	adds	r7, #12
 800141c:	46bd      	mov	sp, r7
 800141e:	f85d 7b04 	ldr.w	r7, [sp], #4
 8001422:	4770      	bx	lr
 8001424:	40023800 	.word	0x40023800

08001428 <RCC_APB2PeriphClockLPModeCmd>:
  * @param  NewState: new state of the specified peripheral clock.
  *          This parameter can be: ENABLE or DISABLE.
  * @retval None
  */
void RCC_APB2PeriphClockLPModeCmd(uint32_t RCC_APB2Periph, FunctionalState NewState)
{
 8001428:	b480      	push	{r7}
 800142a:	b083      	sub	sp, #12
 800142c:	af00      	add	r7, sp, #0
 800142e:	6078      	str	r0, [r7, #4]
 8001430:	460b      	mov	r3, r1
 8001432:	70fb      	strb	r3, [r7, #3]
  /* Check the parameters */
  assert_param(IS_RCC_APB2_PERIPH(RCC_APB2Periph));
  assert_param(IS_FUNCTIONAL_STATE(NewState));
  if (NewState != DISABLE)
 8001434:	78fb      	ldrb	r3, [r7, #3]
 8001436:	2b00      	cmp	r3, #0
 8001438:	d006      	beq.n	8001448 <RCC_APB2PeriphClockLPModeCmd+0x20>
  {
    RCC->APB2LPENR |= RCC_APB2Periph;
 800143a:	4909      	ldr	r1, [pc, #36]	; (8001460 <RCC_APB2PeriphClockLPModeCmd+0x38>)
 800143c:	4b08      	ldr	r3, [pc, #32]	; (8001460 <RCC_APB2PeriphClockLPModeCmd+0x38>)
 800143e:	6e5a      	ldr	r2, [r3, #100]	; 0x64
 8001440:	687b      	ldr	r3, [r7, #4]
 8001442:	4313      	orrs	r3, r2
 8001444:	664b      	str	r3, [r1, #100]	; 0x64
 8001446:	e006      	b.n	8001456 <RCC_APB2PeriphClockLPModeCmd+0x2e>
  }
  else
  {
    RCC->APB2LPENR &= ~RCC_APB2Periph;
 8001448:	4905      	ldr	r1, [pc, #20]	; (8001460 <RCC_APB2PeriphClockLPModeCmd+0x38>)
 800144a:	4b05      	ldr	r3, [pc, #20]	; (8001460 <RCC_APB2PeriphClockLPModeCmd+0x38>)
 800144c:	6e5a      	ldr	r2, [r3, #100]	; 0x64
 800144e:	687b      	ldr	r3, [r7, #4]
 8001450:	43db      	mvns	r3, r3
 8001452:	4013      	ands	r3, r2
 8001454:	664b      	str	r3, [r1, #100]	; 0x64
  }
}
 8001456:	370c      	adds	r7, #12
 8001458:	46bd      	mov	sp, r7
 800145a:	f85d 7b04 	ldr.w	r7, [sp], #4
 800145e:	4770      	bx	lr
 8001460:	40023800 	.word	0x40023800

08001464 <RCC_ITConfig>:
  * @param  NewState: new state of the specified RCC interrupts.
  *          This parameter can be: ENABLE or DISABLE.
  * @retval None
  */
void RCC_ITConfig(uint8_t RCC_IT, FunctionalState NewState)
{
 8001464:	b480      	push	{r7}
 8001466:	b083      	sub	sp, #12
 8001468:	af00      	add	r7, sp, #0
 800146a:	4603      	mov	r3, r0
 800146c:	460a      	mov	r2, r1
 800146e:	71fb      	strb	r3, [r7, #7]
 8001470:	4613      	mov	r3, r2
 8001472:	71bb      	strb	r3, [r7, #6]
  /* Check the parameters */
  assert_param(IS_RCC_IT(RCC_IT));
  assert_param(IS_FUNCTIONAL_STATE(NewState));
  if (NewState != DISABLE)
 8001474:	79bb      	ldrb	r3, [r7, #6]
 8001476:	2b00      	cmp	r3, #0
 8001478:	d008      	beq.n	800148c <RCC_ITConfig+0x28>
  {
    /* Perform Byte access to RCC_CIR[14:8] bits to enable the selected interrupts */
    *(__IO uint8_t *) CIR_BYTE2_ADDRESS |= RCC_IT;
 800147a:	490c      	ldr	r1, [pc, #48]	; (80014ac <RCC_ITConfig+0x48>)
 800147c:	4b0b      	ldr	r3, [pc, #44]	; (80014ac <RCC_ITConfig+0x48>)
 800147e:	781b      	ldrb	r3, [r3, #0]
 8001480:	b2da      	uxtb	r2, r3
 8001482:	79fb      	ldrb	r3, [r7, #7]
 8001484:	4313      	orrs	r3, r2
 8001486:	b2db      	uxtb	r3, r3
 8001488:	700b      	strb	r3, [r1, #0]
 800148a:	e009      	b.n	80014a0 <RCC_ITConfig+0x3c>
  }
  else
  {
    /* Perform Byte access to RCC_CIR[14:8] bits to disable the selected interrupts */
    *(__IO uint8_t *) CIR_BYTE2_ADDRESS &= (uint8_t)~RCC_IT;
 800148c:	4907      	ldr	r1, [pc, #28]	; (80014ac <RCC_ITConfig+0x48>)
 800148e:	4b07      	ldr	r3, [pc, #28]	; (80014ac <RCC_ITConfig+0x48>)
 8001490:	781b      	ldrb	r3, [r3, #0]
 8001492:	b2da      	uxtb	r2, r3
 8001494:	79fb      	ldrb	r3, [r7, #7]
 8001496:	43db      	mvns	r3, r3
 8001498:	b2db      	uxtb	r3, r3
 800149a:	4013      	ands	r3, r2
 800149c:	b2db      	uxtb	r3, r3
 800149e:	700b      	strb	r3, [r1, #0]
  }
}
 80014a0:	370c      	adds	r7, #12
 80014a2:	46bd      	mov	sp, r7
 80014a4:	f85d 7b04 	ldr.w	r7, [sp], #4
 80014a8:	4770      	bx	lr
 80014aa:	bf00      	nop
 80014ac:	4002380d 	.word	0x4002380d

080014b0 <RCC_GetFlagStatus>:
  *            @arg RCC_FLAG_WWDGRST: Window Watchdog reset
  *            @arg RCC_FLAG_LPWRRST: Low Power reset
  * @retval The new state of RCC_FLAG (SET or RESET).
  */
FlagStatus RCC_GetFlagStatus(uint8_t RCC_FLAG)
{
 80014b0:	b480      	push	{r7}
 80014b2:	b087      	sub	sp, #28
 80014b4:	af00      	add	r7, sp, #0
 80014b6:	4603      	mov	r3, r0
 80014b8:	71fb      	strb	r3, [r7, #7]
  uint32_t tmp = 0;
 80014ba:	2300      	movs	r3, #0
 80014bc:	60fb      	str	r3, [r7, #12]
  uint32_t statusreg = 0;
 80014be:	2300      	movs	r3, #0
 80014c0:	617b      	str	r3, [r7, #20]
  FlagStatus bitstatus = RESET;
 80014c2:	2300      	movs	r3, #0
 80014c4:	74fb      	strb	r3, [r7, #19]

  /* Check the parameters */
  assert_param(IS_RCC_FLAG(RCC_FLAG));

  /* Get the RCC register index */
  tmp = RCC_FLAG >> 5;
 80014c6:	79fb      	ldrb	r3, [r7, #7]
 80014c8:	095b      	lsrs	r3, r3, #5
 80014ca:	b2db      	uxtb	r3, r3
 80014cc:	60fb      	str	r3, [r7, #12]
  if (tmp == 1)               /* The flag to check is in CR register */
 80014ce:	68fb      	ldr	r3, [r7, #12]
 80014d0:	2b01      	cmp	r3, #1
 80014d2:	d103      	bne.n	80014dc <RCC_GetFlagStatus+0x2c>
  {
    statusreg = RCC->CR;
 80014d4:	4b12      	ldr	r3, [pc, #72]	; (8001520 <RCC_GetFlagStatus+0x70>)
 80014d6:	681b      	ldr	r3, [r3, #0]
 80014d8:	617b      	str	r3, [r7, #20]
 80014da:	e009      	b.n	80014f0 <RCC_GetFlagStatus+0x40>
  }
  else if (tmp == 2)          /* The flag to check is in BDCR register */
 80014dc:	68fb      	ldr	r3, [r7, #12]
 80014de:	2b02      	cmp	r3, #2
 80014e0:	d103      	bne.n	80014ea <RCC_GetFlagStatus+0x3a>
  {
    statusreg = RCC->BDCR;
 80014e2:	4b0f      	ldr	r3, [pc, #60]	; (8001520 <RCC_GetFlagStatus+0x70>)
 80014e4:	6f1b      	ldr	r3, [r3, #112]	; 0x70
 80014e6:	617b      	str	r3, [r7, #20]
 80014e8:	e002      	b.n	80014f0 <RCC_GetFlagStatus+0x40>
  }
  else                       /* The flag to check is in CSR register */
  {
    statusreg = RCC->CSR;
 80014ea:	4b0d      	ldr	r3, [pc, #52]	; (8001520 <RCC_GetFlagStatus+0x70>)
 80014ec:	6f5b      	ldr	r3, [r3, #116]	; 0x74
 80014ee:	617b      	str	r3, [r7, #20]
  }

  /* Get the flag position */
  tmp = RCC_FLAG & FLAG_MASK;
 80014f0:	79fb      	ldrb	r3, [r7, #7]
 80014f2:	f003 031f 	and.w	r3, r3, #31
 80014f6:	60fb      	str	r3, [r7, #12]
  if ((statusreg & ((uint32_t)1 << tmp)) != (uint32_t)RESET)
 80014f8:	68fb      	ldr	r3, [r7, #12]
 80014fa:	697a      	ldr	r2, [r7, #20]
 80014fc:	fa22 f303 	lsr.w	r3, r2, r3
 8001500:	f003 0301 	and.w	r3, r3, #1
 8001504:	2b00      	cmp	r3, #0
 8001506:	d002      	beq.n	800150e <RCC_GetFlagStatus+0x5e>
  {
    bitstatus = SET;
 8001508:	2301      	movs	r3, #1
 800150a:	74fb      	strb	r3, [r7, #19]
 800150c:	e001      	b.n	8001512 <RCC_GetFlagStatus+0x62>
  }
  else
  {
    bitstatus = RESET;
 800150e:	2300      	movs	r3, #0
 8001510:	74fb      	strb	r3, [r7, #19]
  }
  /* Return the flag status */
  return bitstatus;
 8001512:	7cfb      	ldrb	r3, [r7, #19]
}
 8001514:	4618      	mov	r0, r3
 8001516:	371c      	adds	r7, #28
 8001518:	46bd      	mov	sp, r7
 800151a:	f85d 7b04 	ldr.w	r7, [sp], #4
 800151e:	4770      	bx	lr
 8001520:	40023800 	.word	0x40023800

08001524 <RCC_ClearFlag>:
  *         RCC_FLAG_IWDGRST, RCC_FLAG_WWDGRST, RCC_FLAG_LPWRRST
  * @param  None
  * @retval None
  */
void RCC_ClearFlag(void)
{
 8001524:	b480      	push	{r7}
 8001526:	af00      	add	r7, sp, #0
  /* Set RMVF bit to clear the reset flags */
  RCC->CSR |= RCC_CSR_RMVF;
 8001528:	4a04      	ldr	r2, [pc, #16]	; (800153c <RCC_ClearFlag+0x18>)
 800152a:	4b04      	ldr	r3, [pc, #16]	; (800153c <RCC_ClearFlag+0x18>)
 800152c:	6f5b      	ldr	r3, [r3, #116]	; 0x74
 800152e:	f043 7380 	orr.w	r3, r3, #16777216	; 0x1000000
 8001532:	6753      	str	r3, [r2, #116]	; 0x74
}
 8001534:	46bd      	mov	sp, r7
 8001536:	f85d 7b04 	ldr.w	r7, [sp], #4
 800153a:	4770      	bx	lr
 800153c:	40023800 	.word	0x40023800

08001540 <RCC_GetITStatus>:
  *            @arg RCC_IT_PLLI2SRDY: PLLI2S ready interrupt  
  *            @arg RCC_IT_CSS: Clock Security System interrupt
  * @retval The new state of RCC_IT (SET or RESET).
  */
ITStatus RCC_GetITStatus(uint8_t RCC_IT)
{
 8001540:	b480      	push	{r7}
 8001542:	b085      	sub	sp, #20
 8001544:	af00      	add	r7, sp, #0
 8001546:	4603      	mov	r3, r0
 8001548:	71fb      	strb	r3, [r7, #7]
  ITStatus bitstatus = RESET;
 800154a:	2300      	movs	r3, #0
 800154c:	73fb      	strb	r3, [r7, #15]

  /* Check the parameters */
  assert_param(IS_RCC_GET_IT(RCC_IT));

  /* Check the status of the specified RCC interrupt */
  if ((RCC->CIR & RCC_IT) != (uint32_t)RESET)
 800154e:	4b09      	ldr	r3, [pc, #36]	; (8001574 <RCC_GetITStatus+0x34>)
 8001550:	68da      	ldr	r2, [r3, #12]
 8001552:	79fb      	ldrb	r3, [r7, #7]
 8001554:	4013      	ands	r3, r2
 8001556:	2b00      	cmp	r3, #0
 8001558:	d002      	beq.n	8001560 <RCC_GetITStatus+0x20>
  {
    bitstatus = SET;
 800155a:	2301      	movs	r3, #1
 800155c:	73fb      	strb	r3, [r7, #15]
 800155e:	e001      	b.n	8001564 <RCC_GetITStatus+0x24>
  }
  else
  {
    bitstatus = RESET;
 8001560:	2300      	movs	r3, #0
 8001562:	73fb      	strb	r3, [r7, #15]
  }
  /* Return the RCC_IT status */
  return  bitstatus;
 8001564:	7bfb      	ldrb	r3, [r7, #15]
}
 8001566:	4618      	mov	r0, r3
 8001568:	3714      	adds	r7, #20
 800156a:	46bd      	mov	sp, r7
 800156c:	f85d 7b04 	ldr.w	r7, [sp], #4
 8001570:	4770      	bx	lr
 8001572:	bf00      	nop
 8001574:	40023800 	.word	0x40023800

08001578 <RCC_ClearITPendingBit>:
  *            @arg RCC_IT_PLLI2SRDY: PLLI2S ready interrupt  
  *            @arg RCC_IT_CSS: Clock Security System interrupt
  * @retval None
  */
void RCC_ClearITPendingBit(uint8_t RCC_IT)
{
 8001578:	b480      	push	{r7}
 800157a:	b083      	sub	sp, #12
 800157c:	af00      	add	r7, sp, #0
 800157e:	4603      	mov	r3, r0
 8001580:	71fb      	strb	r3, [r7, #7]
  /* Check the parameters */
  assert_param(IS_RCC_CLEAR_IT(RCC_IT));

  /* Perform Byte access to RCC_CIR[23:16] bits to clear the selected interrupt
     pending bits */
  *(__IO uint8_t *) CIR_BYTE3_ADDRESS = RCC_IT;
 8001582:	4a04      	ldr	r2, [pc, #16]	; (8001594 <RCC_ClearITPendingBit+0x1c>)
 8001584:	79fb      	ldrb	r3, [r7, #7]
 8001586:	7013      	strb	r3, [r2, #0]
}
 8001588:	370c      	adds	r7, #12
 800158a:	46bd      	mov	sp, r7
 800158c:	f85d 7b04 	ldr.w	r7, [sp], #4
 8001590:	4770      	bx	lr
 8001592:	bf00      	nop
 8001594:	4002380e 	.word	0x4002380e

08001598 <EXTI_DeInit>:
  * @brief  Deinitializes the EXTI peripheral registers to their default reset values.
  * @param  None
  * @retval None
  */
void EXTI_DeInit(void)
{
 8001598:	b480      	push	{r7}
 800159a:	af00      	add	r7, sp, #0
  EXTI->IMR = 0x00000000;
 800159c:	4b09      	ldr	r3, [pc, #36]	; (80015c4 <EXTI_DeInit+0x2c>)
 800159e:	2200      	movs	r2, #0
 80015a0:	601a      	str	r2, [r3, #0]
  EXTI->EMR = 0x00000000;
 80015a2:	4b08      	ldr	r3, [pc, #32]	; (80015c4 <EXTI_DeInit+0x2c>)
 80015a4:	2200      	movs	r2, #0
 80015a6:	605a      	str	r2, [r3, #4]
  EXTI->RTSR = 0x00000000;
 80015a8:	4b06      	ldr	r3, [pc, #24]	; (80015c4 <EXTI_DeInit+0x2c>)
 80015aa:	2200      	movs	r2, #0
 80015ac:	609a      	str	r2, [r3, #8]
  EXTI->FTSR = 0x00000000;
 80015ae:	4b05      	ldr	r3, [pc, #20]	; (80015c4 <EXTI_DeInit+0x2c>)
 80015b0:	2200      	movs	r2, #0
 80015b2:	60da      	str	r2, [r3, #12]
  EXTI->PR = 0x007FFFFF;
 80015b4:	4b03      	ldr	r3, [pc, #12]	; (80015c4 <EXTI_DeInit+0x2c>)
 80015b6:	4a04      	ldr	r2, [pc, #16]	; (80015c8 <EXTI_DeInit+0x30>)
 80015b8:	615a      	str	r2, [r3, #20]
}
 80015ba:	46bd      	mov	sp, r7
 80015bc:	f85d 7b04 	ldr.w	r7, [sp], #4
 80015c0:	4770      	bx	lr
 80015c2:	bf00      	nop
 80015c4:	40013c00 	.word	0x40013c00
 80015c8:	007fffff 	.word	0x007fffff

080015cc <EXTI_Init>:
  * @param  EXTI_InitStruct: pointer to a EXTI_InitTypeDef structure
  *         that contains the configuration information for the EXTI peripheral.
  * @retval None
  */
void EXTI_Init(EXTI_InitTypeDef* EXTI_InitStruct)
{
 80015cc:	b480      	push	{r7}
 80015ce:	b085      	sub	sp, #20
 80015d0:	af00      	add	r7, sp, #0
 80015d2:	6078      	str	r0, [r7, #4]
  uint32_t tmp = 0;
 80015d4:	2300      	movs	r3, #0
 80015d6:	60fb      	str	r3, [r7, #12]
  assert_param(IS_EXTI_MODE(EXTI_InitStruct->EXTI_Mode));
  assert_param(IS_EXTI_TRIGGER(EXTI_InitStruct->EXTI_Trigger));
  assert_param(IS_EXTI_LINE(EXTI_InitStruct->EXTI_Line));  
  assert_param(IS_FUNCTIONAL_STATE(EXTI_InitStruct->EXTI_LineCmd));

  tmp = (uint32_t)EXTI_BASE;
 80015d8:	4b34      	ldr	r3, [pc, #208]	; (80016ac <EXTI_Init+0xe0>)
 80015da:	60fb      	str	r3, [r7, #12]
     
  if (EXTI_InitStruct->EXTI_LineCmd != DISABLE)
 80015dc:	687b      	ldr	r3, [r7, #4]
 80015de:	799b      	ldrb	r3, [r3, #6]
 80015e0:	2b00      	cmp	r3, #0
 80015e2:	d04f      	beq.n	8001684 <EXTI_Init+0xb8>
  {
    /* Clear EXTI line configuration */
    EXTI->IMR &= ~EXTI_InitStruct->EXTI_Line;
 80015e4:	4931      	ldr	r1, [pc, #196]	; (80016ac <EXTI_Init+0xe0>)
 80015e6:	4b31      	ldr	r3, [pc, #196]	; (80016ac <EXTI_Init+0xe0>)
 80015e8:	681a      	ldr	r2, [r3, #0]
 80015ea:	687b      	ldr	r3, [r7, #4]
 80015ec:	681b      	ldr	r3, [r3, #0]
 80015ee:	43db      	mvns	r3, r3
 80015f0:	4013      	ands	r3, r2
 80015f2:	600b      	str	r3, [r1, #0]
    EXTI->EMR &= ~EXTI_InitStruct->EXTI_Line;
 80015f4:	492d      	ldr	r1, [pc, #180]	; (80016ac <EXTI_Init+0xe0>)
 80015f6:	4b2d      	ldr	r3, [pc, #180]	; (80016ac <EXTI_Init+0xe0>)
 80015f8:	685a      	ldr	r2, [r3, #4]
 80015fa:	687b      	ldr	r3, [r7, #4]
 80015fc:	681b      	ldr	r3, [r3, #0]
 80015fe:	43db      	mvns	r3, r3
 8001600:	4013      	ands	r3, r2
 8001602:	604b      	str	r3, [r1, #4]
    
    tmp += EXTI_InitStruct->EXTI_Mode;
 8001604:	687b      	ldr	r3, [r7, #4]
 8001606:	791b      	ldrb	r3, [r3, #4]
 8001608:	461a      	mov	r2, r3
 800160a:	68fb      	ldr	r3, [r7, #12]
 800160c:	4413      	add	r3, r2
 800160e:	60fb      	str	r3, [r7, #12]

    *(__IO uint32_t *) tmp |= EXTI_InitStruct->EXTI_Line;
 8001610:	68fb      	ldr	r3, [r7, #12]
 8001612:	68fa      	ldr	r2, [r7, #12]
 8001614:	6811      	ldr	r1, [r2, #0]
 8001616:	687a      	ldr	r2, [r7, #4]
 8001618:	6812      	ldr	r2, [r2, #0]
 800161a:	430a      	orrs	r2, r1
 800161c:	601a      	str	r2, [r3, #0]

    /* Clear Rising Falling edge configuration */
    EXTI->RTSR &= ~EXTI_InitStruct->EXTI_Line;
 800161e:	4923      	ldr	r1, [pc, #140]	; (80016ac <EXTI_Init+0xe0>)
 8001620:	4b22      	ldr	r3, [pc, #136]	; (80016ac <EXTI_Init+0xe0>)
 8001622:	689a      	ldr	r2, [r3, #8]
 8001624:	687b      	ldr	r3, [r7, #4]
 8001626:	681b      	ldr	r3, [r3, #0]
 8001628:	43db      	mvns	r3, r3
 800162a:	4013      	ands	r3, r2
 800162c:	608b      	str	r3, [r1, #8]
    EXTI->FTSR &= ~EXTI_InitStruct->EXTI_Line;
 800162e:	491f      	ldr	r1, [pc, #124]	; (80016ac <EXTI_Init+0xe0>)
 8001630:	4b1e      	ldr	r3, [pc, #120]	; (80016ac <EXTI_Init+0xe0>)
 8001632:	68da      	ldr	r2, [r3, #12]
 8001634:	687b      	ldr	r3, [r7, #4]
 8001636:	681b      	ldr	r3, [r3, #0]
 8001638:	43db      	mvns	r3, r3
 800163a:	4013      	ands	r3, r2
 800163c:	60cb      	str	r3, [r1, #12]
    
    /* Select the trigger for the selected external interrupts */
    if (EXTI_InitStruct->EXTI_Trigger == EXTI_Trigger_Rising_Falling)
 800163e:	687b      	ldr	r3, [r7, #4]
 8001640:	795b      	ldrb	r3, [r3, #5]
 8001642:	2b10      	cmp	r3, #16
 8001644:	d10e      	bne.n	8001664 <EXTI_Init+0x98>
    {
      /* Rising Falling edge */
      EXTI->RTSR |= EXTI_InitStruct->EXTI_Line;
 8001646:	4919      	ldr	r1, [pc, #100]	; (80016ac <EXTI_Init+0xe0>)
 8001648:	4b18      	ldr	r3, [pc, #96]	; (80016ac <EXTI_Init+0xe0>)
 800164a:	689a      	ldr	r2, [r3, #8]
 800164c:	687b      	ldr	r3, [r7, #4]
 800164e:	681b      	ldr	r3, [r3, #0]
 8001650:	4313      	orrs	r3, r2
 8001652:	608b      	str	r3, [r1, #8]
      EXTI->FTSR |= EXTI_InitStruct->EXTI_Line;
 8001654:	4915      	ldr	r1, [pc, #84]	; (80016ac <EXTI_Init+0xe0>)
 8001656:	4b15      	ldr	r3, [pc, #84]	; (80016ac <EXTI_Init+0xe0>)
 8001658:	68da      	ldr	r2, [r3, #12]
 800165a:	687b      	ldr	r3, [r7, #4]
 800165c:	681b      	ldr	r3, [r3, #0]
 800165e:	4313      	orrs	r3, r2
 8001660:	60cb      	str	r3, [r1, #12]
 8001662:	e01d      	b.n	80016a0 <EXTI_Init+0xd4>
    }
    else
    {
      tmp = (uint32_t)EXTI_BASE;
 8001664:	4b11      	ldr	r3, [pc, #68]	; (80016ac <EXTI_Init+0xe0>)
 8001666:	60fb      	str	r3, [r7, #12]
      tmp += EXTI_InitStruct->EXTI_Trigger;
 8001668:	687b      	ldr	r3, [r7, #4]
 800166a:	795b      	ldrb	r3, [r3, #5]
 800166c:	461a      	mov	r2, r3
 800166e:	68fb      	ldr	r3, [r7, #12]
 8001670:	4413      	add	r3, r2
 8001672:	60fb      	str	r3, [r7, #12]

      *(__IO uint32_t *) tmp |= EXTI_InitStruct->EXTI_Line;
 8001674:	68fb      	ldr	r3, [r7, #12]
 8001676:	68fa      	ldr	r2, [r7, #12]
 8001678:	6811      	ldr	r1, [r2, #0]
 800167a:	687a      	ldr	r2, [r7, #4]
 800167c:	6812      	ldr	r2, [r2, #0]
 800167e:	430a      	orrs	r2, r1
 8001680:	601a      	str	r2, [r3, #0]
 8001682:	e00d      	b.n	80016a0 <EXTI_Init+0xd4>
    }
  }
  else
  {
    tmp += EXTI_InitStruct->EXTI_Mode;
 8001684:	687b      	ldr	r3, [r7, #4]
 8001686:	791b      	ldrb	r3, [r3, #4]
 8001688:	461a      	mov	r2, r3
 800168a:	68fb      	ldr	r3, [r7, #12]
 800168c:	4413      	add	r3, r2
 800168e:	60fb      	str	r3, [r7, #12]

    /* Disable the selected external lines */
    *(__IO uint32_t *) tmp &= ~EXTI_InitStruct->EXTI_Line;
 8001690:	68fb      	ldr	r3, [r7, #12]
 8001692:	68fa      	ldr	r2, [r7, #12]
 8001694:	6811      	ldr	r1, [r2, #0]
 8001696:	687a      	ldr	r2, [r7, #4]
 8001698:	6812      	ldr	r2, [r2, #0]
 800169a:	43d2      	mvns	r2, r2
 800169c:	400a      	ands	r2, r1
 800169e:	601a      	str	r2, [r3, #0]
  }
}
 80016a0:	3714      	adds	r7, #20
 80016a2:	46bd      	mov	sp, r7
 80016a4:	f85d 7b04 	ldr.w	r7, [sp], #4
 80016a8:	4770      	bx	lr
 80016aa:	bf00      	nop
 80016ac:	40013c00 	.word	0x40013c00

080016b0 <EXTI_StructInit>:
  * @param  EXTI_InitStruct: pointer to a EXTI_InitTypeDef structure which will
  *         be initialized.
  * @retval None
  */
void EXTI_StructInit(EXTI_InitTypeDef* EXTI_InitStruct)
{
 80016b0:	b480      	push	{r7}
 80016b2:	b083      	sub	sp, #12
 80016b4:	af00      	add	r7, sp, #0
 80016b6:	6078      	str	r0, [r7, #4]
  EXTI_InitStruct->EXTI_Line = EXTI_LINENONE;
 80016b8:	687b      	ldr	r3, [r7, #4]
 80016ba:	2200      	movs	r2, #0
 80016bc:	601a      	str	r2, [r3, #0]
  EXTI_InitStruct->EXTI_Mode = EXTI_Mode_Interrupt;
 80016be:	687b      	ldr	r3, [r7, #4]
 80016c0:	2200      	movs	r2, #0
 80016c2:	711a      	strb	r2, [r3, #4]
  EXTI_InitStruct->EXTI_Trigger = EXTI_Trigger_Falling;
 80016c4:	687b      	ldr	r3, [r7, #4]
 80016c6:	220c      	movs	r2, #12
 80016c8:	715a      	strb	r2, [r3, #5]
  EXTI_InitStruct->EXTI_LineCmd = DISABLE;
 80016ca:	687b      	ldr	r3, [r7, #4]
 80016cc:	2200      	movs	r2, #0
 80016ce:	719a      	strb	r2, [r3, #6]
}
 80016d0:	370c      	adds	r7, #12
 80016d2:	46bd      	mov	sp, r7
 80016d4:	f85d 7b04 	ldr.w	r7, [sp], #4
 80016d8:	4770      	bx	lr
 80016da:	bf00      	nop

080016dc <EXTI_GenerateSWInterrupt>:
  *         will be generated.
  *         This parameter can be any combination of EXTI_Linex where x can be (0..22)
  * @retval None
  */
void EXTI_GenerateSWInterrupt(uint32_t EXTI_Line)
{
 80016dc:	b480      	push	{r7}
 80016de:	b083      	sub	sp, #12
 80016e0:	af00      	add	r7, sp, #0
 80016e2:	6078      	str	r0, [r7, #4]
  /* Check the parameters */
  assert_param(IS_EXTI_LINE(EXTI_Line));
  
  EXTI->SWIER |= EXTI_Line;
 80016e4:	4905      	ldr	r1, [pc, #20]	; (80016fc <EXTI_GenerateSWInterrupt+0x20>)
 80016e6:	4b05      	ldr	r3, [pc, #20]	; (80016fc <EXTI_GenerateSWInterrupt+0x20>)
 80016e8:	691a      	ldr	r2, [r3, #16]
 80016ea:	687b      	ldr	r3, [r7, #4]
 80016ec:	4313      	orrs	r3, r2
 80016ee:	610b      	str	r3, [r1, #16]
}
 80016f0:	370c      	adds	r7, #12
 80016f2:	46bd      	mov	sp, r7
 80016f4:	f85d 7b04 	ldr.w	r7, [sp], #4
 80016f8:	4770      	bx	lr
 80016fa:	bf00      	nop
 80016fc:	40013c00 	.word	0x40013c00

08001700 <EXTI_GetFlagStatus>:
  * @param  EXTI_Line: specifies the EXTI line flag to check.
  *          This parameter can be EXTI_Linex where x can be(0..22)
  * @retval The new state of EXTI_Line (SET or RESET).
  */
FlagStatus EXTI_GetFlagStatus(uint32_t EXTI_Line)
{
 8001700:	b480      	push	{r7}
 8001702:	b085      	sub	sp, #20
 8001704:	af00      	add	r7, sp, #0
 8001706:	6078      	str	r0, [r7, #4]
  FlagStatus bitstatus = RESET;
 8001708:	2300      	movs	r3, #0
 800170a:	73fb      	strb	r3, [r7, #15]
  /* Check the parameters */
  assert_param(IS_GET_EXTI_LINE(EXTI_Line));
  
  if ((EXTI->PR & EXTI_Line) != (uint32_t)RESET)
 800170c:	4b08      	ldr	r3, [pc, #32]	; (8001730 <EXTI_GetFlagStatus+0x30>)
 800170e:	695a      	ldr	r2, [r3, #20]
 8001710:	687b      	ldr	r3, [r7, #4]
 8001712:	4013      	ands	r3, r2
 8001714:	2b00      	cmp	r3, #0
 8001716:	d002      	beq.n	800171e <EXTI_GetFlagStatus+0x1e>
  {
    bitstatus = SET;
 8001718:	2301      	movs	r3, #1
 800171a:	73fb      	strb	r3, [r7, #15]
 800171c:	e001      	b.n	8001722 <EXTI_GetFlagStatus+0x22>
  }
  else
  {
    bitstatus = RESET;
 800171e:	2300      	movs	r3, #0
 8001720:	73fb      	strb	r3, [r7, #15]
  }
  return bitstatus;
 8001722:	7bfb      	ldrb	r3, [r7, #15]
}
 8001724:	4618      	mov	r0, r3
 8001726:	3714      	adds	r7, #20
 8001728:	46bd      	mov	sp, r7
 800172a:	f85d 7b04 	ldr.w	r7, [sp], #4
 800172e:	4770      	bx	lr
 8001730:	40013c00 	.word	0x40013c00

08001734 <EXTI_ClearFlag>:
  * @param  EXTI_Line: specifies the EXTI lines flags to clear.
  *          This parameter can be any combination of EXTI_Linex where x can be (0..22)
  * @retval None
  */
void EXTI_ClearFlag(uint32_t EXTI_Line)
{
 8001734:	b480      	push	{r7}
 8001736:	b083      	sub	sp, #12
 8001738:	af00      	add	r7, sp, #0
 800173a:	6078      	str	r0, [r7, #4]
  /* Check the parameters */
  assert_param(IS_EXTI_LINE(EXTI_Line));
  
  EXTI->PR = EXTI_Line;
 800173c:	4a03      	ldr	r2, [pc, #12]	; (800174c <EXTI_ClearFlag+0x18>)
 800173e:	687b      	ldr	r3, [r7, #4]
 8001740:	6153      	str	r3, [r2, #20]
}
 8001742:	370c      	adds	r7, #12
 8001744:	46bd      	mov	sp, r7
 8001746:	f85d 7b04 	ldr.w	r7, [sp], #4
 800174a:	4770      	bx	lr
 800174c:	40013c00 	.word	0x40013c00

08001750 <EXTI_GetITStatus>:
  * @param  EXTI_Line: specifies the EXTI line to check.
  *          This parameter can be EXTI_Linex where x can be(0..22)
  * @retval The new state of EXTI_Line (SET or RESET).
  */
ITStatus EXTI_GetITStatus(uint32_t EXTI_Line)
{
 8001750:	b480      	push	{r7}
 8001752:	b085      	sub	sp, #20
 8001754:	af00      	add	r7, sp, #0
 8001756:	6078      	str	r0, [r7, #4]
  ITStatus bitstatus = RESET;
 8001758:	2300      	movs	r3, #0
 800175a:	73fb      	strb	r3, [r7, #15]
  uint32_t enablestatus = 0;
 800175c:	2300      	movs	r3, #0
 800175e:	60bb      	str	r3, [r7, #8]
  /* Check the parameters */
  assert_param(IS_GET_EXTI_LINE(EXTI_Line));
  
  enablestatus =  EXTI->IMR & EXTI_Line;
 8001760:	4b0c      	ldr	r3, [pc, #48]	; (8001794 <EXTI_GetITStatus+0x44>)
 8001762:	681a      	ldr	r2, [r3, #0]
 8001764:	687b      	ldr	r3, [r7, #4]
 8001766:	4013      	ands	r3, r2
 8001768:	60bb      	str	r3, [r7, #8]
  if (((EXTI->PR & EXTI_Line) != (uint32_t)RESET) && (enablestatus != (uint32_t)RESET))
 800176a:	4b0a      	ldr	r3, [pc, #40]	; (8001794 <EXTI_GetITStatus+0x44>)
 800176c:	695a      	ldr	r2, [r3, #20]
 800176e:	687b      	ldr	r3, [r7, #4]
 8001770:	4013      	ands	r3, r2
 8001772:	2b00      	cmp	r3, #0
 8001774:	d005      	beq.n	8001782 <EXTI_GetITStatus+0x32>
 8001776:	68bb      	ldr	r3, [r7, #8]
 8001778:	2b00      	cmp	r3, #0
 800177a:	d002      	beq.n	8001782 <EXTI_GetITStatus+0x32>
  {
    bitstatus = SET;
 800177c:	2301      	movs	r3, #1
 800177e:	73fb      	strb	r3, [r7, #15]
 8001780:	e001      	b.n	8001786 <EXTI_GetITStatus+0x36>
  }
  else
  {
    bitstatus = RESET;
 8001782:	2300      	movs	r3, #0
 8001784:	73fb      	strb	r3, [r7, #15]
  }
  return bitstatus;
 8001786:	7bfb      	ldrb	r3, [r7, #15]
}
 8001788:	4618      	mov	r0, r3
 800178a:	3714      	adds	r7, #20
 800178c:	46bd      	mov	sp, r7
 800178e:	f85d 7b04 	ldr.w	r7, [sp], #4
 8001792:	4770      	bx	lr
 8001794:	40013c00 	.word	0x40013c00

08001798 <EXTI_ClearITPendingBit>:
  * @param  EXTI_Line: specifies the EXTI lines to clear.
  *          This parameter can be any combination of EXTI_Linex where x can be (0..22)
  * @retval None
  */
void EXTI_ClearITPendingBit(uint32_t EXTI_Line)
{
 8001798:	b480      	push	{r7}
 800179a:	b083      	sub	sp, #12
 800179c:	af00      	add	r7, sp, #0
 800179e:	6078      	str	r0, [r7, #4]
  /* Check the parameters */
  assert_param(IS_EXTI_LINE(EXTI_Line));
  
  EXTI->PR = EXTI_Line;
 80017a0:	4a03      	ldr	r2, [pc, #12]	; (80017b0 <EXTI_ClearITPendingBit+0x18>)
 80017a2:	687b      	ldr	r3, [r7, #4]
 80017a4:	6153      	str	r3, [r2, #20]
}
 80017a6:	370c      	adds	r7, #12
 80017a8:	46bd      	mov	sp, r7
 80017aa:	f85d 7b04 	ldr.w	r7, [sp], #4
 80017ae:	4770      	bx	lr
 80017b0:	40013c00 	.word	0x40013c00

080017b4 <SYSCFG_DeInit>:
  *   registers to their default reset values.
  * @param  None
  * @retval None
  */
void SYSCFG_DeInit(void)
{
 80017b4:	b580      	push	{r7, lr}
 80017b6:	af00      	add	r7, sp, #0
   RCC_APB2PeriphResetCmd(RCC_APB2Periph_SYSCFG, ENABLE);
 80017b8:	f44f 4080 	mov.w	r0, #16384	; 0x4000
 80017bc:	2101      	movs	r1, #1
 80017be:	f7ff fd9d 	bl	80012fc <RCC_APB2PeriphResetCmd>
   RCC_APB2PeriphResetCmd(RCC_APB2Periph_SYSCFG, DISABLE);
 80017c2:	f44f 4080 	mov.w	r0, #16384	; 0x4000
 80017c6:	2100      	movs	r1, #0
 80017c8:	f7ff fd98 	bl	80012fc <RCC_APB2PeriphResetCmd>
}
 80017cc:	bd80      	pop	{r7, pc}
 80017ce:	bf00      	nop

080017d0 <SYSCFG_MemoryRemapConfig>:
  *         registers. 
  *        
  * @retval None
  */
void SYSCFG_MemoryRemapConfig(uint8_t SYSCFG_MemoryRemap)
{
 80017d0:	b480      	push	{r7}
 80017d2:	b083      	sub	sp, #12
 80017d4:	af00      	add	r7, sp, #0
 80017d6:	4603      	mov	r3, r0
 80017d8:	71fb      	strb	r3, [r7, #7]
  /* Check the parameters */
  assert_param(IS_SYSCFG_MEMORY_REMAP_CONFING(SYSCFG_MemoryRemap));

  SYSCFG->MEMRMP = SYSCFG_MemoryRemap;
 80017da:	4a04      	ldr	r2, [pc, #16]	; (80017ec <SYSCFG_MemoryRemapConfig+0x1c>)
 80017dc:	79fb      	ldrb	r3, [r7, #7]
 80017de:	6013      	str	r3, [r2, #0]
}
 80017e0:	370c      	adds	r7, #12
 80017e2:	46bd      	mov	sp, r7
 80017e4:	f85d 7b04 	ldr.w	r7, [sp], #4
 80017e8:	4770      	bx	lr
 80017ea:	bf00      	nop
 80017ec:	40013800 	.word	0x40013800

080017f0 <SYSCFG_EXTILineConfig>:
  *           This parameter can be EXTI_PinSourcex where x can be (0..15, except
  *           for EXTI_PortSourceGPIOI x can be (0..11).
  * @retval None
  */
void SYSCFG_EXTILineConfig(uint8_t EXTI_PortSourceGPIOx, uint8_t EXTI_PinSourcex)
{
 80017f0:	b490      	push	{r4, r7}
 80017f2:	b084      	sub	sp, #16
 80017f4:	af00      	add	r7, sp, #0
 80017f6:	4603      	mov	r3, r0
 80017f8:	460a      	mov	r2, r1
 80017fa:	71fb      	strb	r3, [r7, #7]
 80017fc:	4613      	mov	r3, r2
 80017fe:	71bb      	strb	r3, [r7, #6]
  uint32_t tmp = 0x00;
 8001800:	2300      	movs	r3, #0
 8001802:	60fb      	str	r3, [r7, #12]

  /* Check the parameters */
  assert_param(IS_EXTI_PORT_SOURCE(EXTI_PortSourceGPIOx));
  assert_param(IS_EXTI_PIN_SOURCE(EXTI_PinSourcex));

  tmp = ((uint32_t)0x0F) << (0x04 * (EXTI_PinSourcex & (uint8_t)0x03));
 8001804:	79bb      	ldrb	r3, [r7, #6]
 8001806:	f003 0303 	and.w	r3, r3, #3
 800180a:	009b      	lsls	r3, r3, #2
 800180c:	220f      	movs	r2, #15
 800180e:	fa02 f303 	lsl.w	r3, r2, r3
 8001812:	60fb      	str	r3, [r7, #12]
  SYSCFG->EXTICR[EXTI_PinSourcex >> 0x02] &= ~tmp;
 8001814:	4916      	ldr	r1, [pc, #88]	; (8001870 <SYSCFG_EXTILineConfig+0x80>)
 8001816:	79bb      	ldrb	r3, [r7, #6]
 8001818:	089b      	lsrs	r3, r3, #2
 800181a:	b2db      	uxtb	r3, r3
 800181c:	4618      	mov	r0, r3
 800181e:	4a14      	ldr	r2, [pc, #80]	; (8001870 <SYSCFG_EXTILineConfig+0x80>)
 8001820:	79bb      	ldrb	r3, [r7, #6]
 8001822:	089b      	lsrs	r3, r3, #2
 8001824:	b2db      	uxtb	r3, r3
 8001826:	3302      	adds	r3, #2
 8001828:	f852 2023 	ldr.w	r2, [r2, r3, lsl #2]
 800182c:	68fb      	ldr	r3, [r7, #12]
 800182e:	43db      	mvns	r3, r3
 8001830:	401a      	ands	r2, r3
 8001832:	1c83      	adds	r3, r0, #2
 8001834:	f841 2023 	str.w	r2, [r1, r3, lsl #2]
  SYSCFG->EXTICR[EXTI_PinSourcex >> 0x02] |= (((uint32_t)EXTI_PortSourceGPIOx) << (0x04 * (EXTI_PinSourcex & (uint8_t)0x03)));
 8001838:	480d      	ldr	r0, [pc, #52]	; (8001870 <SYSCFG_EXTILineConfig+0x80>)
 800183a:	79bb      	ldrb	r3, [r7, #6]
 800183c:	089b      	lsrs	r3, r3, #2
 800183e:	b2db      	uxtb	r3, r3
 8001840:	461c      	mov	r4, r3
 8001842:	4a0b      	ldr	r2, [pc, #44]	; (8001870 <SYSCFG_EXTILineConfig+0x80>)
 8001844:	79bb      	ldrb	r3, [r7, #6]
 8001846:	089b      	lsrs	r3, r3, #2
 8001848:	b2db      	uxtb	r3, r3
 800184a:	3302      	adds	r3, #2
 800184c:	f852 2023 	ldr.w	r2, [r2, r3, lsl #2]
 8001850:	79f9      	ldrb	r1, [r7, #7]
 8001852:	79bb      	ldrb	r3, [r7, #6]
 8001854:	f003 0303 	and.w	r3, r3, #3
 8001858:	009b      	lsls	r3, r3, #2
 800185a:	fa01 f303 	lsl.w	r3, r1, r3
 800185e:	431a      	orrs	r2, r3
 8001860:	1ca3      	adds	r3, r4, #2
 8001862:	f840 2023 	str.w	r2, [r0, r3, lsl #2]
}
 8001866:	3710      	adds	r7, #16
 8001868:	46bd      	mov	sp, r7
 800186a:	bc90      	pop	{r4, r7}
 800186c:	4770      	bx	lr
 800186e:	bf00      	nop
 8001870:	40013800 	.word	0x40013800

08001874 <SYSCFG_ETH_MediaInterfaceConfig>:
  *            @arg SYSCFG_ETH_MediaInterface_MII: MII mode selected
  *            @arg SYSCFG_ETH_MediaInterface_RMII: RMII mode selected 
  * @retval None 
  */
void SYSCFG_ETH_MediaInterfaceConfig(uint32_t SYSCFG_ETH_MediaInterface) 
{ 
 8001874:	b480      	push	{r7}
 8001876:	b083      	sub	sp, #12
 8001878:	af00      	add	r7, sp, #0
 800187a:	6078      	str	r0, [r7, #4]
  assert_param(IS_SYSCFG_ETH_MEDIA_INTERFACE(SYSCFG_ETH_MediaInterface)); 
  /* Configure MII_RMII selection bit */ 
  *(__IO uint32_t *) PMC_MII_RMII_SEL_BB = SYSCFG_ETH_MediaInterface; 
 800187c:	4a03      	ldr	r2, [pc, #12]	; (800188c <SYSCFG_ETH_MediaInterfaceConfig+0x18>)
 800187e:	687b      	ldr	r3, [r7, #4]
 8001880:	6013      	str	r3, [r2, #0]
}
 8001882:	370c      	adds	r7, #12
 8001884:	46bd      	mov	sp, r7
 8001886:	f85d 7b04 	ldr.w	r7, [sp], #4
 800188a:	4770      	bx	lr
 800188c:	422700dc 	.word	0x422700dc

08001890 <SYSCFG_CompensationCellCmd>:
  *            @arg ENABLE: I/O compensation cell enabled  
  *            @arg DISABLE: I/O compensation cell power-down mode  
  * @retval None
  */
void SYSCFG_CompensationCellCmd(FunctionalState NewState)
{
 8001890:	b480      	push	{r7}
 8001892:	b083      	sub	sp, #12
 8001894:	af00      	add	r7, sp, #0
 8001896:	4603      	mov	r3, r0
 8001898:	71fb      	strb	r3, [r7, #7]
  /* Check the parameters */
  assert_param(IS_FUNCTIONAL_STATE(NewState));

  *(__IO uint32_t *) CMPCR_CMP_PD_BB = (uint32_t)NewState;
 800189a:	4a04      	ldr	r2, [pc, #16]	; (80018ac <SYSCFG_CompensationCellCmd+0x1c>)
 800189c:	79fb      	ldrb	r3, [r7, #7]
 800189e:	6013      	str	r3, [r2, #0]
}
 80018a0:	370c      	adds	r7, #12
 80018a2:	46bd      	mov	sp, r7
 80018a4:	f85d 7b04 	ldr.w	r7, [sp], #4
 80018a8:	4770      	bx	lr
 80018aa:	bf00      	nop
 80018ac:	42270400 	.word	0x42270400

080018b0 <SYSCFG_GetCompensationCellStatus>:
  * @brief  Checks whether the I/O Compensation Cell ready flag is set or not.
  * @param  None
  * @retval The new state of the I/O Compensation Cell ready flag (SET or RESET)
  */
FlagStatus SYSCFG_GetCompensationCellStatus(void)
{
 80018b0:	b480      	push	{r7}
 80018b2:	b083      	sub	sp, #12
 80018b4:	af00      	add	r7, sp, #0
  FlagStatus bitstatus = RESET;
 80018b6:	2300      	movs	r3, #0
 80018b8:	71fb      	strb	r3, [r7, #7]
    
  if ((SYSCFG->CMPCR & SYSCFG_CMPCR_READY ) != (uint32_t)RESET)
 80018ba:	4b09      	ldr	r3, [pc, #36]	; (80018e0 <SYSCFG_GetCompensationCellStatus+0x30>)
 80018bc:	6a1b      	ldr	r3, [r3, #32]
 80018be:	f403 7380 	and.w	r3, r3, #256	; 0x100
 80018c2:	2b00      	cmp	r3, #0
 80018c4:	d002      	beq.n	80018cc <SYSCFG_GetCompensationCellStatus+0x1c>
  {
    bitstatus = SET;
 80018c6:	2301      	movs	r3, #1
 80018c8:	71fb      	strb	r3, [r7, #7]
 80018ca:	e001      	b.n	80018d0 <SYSCFG_GetCompensationCellStatus+0x20>
  }
  else
  {
    bitstatus = RESET;
 80018cc:	2300      	movs	r3, #0
 80018ce:	71fb      	strb	r3, [r7, #7]
  }
  return bitstatus;
 80018d0:	79fb      	ldrb	r3, [r7, #7]
}
 80018d2:	4618      	mov	r0, r3
 80018d4:	370c      	adds	r7, #12
 80018d6:	46bd      	mov	sp, r7
 80018d8:	f85d 7b04 	ldr.w	r7, [sp], #4
 80018dc:	4770      	bx	lr
 80018de:	bf00      	nop
 80018e0:	40013800 	.word	0x40013800

080018e4 <GPIO_DeInit>:
  * @note   By default, The GPIO pins are configured in input floating mode (except JTAG pins).
  * @param  GPIOx: where x can be (A..I) to select the GPIO peripheral.
  * @retval None
  */
void GPIO_DeInit(GPIO_TypeDef* GPIOx)
{
 80018e4:	b580      	push	{r7, lr}
 80018e6:	b082      	sub	sp, #8
 80018e8:	af00      	add	r7, sp, #0
 80018ea:	6078      	str	r0, [r7, #4]
  /* Check the parameters */
  assert_param(IS_GPIO_ALL_PERIPH(GPIOx));

  if (GPIOx == GPIOA)
 80018ec:	687b      	ldr	r3, [r7, #4]
 80018ee:	4a3c      	ldr	r2, [pc, #240]	; (80019e0 <GPIO_DeInit+0xfc>)
 80018f0:	4293      	cmp	r3, r2
 80018f2:	d108      	bne.n	8001906 <GPIO_DeInit+0x22>
  {
    RCC_AHB1PeriphResetCmd(RCC_AHB1Periph_GPIOA, ENABLE);
 80018f4:	2001      	movs	r0, #1
 80018f6:	2101      	movs	r1, #1
 80018f8:	f7ff fc88 	bl	800120c <RCC_AHB1PeriphResetCmd>
    RCC_AHB1PeriphResetCmd(RCC_AHB1Periph_GPIOA, DISABLE);
 80018fc:	2001      	movs	r0, #1
 80018fe:	2100      	movs	r1, #0
 8001900:	f7ff fc84 	bl	800120c <RCC_AHB1PeriphResetCmd>
 8001904:	e068      	b.n	80019d8 <GPIO_DeInit+0xf4>
  }
  else if (GPIOx == GPIOB)
 8001906:	687b      	ldr	r3, [r7, #4]
 8001908:	4a36      	ldr	r2, [pc, #216]	; (80019e4 <GPIO_DeInit+0x100>)
 800190a:	4293      	cmp	r3, r2
 800190c:	d108      	bne.n	8001920 <GPIO_DeInit+0x3c>
  {
    RCC_AHB1PeriphResetCmd(RCC_AHB1Periph_GPIOB, ENABLE);
 800190e:	2002      	movs	r0, #2
 8001910:	2101      	movs	r1, #1
 8001912:	f7ff fc7b 	bl	800120c <RCC_AHB1PeriphResetCmd>
    RCC_AHB1PeriphResetCmd(RCC_AHB1Periph_GPIOB, DISABLE);
 8001916:	2002      	movs	r0, #2
 8001918:	2100      	movs	r1, #0
 800191a:	f7ff fc77 	bl	800120c <RCC_AHB1PeriphResetCmd>
 800191e:	e05b      	b.n	80019d8 <GPIO_DeInit+0xf4>
  }
  else if (GPIOx == GPIOC)
 8001920:	687b      	ldr	r3, [r7, #4]
 8001922:	4a31      	ldr	r2, [pc, #196]	; (80019e8 <GPIO_DeInit+0x104>)
 8001924:	4293      	cmp	r3, r2
 8001926:	d108      	bne.n	800193a <GPIO_DeInit+0x56>
  {
    RCC_AHB1PeriphResetCmd(RCC_AHB1Periph_GPIOC, ENABLE);
 8001928:	2004      	movs	r0, #4
 800192a:	2101      	movs	r1, #1
 800192c:	f7ff fc6e 	bl	800120c <RCC_AHB1PeriphResetCmd>
    RCC_AHB1PeriphResetCmd(RCC_AHB1Periph_GPIOC, DISABLE);
 8001930:	2004      	movs	r0, #4
 8001932:	2100      	movs	r1, #0
 8001934:	f7ff fc6a 	bl	800120c <RCC_AHB1PeriphResetCmd>
 8001938:	e04e      	b.n	80019d8 <GPIO_DeInit+0xf4>
  }
  else if (GPIOx == GPIOD)
 800193a:	687b      	ldr	r3, [r7, #4]
 800193c:	4a2b      	ldr	r2, [pc, #172]	; (80019ec <GPIO_DeInit+0x108>)
 800193e:	4293      	cmp	r3, r2
 8001940:	d108      	bne.n	8001954 <GPIO_DeInit+0x70>
  {
    RCC_AHB1PeriphResetCmd(RCC_AHB1Periph_GPIOD, ENABLE);
 8001942:	2008      	movs	r0, #8
 8001944:	2101      	movs	r1, #1
 8001946:	f7ff fc61 	bl	800120c <RCC_AHB1PeriphResetCmd>
    RCC_AHB1PeriphResetCmd(RCC_AHB1Periph_GPIOD, DISABLE);
 800194a:	2008      	movs	r0, #8
 800194c:	2100      	movs	r1, #0
 800194e:	f7ff fc5d 	bl	800120c <RCC_AHB1PeriphResetCmd>
 8001952:	e041      	b.n	80019d8 <GPIO_DeInit+0xf4>
  }
  else if (GPIOx == GPIOE)
 8001954:	687b      	ldr	r3, [r7, #4]
 8001956:	4a26      	ldr	r2, [pc, #152]	; (80019f0 <GPIO_DeInit+0x10c>)
 8001958:	4293      	cmp	r3, r2
 800195a:	d108      	bne.n	800196e <GPIO_DeInit+0x8a>
  {
    RCC_AHB1PeriphResetCmd(RCC_AHB1Periph_GPIOE, ENABLE);
 800195c:	2010      	movs	r0, #16
 800195e:	2101      	movs	r1, #1
 8001960:	f7ff fc54 	bl	800120c <RCC_AHB1PeriphResetCmd>
    RCC_AHB1PeriphResetCmd(RCC_AHB1Periph_GPIOE, DISABLE);
 8001964:	2010      	movs	r0, #16
 8001966:	2100      	movs	r1, #0
 8001968:	f7ff fc50 	bl	800120c <RCC_AHB1PeriphResetCmd>
 800196c:	e034      	b.n	80019d8 <GPIO_DeInit+0xf4>
  }
  else if (GPIOx == GPIOF)
 800196e:	687b      	ldr	r3, [r7, #4]
 8001970:	4a20      	ldr	r2, [pc, #128]	; (80019f4 <GPIO_DeInit+0x110>)
 8001972:	4293      	cmp	r3, r2
 8001974:	d108      	bne.n	8001988 <GPIO_DeInit+0xa4>
  {
    RCC_AHB1PeriphResetCmd(RCC_AHB1Periph_GPIOF, ENABLE);
 8001976:	2020      	movs	r0, #32
 8001978:	2101      	movs	r1, #1
 800197a:	f7ff fc47 	bl	800120c <RCC_AHB1PeriphResetCmd>
    RCC_AHB1PeriphResetCmd(RCC_AHB1Periph_GPIOF, DISABLE);
 800197e:	2020      	movs	r0, #32
 8001980:	2100      	movs	r1, #0
 8001982:	f7ff fc43 	bl	800120c <RCC_AHB1PeriphResetCmd>
 8001986:	e027      	b.n	80019d8 <GPIO_DeInit+0xf4>
  }
  else if (GPIOx == GPIOG)
 8001988:	687b      	ldr	r3, [r7, #4]
 800198a:	4a1b      	ldr	r2, [pc, #108]	; (80019f8 <GPIO_DeInit+0x114>)
 800198c:	4293      	cmp	r3, r2
 800198e:	d108      	bne.n	80019a2 <GPIO_DeInit+0xbe>
  {
    RCC_AHB1PeriphResetCmd(RCC_AHB1Periph_GPIOG, ENABLE);
 8001990:	2040      	movs	r0, #64	; 0x40
 8001992:	2101      	movs	r1, #1
 8001994:	f7ff fc3a 	bl	800120c <RCC_AHB1PeriphResetCmd>
    RCC_AHB1PeriphResetCmd(RCC_AHB1Periph_GPIOG, DISABLE);
 8001998:	2040      	movs	r0, #64	; 0x40
 800199a:	2100      	movs	r1, #0
 800199c:	f7ff fc36 	bl	800120c <RCC_AHB1PeriphResetCmd>
 80019a0:	e01a      	b.n	80019d8 <GPIO_DeInit+0xf4>
  }
  else if (GPIOx == GPIOH)
 80019a2:	687b      	ldr	r3, [r7, #4]
 80019a4:	4a15      	ldr	r2, [pc, #84]	; (80019fc <GPIO_DeInit+0x118>)
 80019a6:	4293      	cmp	r3, r2
 80019a8:	d108      	bne.n	80019bc <GPIO_DeInit+0xd8>
  {
    RCC_AHB1PeriphResetCmd(RCC_AHB1Periph_GPIOH, ENABLE);
 80019aa:	2080      	movs	r0, #128	; 0x80
 80019ac:	2101      	movs	r1, #1
 80019ae:	f7ff fc2d 	bl	800120c <RCC_AHB1PeriphResetCmd>
    RCC_AHB1PeriphResetCmd(RCC_AHB1Periph_GPIOH, DISABLE);
 80019b2:	2080      	movs	r0, #128	; 0x80
 80019b4:	2100      	movs	r1, #0
 80019b6:	f7ff fc29 	bl	800120c <RCC_AHB1PeriphResetCmd>
 80019ba:	e00d      	b.n	80019d8 <GPIO_DeInit+0xf4>
  }
  else
  {
    if (GPIOx == GPIOI)
 80019bc:	687b      	ldr	r3, [r7, #4]
 80019be:	4a10      	ldr	r2, [pc, #64]	; (8001a00 <GPIO_DeInit+0x11c>)
 80019c0:	4293      	cmp	r3, r2
 80019c2:	d109      	bne.n	80019d8 <GPIO_DeInit+0xf4>
    {
      RCC_AHB1PeriphResetCmd(RCC_AHB1Periph_GPIOI, ENABLE);
 80019c4:	f44f 7080 	mov.w	r0, #256	; 0x100
 80019c8:	2101      	movs	r1, #1
 80019ca:	f7ff fc1f 	bl	800120c <RCC_AHB1PeriphResetCmd>
      RCC_AHB1PeriphResetCmd(RCC_AHB1Periph_GPIOI, DISABLE);
 80019ce:	f44f 7080 	mov.w	r0, #256	; 0x100
 80019d2:	2100      	movs	r1, #0
 80019d4:	f7ff fc1a 	bl	800120c <RCC_AHB1PeriphResetCmd>
    }
  }
}
 80019d8:	3708      	adds	r7, #8
 80019da:	46bd      	mov	sp, r7
 80019dc:	bd80      	pop	{r7, pc}
 80019de:	bf00      	nop
 80019e0:	40020000 	.word	0x40020000
 80019e4:	40020400 	.word	0x40020400
 80019e8:	40020800 	.word	0x40020800
 80019ec:	40020c00 	.word	0x40020c00
 80019f0:	40021000 	.word	0x40021000
 80019f4:	40021400 	.word	0x40021400
 80019f8:	40021800 	.word	0x40021800
 80019fc:	40021c00 	.word	0x40021c00
 8001a00:	40022000 	.word	0x40022000

08001a04 <GPIO_Init>:
  * @param  GPIO_InitStruct: pointer to a GPIO_InitTypeDef structure that contains
  *         the configuration information for the specified GPIO peripheral.
  * @retval None
  */
void GPIO_Init(GPIO_TypeDef* GPIOx, GPIO_InitTypeDef* GPIO_InitStruct)
{
 8001a04:	b480      	push	{r7}
 8001a06:	b087      	sub	sp, #28
 8001a08:	af00      	add	r7, sp, #0
 8001a0a:	6078      	str	r0, [r7, #4]
 8001a0c:	6039      	str	r1, [r7, #0]
  uint32_t pinpos = 0x00, pos = 0x00 , currentpin = 0x00;
 8001a0e:	2300      	movs	r3, #0
 8001a10:	617b      	str	r3, [r7, #20]
 8001a12:	2300      	movs	r3, #0
 8001a14:	613b      	str	r3, [r7, #16]
 8001a16:	2300      	movs	r3, #0
 8001a18:	60fb      	str	r3, [r7, #12]
  assert_param(IS_GPIO_MODE(GPIO_InitStruct->GPIO_Mode));
  assert_param(IS_GPIO_PUPD(GPIO_InitStruct->GPIO_PuPd));

  /* -------------------------Configure the port pins---------------- */
  /*-- GPIO Mode Configuration --*/
  for (pinpos = 0x00; pinpos < 0x10; pinpos++)
 8001a1a:	2300      	movs	r3, #0
 8001a1c:	617b      	str	r3, [r7, #20]
 8001a1e:	e076      	b.n	8001b0e <GPIO_Init+0x10a>
  {
    pos = ((uint32_t)0x01) << pinpos;
 8001a20:	697b      	ldr	r3, [r7, #20]
 8001a22:	2201      	movs	r2, #1
 8001a24:	fa02 f303 	lsl.w	r3, r2, r3
 8001a28:	613b      	str	r3, [r7, #16]
    /* Get the port pins position */
    currentpin = (GPIO_InitStruct->GPIO_Pin) & pos;
 8001a2a:	683b      	ldr	r3, [r7, #0]
 8001a2c:	681a      	ldr	r2, [r3, #0]
 8001a2e:	693b      	ldr	r3, [r7, #16]
 8001a30:	4013      	ands	r3, r2
 8001a32:	60fb      	str	r3, [r7, #12]

    if (currentpin == pos)
 8001a34:	68fa      	ldr	r2, [r7, #12]
 8001a36:	693b      	ldr	r3, [r7, #16]
 8001a38:	429a      	cmp	r2, r3
 8001a3a:	d165      	bne.n	8001b08 <GPIO_Init+0x104>
    {
      GPIOx->MODER  &= ~(GPIO_MODER_MODER0 << (pinpos * 2));
 8001a3c:	687b      	ldr	r3, [r7, #4]
 8001a3e:	681a      	ldr	r2, [r3, #0]
 8001a40:	697b      	ldr	r3, [r7, #20]
 8001a42:	005b      	lsls	r3, r3, #1
 8001a44:	4619      	mov	r1, r3
 8001a46:	2303      	movs	r3, #3
 8001a48:	408b      	lsls	r3, r1
 8001a4a:	43db      	mvns	r3, r3
 8001a4c:	401a      	ands	r2, r3
 8001a4e:	687b      	ldr	r3, [r7, #4]
 8001a50:	601a      	str	r2, [r3, #0]
      GPIOx->MODER |= (((uint32_t)GPIO_InitStruct->GPIO_Mode) << (pinpos * 2));
 8001a52:	687b      	ldr	r3, [r7, #4]
 8001a54:	681a      	ldr	r2, [r3, #0]
 8001a56:	683b      	ldr	r3, [r7, #0]
 8001a58:	791b      	ldrb	r3, [r3, #4]
 8001a5a:	4619      	mov	r1, r3
 8001a5c:	697b      	ldr	r3, [r7, #20]
 8001a5e:	005b      	lsls	r3, r3, #1
 8001a60:	fa01 f303 	lsl.w	r3, r1, r3
 8001a64:	431a      	orrs	r2, r3
 8001a66:	687b      	ldr	r3, [r7, #4]
 8001a68:	601a      	str	r2, [r3, #0]

      if ((GPIO_InitStruct->GPIO_Mode == GPIO_Mode_OUT) || (GPIO_InitStruct->GPIO_Mode == GPIO_Mode_AF))
 8001a6a:	683b      	ldr	r3, [r7, #0]
 8001a6c:	791b      	ldrb	r3, [r3, #4]
 8001a6e:	2b01      	cmp	r3, #1
 8001a70:	d003      	beq.n	8001a7a <GPIO_Init+0x76>
 8001a72:	683b      	ldr	r3, [r7, #0]
 8001a74:	791b      	ldrb	r3, [r3, #4]
 8001a76:	2b02      	cmp	r3, #2
 8001a78:	d12e      	bne.n	8001ad8 <GPIO_Init+0xd4>
      {
        /* Check Speed mode parameters */
        assert_param(IS_GPIO_SPEED(GPIO_InitStruct->GPIO_Speed));

        /* Speed mode configuration */
        GPIOx->OSPEEDR &= ~(GPIO_OSPEEDER_OSPEEDR0 << (pinpos * 2));
 8001a7a:	687b      	ldr	r3, [r7, #4]
 8001a7c:	689a      	ldr	r2, [r3, #8]
 8001a7e:	697b      	ldr	r3, [r7, #20]
 8001a80:	005b      	lsls	r3, r3, #1
 8001a82:	4619      	mov	r1, r3
 8001a84:	2303      	movs	r3, #3
 8001a86:	408b      	lsls	r3, r1
 8001a88:	43db      	mvns	r3, r3
 8001a8a:	401a      	ands	r2, r3
 8001a8c:	687b      	ldr	r3, [r7, #4]
 8001a8e:	609a      	str	r2, [r3, #8]
        GPIOx->OSPEEDR |= ((uint32_t)(GPIO_InitStruct->GPIO_Speed) << (pinpos * 2));
 8001a90:	687b      	ldr	r3, [r7, #4]
 8001a92:	689a      	ldr	r2, [r3, #8]
 8001a94:	683b      	ldr	r3, [r7, #0]
 8001a96:	795b      	ldrb	r3, [r3, #5]
 8001a98:	4619      	mov	r1, r3
 8001a9a:	697b      	ldr	r3, [r7, #20]
 8001a9c:	005b      	lsls	r3, r3, #1
 8001a9e:	fa01 f303 	lsl.w	r3, r1, r3
 8001aa2:	431a      	orrs	r2, r3
 8001aa4:	687b      	ldr	r3, [r7, #4]
 8001aa6:	609a      	str	r2, [r3, #8]

        /* Check Output mode parameters */
        assert_param(IS_GPIO_OTYPE(GPIO_InitStruct->GPIO_OType));

        /* Output mode configuration*/
        GPIOx->OTYPER  &= ~((GPIO_OTYPER_OT_0) << ((uint16_t)pinpos)) ;
 8001aa8:	687b      	ldr	r3, [r7, #4]
 8001aaa:	685a      	ldr	r2, [r3, #4]
 8001aac:	697b      	ldr	r3, [r7, #20]
 8001aae:	b29b      	uxth	r3, r3
 8001ab0:	4619      	mov	r1, r3
 8001ab2:	2301      	movs	r3, #1
 8001ab4:	408b      	lsls	r3, r1
 8001ab6:	43db      	mvns	r3, r3
 8001ab8:	401a      	ands	r2, r3
 8001aba:	687b      	ldr	r3, [r7, #4]
 8001abc:	605a      	str	r2, [r3, #4]
        GPIOx->OTYPER |= (uint16_t)(((uint16_t)GPIO_InitStruct->GPIO_OType) << ((uint16_t)pinpos));
 8001abe:	687b      	ldr	r3, [r7, #4]
 8001ac0:	685b      	ldr	r3, [r3, #4]
 8001ac2:	683a      	ldr	r2, [r7, #0]
 8001ac4:	7992      	ldrb	r2, [r2, #6]
 8001ac6:	4611      	mov	r1, r2
 8001ac8:	697a      	ldr	r2, [r7, #20]
 8001aca:	b292      	uxth	r2, r2
 8001acc:	fa01 f202 	lsl.w	r2, r1, r2
 8001ad0:	b292      	uxth	r2, r2
 8001ad2:	431a      	orrs	r2, r3
 8001ad4:	687b      	ldr	r3, [r7, #4]
 8001ad6:	605a      	str	r2, [r3, #4]
      }

      /* Pull-up Pull down resistor configuration*/
      GPIOx->PUPDR &= ~(GPIO_PUPDR_PUPDR0 << ((uint16_t)pinpos * 2));
 8001ad8:	687b      	ldr	r3, [r7, #4]
 8001ada:	68da      	ldr	r2, [r3, #12]
 8001adc:	697b      	ldr	r3, [r7, #20]
 8001ade:	b29b      	uxth	r3, r3
 8001ae0:	005b      	lsls	r3, r3, #1
 8001ae2:	2103      	movs	r1, #3
 8001ae4:	fa01 f303 	lsl.w	r3, r1, r3
 8001ae8:	43db      	mvns	r3, r3
 8001aea:	401a      	ands	r2, r3
 8001aec:	687b      	ldr	r3, [r7, #4]
 8001aee:	60da      	str	r2, [r3, #12]
      GPIOx->PUPDR |= (((uint32_t)GPIO_InitStruct->GPIO_PuPd) << (pinpos * 2));
 8001af0:	687b      	ldr	r3, [r7, #4]
 8001af2:	68da      	ldr	r2, [r3, #12]
 8001af4:	683b      	ldr	r3, [r7, #0]
 8001af6:	79db      	ldrb	r3, [r3, #7]
 8001af8:	4619      	mov	r1, r3
 8001afa:	697b      	ldr	r3, [r7, #20]
 8001afc:	005b      	lsls	r3, r3, #1
 8001afe:	fa01 f303 	lsl.w	r3, r1, r3
 8001b02:	431a      	orrs	r2, r3
 8001b04:	687b      	ldr	r3, [r7, #4]
 8001b06:	60da      	str	r2, [r3, #12]
  assert_param(IS_GPIO_MODE(GPIO_InitStruct->GPIO_Mode));
  assert_param(IS_GPIO_PUPD(GPIO_InitStruct->GPIO_PuPd));

  /* -------------------------Configure the port pins---------------- */
  /*-- GPIO Mode Configuration --*/
  for (pinpos = 0x00; pinpos < 0x10; pinpos++)
 8001b08:	697b      	ldr	r3, [r7, #20]
 8001b0a:	3301      	adds	r3, #1
 8001b0c:	617b      	str	r3, [r7, #20]
 8001b0e:	697b      	ldr	r3, [r7, #20]
 8001b10:	2b0f      	cmp	r3, #15
 8001b12:	d985      	bls.n	8001a20 <GPIO_Init+0x1c>
      /* Pull-up Pull down resistor configuration*/
      GPIOx->PUPDR &= ~(GPIO_PUPDR_PUPDR0 << ((uint16_t)pinpos * 2));
      GPIOx->PUPDR |= (((uint32_t)GPIO_InitStruct->GPIO_PuPd) << (pinpos * 2));
    }
  }
}
 8001b14:	371c      	adds	r7, #28
 8001b16:	46bd      	mov	sp, r7
 8001b18:	f85d 7b04 	ldr.w	r7, [sp], #4
 8001b1c:	4770      	bx	lr
 8001b1e:	bf00      	nop

08001b20 <GPIO_StructInit>:
  * @brief  Fills each GPIO_InitStruct member with its default value.
  * @param  GPIO_InitStruct : pointer to a GPIO_InitTypeDef structure which will be initialized.
  * @retval None
  */
void GPIO_StructInit(GPIO_InitTypeDef* GPIO_InitStruct)
{
 8001b20:	b480      	push	{r7}
 8001b22:	b083      	sub	sp, #12
 8001b24:	af00      	add	r7, sp, #0
 8001b26:	6078      	str	r0, [r7, #4]
  /* Reset GPIO init structure parameters values */
  GPIO_InitStruct->GPIO_Pin  = GPIO_Pin_All;
 8001b28:	687b      	ldr	r3, [r7, #4]
 8001b2a:	f64f 72ff 	movw	r2, #65535	; 0xffff
 8001b2e:	601a      	str	r2, [r3, #0]
  GPIO_InitStruct->GPIO_Mode = GPIO_Mode_IN;
 8001b30:	687b      	ldr	r3, [r7, #4]
 8001b32:	2200      	movs	r2, #0
 8001b34:	711a      	strb	r2, [r3, #4]
  GPIO_InitStruct->GPIO_Speed = GPIO_Speed_2MHz;
 8001b36:	687b      	ldr	r3, [r7, #4]
 8001b38:	2200      	movs	r2, #0
 8001b3a:	715a      	strb	r2, [r3, #5]
  GPIO_InitStruct->GPIO_OType = GPIO_OType_PP;
 8001b3c:	687b      	ldr	r3, [r7, #4]
 8001b3e:	2200      	movs	r2, #0
 8001b40:	719a      	strb	r2, [r3, #6]
  GPIO_InitStruct->GPIO_PuPd = GPIO_PuPd_NOPULL;
 8001b42:	687b      	ldr	r3, [r7, #4]
 8001b44:	2200      	movs	r2, #0
 8001b46:	71da      	strb	r2, [r3, #7]
}
 8001b48:	370c      	adds	r7, #12
 8001b4a:	46bd      	mov	sp, r7
 8001b4c:	f85d 7b04 	ldr.w	r7, [sp], #4
 8001b50:	4770      	bx	lr
 8001b52:	bf00      	nop

08001b54 <GPIO_PinLockConfig>:
  * @param  GPIO_Pin: specifies the port bit to be locked.
  *          This parameter can be any combination of GPIO_Pin_x where x can be (0..15).
  * @retval None
  */
void GPIO_PinLockConfig(GPIO_TypeDef* GPIOx, uint16_t GPIO_Pin)
{
 8001b54:	b480      	push	{r7}
 8001b56:	b085      	sub	sp, #20
 8001b58:	af00      	add	r7, sp, #0
 8001b5a:	6078      	str	r0, [r7, #4]
 8001b5c:	460b      	mov	r3, r1
 8001b5e:	807b      	strh	r3, [r7, #2]
  __IO uint32_t tmp = 0x00010000;
 8001b60:	f44f 3380 	mov.w	r3, #65536	; 0x10000
 8001b64:	60fb      	str	r3, [r7, #12]

  /* Check the parameters */
  assert_param(IS_GPIO_ALL_PERIPH(GPIOx));
  assert_param(IS_GPIO_PIN(GPIO_Pin));

  tmp |= GPIO_Pin;
 8001b66:	887a      	ldrh	r2, [r7, #2]
 8001b68:	68fb      	ldr	r3, [r7, #12]
 8001b6a:	4313      	orrs	r3, r2
 8001b6c:	60fb      	str	r3, [r7, #12]
  /* Set LCKK bit */
  GPIOx->LCKR = tmp;
 8001b6e:	68fa      	ldr	r2, [r7, #12]
 8001b70:	687b      	ldr	r3, [r7, #4]
 8001b72:	61da      	str	r2, [r3, #28]
  /* Reset LCKK bit */
  GPIOx->LCKR =  GPIO_Pin;
 8001b74:	887a      	ldrh	r2, [r7, #2]
 8001b76:	687b      	ldr	r3, [r7, #4]
 8001b78:	61da      	str	r2, [r3, #28]
  /* Set LCKK bit */
  GPIOx->LCKR = tmp;
 8001b7a:	68fa      	ldr	r2, [r7, #12]
 8001b7c:	687b      	ldr	r3, [r7, #4]
 8001b7e:	61da      	str	r2, [r3, #28]
  /* Read LCKK bit*/
  tmp = GPIOx->LCKR;
 8001b80:	687b      	ldr	r3, [r7, #4]
 8001b82:	69db      	ldr	r3, [r3, #28]
 8001b84:	60fb      	str	r3, [r7, #12]
  /* Read LCKK bit*/
  tmp = GPIOx->LCKR;
 8001b86:	687b      	ldr	r3, [r7, #4]
 8001b88:	69db      	ldr	r3, [r3, #28]
 8001b8a:	60fb      	str	r3, [r7, #12]
}
 8001b8c:	3714      	adds	r7, #20
 8001b8e:	46bd      	mov	sp, r7
 8001b90:	f85d 7b04 	ldr.w	r7, [sp], #4
 8001b94:	4770      	bx	lr
 8001b96:	bf00      	nop

08001b98 <GPIO_ReadInputDataBit>:
  * @param  GPIO_Pin: specifies the port bit to read.
  *         This parameter can be GPIO_Pin_x where x can be (0..15).
  * @retval The input port pin value.
  */
uint8_t GPIO_ReadInputDataBit(GPIO_TypeDef* GPIOx, uint16_t GPIO_Pin)
{
 8001b98:	b480      	push	{r7}
 8001b9a:	b085      	sub	sp, #20
 8001b9c:	af00      	add	r7, sp, #0
 8001b9e:	6078      	str	r0, [r7, #4]
 8001ba0:	460b      	mov	r3, r1
 8001ba2:	807b      	strh	r3, [r7, #2]
  uint8_t bitstatus = 0x00;
 8001ba4:	2300      	movs	r3, #0
 8001ba6:	73fb      	strb	r3, [r7, #15]

  /* Check the parameters */
  assert_param(IS_GPIO_ALL_PERIPH(GPIOx));
  assert_param(IS_GET_GPIO_PIN(GPIO_Pin));

  if ((GPIOx->IDR & GPIO_Pin) != (uint32_t)Bit_RESET)
 8001ba8:	687b      	ldr	r3, [r7, #4]
 8001baa:	691a      	ldr	r2, [r3, #16]
 8001bac:	887b      	ldrh	r3, [r7, #2]
 8001bae:	4013      	ands	r3, r2
 8001bb0:	2b00      	cmp	r3, #0
 8001bb2:	d002      	beq.n	8001bba <GPIO_ReadInputDataBit+0x22>
  {
    bitstatus = (uint8_t)Bit_SET;
 8001bb4:	2301      	movs	r3, #1
 8001bb6:	73fb      	strb	r3, [r7, #15]
 8001bb8:	e001      	b.n	8001bbe <GPIO_ReadInputDataBit+0x26>
  }
  else
  {
    bitstatus = (uint8_t)Bit_RESET;
 8001bba:	2300      	movs	r3, #0
 8001bbc:	73fb      	strb	r3, [r7, #15]
  }
  return bitstatus;
 8001bbe:	7bfb      	ldrb	r3, [r7, #15]
}
 8001bc0:	4618      	mov	r0, r3
 8001bc2:	3714      	adds	r7, #20
 8001bc4:	46bd      	mov	sp, r7
 8001bc6:	f85d 7b04 	ldr.w	r7, [sp], #4
 8001bca:	4770      	bx	lr

08001bcc <GPIO_ReadInputData>:
  * @brief  Reads the specified GPIO input data port.
  * @param  GPIOx: where x can be (A..I) to select the GPIO peripheral.
  * @retval GPIO input data port value.
  */
uint16_t GPIO_ReadInputData(GPIO_TypeDef* GPIOx)
{
 8001bcc:	b480      	push	{r7}
 8001bce:	b083      	sub	sp, #12
 8001bd0:	af00      	add	r7, sp, #0
 8001bd2:	6078      	str	r0, [r7, #4]
  /* Check the parameters */
  assert_param(IS_GPIO_ALL_PERIPH(GPIOx));

  return ((uint16_t)GPIOx->IDR);
 8001bd4:	687b      	ldr	r3, [r7, #4]
 8001bd6:	691b      	ldr	r3, [r3, #16]
 8001bd8:	b29b      	uxth	r3, r3
}
 8001bda:	4618      	mov	r0, r3
 8001bdc:	370c      	adds	r7, #12
 8001bde:	46bd      	mov	sp, r7
 8001be0:	f85d 7b04 	ldr.w	r7, [sp], #4
 8001be4:	4770      	bx	lr
 8001be6:	bf00      	nop

08001be8 <GPIO_ReadOutputDataBit>:
  * @param  GPIO_Pin: specifies the port bit to read.
  *          This parameter can be GPIO_Pin_x where x can be (0..15).
  * @retval The output port pin value.
  */
uint8_t GPIO_ReadOutputDataBit(GPIO_TypeDef* GPIOx, uint16_t GPIO_Pin)
{
 8001be8:	b480      	push	{r7}
 8001bea:	b085      	sub	sp, #20
 8001bec:	af00      	add	r7, sp, #0
 8001bee:	6078      	str	r0, [r7, #4]
 8001bf0:	460b      	mov	r3, r1
 8001bf2:	807b      	strh	r3, [r7, #2]
  uint8_t bitstatus = 0x00;
 8001bf4:	2300      	movs	r3, #0
 8001bf6:	73fb      	strb	r3, [r7, #15]

  /* Check the parameters */
  assert_param(IS_GPIO_ALL_PERIPH(GPIOx));
  assert_param(IS_GET_GPIO_PIN(GPIO_Pin));

  if ((GPIOx->ODR & GPIO_Pin) != (uint32_t)Bit_RESET)
 8001bf8:	687b      	ldr	r3, [r7, #4]
 8001bfa:	695a      	ldr	r2, [r3, #20]
 8001bfc:	887b      	ldrh	r3, [r7, #2]
 8001bfe:	4013      	ands	r3, r2
 8001c00:	2b00      	cmp	r3, #0
 8001c02:	d002      	beq.n	8001c0a <GPIO_ReadOutputDataBit+0x22>
  {
    bitstatus = (uint8_t)Bit_SET;
 8001c04:	2301      	movs	r3, #1
 8001c06:	73fb      	strb	r3, [r7, #15]
 8001c08:	e001      	b.n	8001c0e <GPIO_ReadOutputDataBit+0x26>
  }
  else
  {
    bitstatus = (uint8_t)Bit_RESET;
 8001c0a:	2300      	movs	r3, #0
 8001c0c:	73fb      	strb	r3, [r7, #15]
  }
  return bitstatus;
 8001c0e:	7bfb      	ldrb	r3, [r7, #15]
}
 8001c10:	4618      	mov	r0, r3
 8001c12:	3714      	adds	r7, #20
 8001c14:	46bd      	mov	sp, r7
 8001c16:	f85d 7b04 	ldr.w	r7, [sp], #4
 8001c1a:	4770      	bx	lr

08001c1c <GPIO_ReadOutputData>:
  * @brief  Reads the specified GPIO output data port.
  * @param  GPIOx: where x can be (A..I) to select the GPIO peripheral.
  * @retval GPIO output data port value.
  */
uint16_t GPIO_ReadOutputData(GPIO_TypeDef* GPIOx)
{
 8001c1c:	b480      	push	{r7}
 8001c1e:	b083      	sub	sp, #12
 8001c20:	af00      	add	r7, sp, #0
 8001c22:	6078      	str	r0, [r7, #4]
  /* Check the parameters */
  assert_param(IS_GPIO_ALL_PERIPH(GPIOx));

  return ((uint16_t)GPIOx->ODR);
 8001c24:	687b      	ldr	r3, [r7, #4]
 8001c26:	695b      	ldr	r3, [r3, #20]
 8001c28:	b29b      	uxth	r3, r3
}
 8001c2a:	4618      	mov	r0, r3
 8001c2c:	370c      	adds	r7, #12
 8001c2e:	46bd      	mov	sp, r7
 8001c30:	f85d 7b04 	ldr.w	r7, [sp], #4
 8001c34:	4770      	bx	lr
 8001c36:	bf00      	nop

08001c38 <GPIO_SetBits>:
  * @param  GPIO_Pin: specifies the port bits to be written.
  *          This parameter can be any combination of GPIO_Pin_x where x can be (0..15).
  * @retval None
  */
void GPIO_SetBits(GPIO_TypeDef* GPIOx, uint16_t GPIO_Pin)
{
 8001c38:	b480      	push	{r7}
 8001c3a:	b083      	sub	sp, #12
 8001c3c:	af00      	add	r7, sp, #0
 8001c3e:	6078      	str	r0, [r7, #4]
 8001c40:	460b      	mov	r3, r1
 8001c42:	807b      	strh	r3, [r7, #2]
  /* Check the parameters */
  assert_param(IS_GPIO_ALL_PERIPH(GPIOx));
  assert_param(IS_GPIO_PIN(GPIO_Pin));

  GPIOx->BSRRL = GPIO_Pin;
 8001c44:	687b      	ldr	r3, [r7, #4]
 8001c46:	887a      	ldrh	r2, [r7, #2]
 8001c48:	831a      	strh	r2, [r3, #24]
}
 8001c4a:	370c      	adds	r7, #12
 8001c4c:	46bd      	mov	sp, r7
 8001c4e:	f85d 7b04 	ldr.w	r7, [sp], #4
 8001c52:	4770      	bx	lr

08001c54 <GPIO_ResetBits>:
  * @param  GPIO_Pin: specifies the port bits to be written.
  *          This parameter can be any combination of GPIO_Pin_x where x can be (0..15).
  * @retval None
  */
void GPIO_ResetBits(GPIO_TypeDef* GPIOx, uint16_t GPIO_Pin)
{
 8001c54:	b480      	push	{r7}
 8001c56:	b083      	sub	sp, #12
 8001c58:	af00      	add	r7, sp, #0
 8001c5a:	6078      	str	r0, [r7, #4]
 8001c5c:	460b      	mov	r3, r1
 8001c5e:	807b      	strh	r3, [r7, #2]
  /* Check the parameters */
  assert_param(IS_GPIO_ALL_PERIPH(GPIOx));
  assert_param(IS_GPIO_PIN(GPIO_Pin));

  GPIOx->BSRRH = GPIO_Pin;
 8001c60:	687b      	ldr	r3, [r7, #4]
 8001c62:	887a      	ldrh	r2, [r7, #2]
 8001c64:	835a      	strh	r2, [r3, #26]
}
 8001c66:	370c      	adds	r7, #12
 8001c68:	46bd      	mov	sp, r7
 8001c6a:	f85d 7b04 	ldr.w	r7, [sp], #4
 8001c6e:	4770      	bx	lr

08001c70 <GPIO_WriteBit>:
  *            @arg Bit_RESET: to clear the port pin
  *            @arg Bit_SET: to set the port pin
  * @retval None
  */
void GPIO_WriteBit(GPIO_TypeDef* GPIOx, uint16_t GPIO_Pin, BitAction BitVal)
{
 8001c70:	b480      	push	{r7}
 8001c72:	b083      	sub	sp, #12
 8001c74:	af00      	add	r7, sp, #0
 8001c76:	6078      	str	r0, [r7, #4]
 8001c78:	460b      	mov	r3, r1
 8001c7a:	807b      	strh	r3, [r7, #2]
 8001c7c:	4613      	mov	r3, r2
 8001c7e:	707b      	strb	r3, [r7, #1]
  /* Check the parameters */
  assert_param(IS_GPIO_ALL_PERIPH(GPIOx));
  assert_param(IS_GET_GPIO_PIN(GPIO_Pin));
  assert_param(IS_GPIO_BIT_ACTION(BitVal));

  if (BitVal != Bit_RESET)
 8001c80:	787b      	ldrb	r3, [r7, #1]
 8001c82:	2b00      	cmp	r3, #0
 8001c84:	d003      	beq.n	8001c8e <GPIO_WriteBit+0x1e>
  {
    GPIOx->BSRRL = GPIO_Pin;
 8001c86:	687b      	ldr	r3, [r7, #4]
 8001c88:	887a      	ldrh	r2, [r7, #2]
 8001c8a:	831a      	strh	r2, [r3, #24]
 8001c8c:	e002      	b.n	8001c94 <GPIO_WriteBit+0x24>
  }
  else
  {
    GPIOx->BSRRH = GPIO_Pin ;
 8001c8e:	687b      	ldr	r3, [r7, #4]
 8001c90:	887a      	ldrh	r2, [r7, #2]
 8001c92:	835a      	strh	r2, [r3, #26]
  }
}
 8001c94:	370c      	adds	r7, #12
 8001c96:	46bd      	mov	sp, r7
 8001c98:	f85d 7b04 	ldr.w	r7, [sp], #4
 8001c9c:	4770      	bx	lr
 8001c9e:	bf00      	nop

08001ca0 <GPIO_Write>:
  * @param  GPIOx: where x can be (A..I) to select the GPIO peripheral.
  * @param  PortVal: specifies the value to be written to the port output data register.
  * @retval None
  */
void GPIO_Write(GPIO_TypeDef* GPIOx, uint16_t PortVal)
{
 8001ca0:	b480      	push	{r7}
 8001ca2:	b083      	sub	sp, #12
 8001ca4:	af00      	add	r7, sp, #0
 8001ca6:	6078      	str	r0, [r7, #4]
 8001ca8:	460b      	mov	r3, r1
 8001caa:	807b      	strh	r3, [r7, #2]
  /* Check the parameters */
  assert_param(IS_GPIO_ALL_PERIPH(GPIOx));

  GPIOx->ODR = PortVal;
 8001cac:	887a      	ldrh	r2, [r7, #2]
 8001cae:	687b      	ldr	r3, [r7, #4]
 8001cb0:	615a      	str	r2, [r3, #20]
}
 8001cb2:	370c      	adds	r7, #12
 8001cb4:	46bd      	mov	sp, r7
 8001cb6:	f85d 7b04 	ldr.w	r7, [sp], #4
 8001cba:	4770      	bx	lr

08001cbc <GPIO_ToggleBits>:
  * @param  GPIOx: where x can be (A..I) to select the GPIO peripheral.
  * @param  GPIO_Pin: Specifies the pins to be toggled.
  * @retval None
  */
void GPIO_ToggleBits(GPIO_TypeDef* GPIOx, uint16_t GPIO_Pin)
{
 8001cbc:	b480      	push	{r7}
 8001cbe:	b083      	sub	sp, #12
 8001cc0:	af00      	add	r7, sp, #0
 8001cc2:	6078      	str	r0, [r7, #4]
 8001cc4:	460b      	mov	r3, r1
 8001cc6:	807b      	strh	r3, [r7, #2]
  /* Check the parameters */
  assert_param(IS_GPIO_ALL_PERIPH(GPIOx));

  GPIOx->ODR ^= GPIO_Pin;
 8001cc8:	687b      	ldr	r3, [r7, #4]
 8001cca:	695a      	ldr	r2, [r3, #20]
 8001ccc:	887b      	ldrh	r3, [r7, #2]
 8001cce:	405a      	eors	r2, r3
 8001cd0:	687b      	ldr	r3, [r7, #4]
 8001cd2:	615a      	str	r2, [r3, #20]
}
 8001cd4:	370c      	adds	r7, #12
 8001cd6:	46bd      	mov	sp, r7
 8001cd8:	f85d 7b04 	ldr.w	r7, [sp], #4
 8001cdc:	4770      	bx	lr
 8001cde:	bf00      	nop

08001ce0 <GPIO_PinAFConfig>:
  *            @arg GPIO_AF_DCMI: Connect DCMI pins to AF13
  *            @arg GPIO_AF_EVENTOUT: Connect EVENTOUT pins to AF15
  * @retval None
  */
void GPIO_PinAFConfig(GPIO_TypeDef* GPIOx, uint16_t GPIO_PinSource, uint8_t GPIO_AF)
{
 8001ce0:	b480      	push	{r7}
 8001ce2:	b085      	sub	sp, #20
 8001ce4:	af00      	add	r7, sp, #0
 8001ce6:	6078      	str	r0, [r7, #4]
 8001ce8:	460b      	mov	r3, r1
 8001cea:	807b      	strh	r3, [r7, #2]
 8001cec:	4613      	mov	r3, r2
 8001cee:	707b      	strb	r3, [r7, #1]
  uint32_t temp = 0x00;
 8001cf0:	2300      	movs	r3, #0
 8001cf2:	60fb      	str	r3, [r7, #12]
  uint32_t temp_2 = 0x00;
 8001cf4:	2300      	movs	r3, #0
 8001cf6:	60bb      	str	r3, [r7, #8]
  /* Check the parameters */
  assert_param(IS_GPIO_ALL_PERIPH(GPIOx));
  assert_param(IS_GPIO_PIN_SOURCE(GPIO_PinSource));
  assert_param(IS_GPIO_AF(GPIO_AF));
  
  temp = ((uint32_t)(GPIO_AF) << ((uint32_t)((uint32_t)GPIO_PinSource & (uint32_t)0x07) * 4)) ;
 8001cf8:	787b      	ldrb	r3, [r7, #1]
 8001cfa:	887a      	ldrh	r2, [r7, #2]
 8001cfc:	f002 0207 	and.w	r2, r2, #7
 8001d00:	0092      	lsls	r2, r2, #2
 8001d02:	4093      	lsls	r3, r2
 8001d04:	60fb      	str	r3, [r7, #12]
  GPIOx->AFR[GPIO_PinSource >> 0x03] &= ~((uint32_t)0xF << ((uint32_t)((uint32_t)GPIO_PinSource & (uint32_t)0x07) * 4)) ;
 8001d06:	887b      	ldrh	r3, [r7, #2]
 8001d08:	08db      	lsrs	r3, r3, #3
 8001d0a:	b29b      	uxth	r3, r3
 8001d0c:	4618      	mov	r0, r3
 8001d0e:	887b      	ldrh	r3, [r7, #2]
 8001d10:	08db      	lsrs	r3, r3, #3
 8001d12:	b29b      	uxth	r3, r3
 8001d14:	461a      	mov	r2, r3
 8001d16:	687b      	ldr	r3, [r7, #4]
 8001d18:	3208      	adds	r2, #8
 8001d1a:	f853 2022 	ldr.w	r2, [r3, r2, lsl #2]
 8001d1e:	887b      	ldrh	r3, [r7, #2]
 8001d20:	f003 0307 	and.w	r3, r3, #7
 8001d24:	009b      	lsls	r3, r3, #2
 8001d26:	4619      	mov	r1, r3
 8001d28:	230f      	movs	r3, #15
 8001d2a:	408b      	lsls	r3, r1
 8001d2c:	43db      	mvns	r3, r3
 8001d2e:	ea02 0103 	and.w	r1, r2, r3
 8001d32:	687b      	ldr	r3, [r7, #4]
 8001d34:	f100 0208 	add.w	r2, r0, #8
 8001d38:	f843 1022 	str.w	r1, [r3, r2, lsl #2]
  temp_2 = GPIOx->AFR[GPIO_PinSource >> 0x03] | temp;
 8001d3c:	887b      	ldrh	r3, [r7, #2]
 8001d3e:	08db      	lsrs	r3, r3, #3
 8001d40:	b29b      	uxth	r3, r3
 8001d42:	461a      	mov	r2, r3
 8001d44:	687b      	ldr	r3, [r7, #4]
 8001d46:	3208      	adds	r2, #8
 8001d48:	f853 2022 	ldr.w	r2, [r3, r2, lsl #2]
 8001d4c:	68fb      	ldr	r3, [r7, #12]
 8001d4e:	4313      	orrs	r3, r2
 8001d50:	60bb      	str	r3, [r7, #8]
  GPIOx->AFR[GPIO_PinSource >> 0x03] = temp_2;
 8001d52:	887b      	ldrh	r3, [r7, #2]
 8001d54:	08db      	lsrs	r3, r3, #3
 8001d56:	b29b      	uxth	r3, r3
 8001d58:	461a      	mov	r2, r3
 8001d5a:	687b      	ldr	r3, [r7, #4]
 8001d5c:	3208      	adds	r2, #8
 8001d5e:	68b9      	ldr	r1, [r7, #8]
 8001d60:	f843 1022 	str.w	r1, [r3, r2, lsl #2]
}
 8001d64:	3714      	adds	r7, #20
 8001d66:	46bd      	mov	sp, r7
 8001d68:	f85d 7b04 	ldr.w	r7, [sp], #4
 8001d6c:	4770      	bx	lr
 8001d6e:	bf00      	nop

08001d70 <TIM_DeInit>:
  * @param  TIMx: where x can be 1 to 14 to select the TIM peripheral.
  * @retval None

  */
void TIM_DeInit(TIM_TypeDef* TIMx)
{
 8001d70:	b580      	push	{r7, lr}
 8001d72:	b082      	sub	sp, #8
 8001d74:	af00      	add	r7, sp, #0
 8001d76:	6078      	str	r0, [r7, #4]
  /* Check the parameters */
  assert_param(IS_TIM_ALL_PERIPH(TIMx)); 
 
  if (TIMx == TIM1)
 8001d78:	687b      	ldr	r3, [r7, #4]
 8001d7a:	4a5f      	ldr	r2, [pc, #380]	; (8001ef8 <TIM_DeInit+0x188>)
 8001d7c:	4293      	cmp	r3, r2
 8001d7e:	d108      	bne.n	8001d92 <TIM_DeInit+0x22>
  {
    RCC_APB2PeriphResetCmd(RCC_APB2Periph_TIM1, ENABLE);
 8001d80:	2001      	movs	r0, #1
 8001d82:	2101      	movs	r1, #1
 8001d84:	f7ff faba 	bl	80012fc <RCC_APB2PeriphResetCmd>
    RCC_APB2PeriphResetCmd(RCC_APB2Periph_TIM1, DISABLE);  
 8001d88:	2001      	movs	r0, #1
 8001d8a:	2100      	movs	r1, #0
 8001d8c:	f7ff fab6 	bl	80012fc <RCC_APB2PeriphResetCmd>
 8001d90:	e0af      	b.n	8001ef2 <TIM_DeInit+0x182>
  } 
  else if (TIMx == TIM2) 
 8001d92:	687b      	ldr	r3, [r7, #4]
 8001d94:	f1b3 4f80 	cmp.w	r3, #1073741824	; 0x40000000
 8001d98:	d108      	bne.n	8001dac <TIM_DeInit+0x3c>
  {     
    RCC_APB1PeriphResetCmd(RCC_APB1Periph_TIM2, ENABLE);
 8001d9a:	2001      	movs	r0, #1
 8001d9c:	2101      	movs	r1, #1
 8001d9e:	f7ff fa8f 	bl	80012c0 <RCC_APB1PeriphResetCmd>
    RCC_APB1PeriphResetCmd(RCC_APB1Periph_TIM2, DISABLE);
 8001da2:	2001      	movs	r0, #1
 8001da4:	2100      	movs	r1, #0
 8001da6:	f7ff fa8b 	bl	80012c0 <RCC_APB1PeriphResetCmd>
 8001daa:	e0a2      	b.n	8001ef2 <TIM_DeInit+0x182>
  }  
  else if (TIMx == TIM3)
 8001dac:	687b      	ldr	r3, [r7, #4]
 8001dae:	4a53      	ldr	r2, [pc, #332]	; (8001efc <TIM_DeInit+0x18c>)
 8001db0:	4293      	cmp	r3, r2
 8001db2:	d108      	bne.n	8001dc6 <TIM_DeInit+0x56>
  { 
    RCC_APB1PeriphResetCmd(RCC_APB1Periph_TIM3, ENABLE);
 8001db4:	2002      	movs	r0, #2
 8001db6:	2101      	movs	r1, #1
 8001db8:	f7ff fa82 	bl	80012c0 <RCC_APB1PeriphResetCmd>
    RCC_APB1PeriphResetCmd(RCC_APB1Periph_TIM3, DISABLE);
 8001dbc:	2002      	movs	r0, #2
 8001dbe:	2100      	movs	r1, #0
 8001dc0:	f7ff fa7e 	bl	80012c0 <RCC_APB1PeriphResetCmd>
 8001dc4:	e095      	b.n	8001ef2 <TIM_DeInit+0x182>
  }  
  else if (TIMx == TIM4)
 8001dc6:	687b      	ldr	r3, [r7, #4]
 8001dc8:	4a4d      	ldr	r2, [pc, #308]	; (8001f00 <TIM_DeInit+0x190>)
 8001dca:	4293      	cmp	r3, r2
 8001dcc:	d108      	bne.n	8001de0 <TIM_DeInit+0x70>
  { 
    RCC_APB1PeriphResetCmd(RCC_APB1Periph_TIM4, ENABLE);
 8001dce:	2004      	movs	r0, #4
 8001dd0:	2101      	movs	r1, #1
 8001dd2:	f7ff fa75 	bl	80012c0 <RCC_APB1PeriphResetCmd>
    RCC_APB1PeriphResetCmd(RCC_APB1Periph_TIM4, DISABLE);
 8001dd6:	2004      	movs	r0, #4
 8001dd8:	2100      	movs	r1, #0
 8001dda:	f7ff fa71 	bl	80012c0 <RCC_APB1PeriphResetCmd>
 8001dde:	e088      	b.n	8001ef2 <TIM_DeInit+0x182>
  }  
  else if (TIMx == TIM5)
 8001de0:	687b      	ldr	r3, [r7, #4]
 8001de2:	4a48      	ldr	r2, [pc, #288]	; (8001f04 <TIM_DeInit+0x194>)
 8001de4:	4293      	cmp	r3, r2
 8001de6:	d108      	bne.n	8001dfa <TIM_DeInit+0x8a>
  {      
    RCC_APB1PeriphResetCmd(RCC_APB1Periph_TIM5, ENABLE);
 8001de8:	2008      	movs	r0, #8
 8001dea:	2101      	movs	r1, #1
 8001dec:	f7ff fa68 	bl	80012c0 <RCC_APB1PeriphResetCmd>
    RCC_APB1PeriphResetCmd(RCC_APB1Periph_TIM5, DISABLE);
 8001df0:	2008      	movs	r0, #8
 8001df2:	2100      	movs	r1, #0
 8001df4:	f7ff fa64 	bl	80012c0 <RCC_APB1PeriphResetCmd>
 8001df8:	e07b      	b.n	8001ef2 <TIM_DeInit+0x182>
  }  
  else if (TIMx == TIM6)  
 8001dfa:	687b      	ldr	r3, [r7, #4]
 8001dfc:	4a42      	ldr	r2, [pc, #264]	; (8001f08 <TIM_DeInit+0x198>)
 8001dfe:	4293      	cmp	r3, r2
 8001e00:	d108      	bne.n	8001e14 <TIM_DeInit+0xa4>
  {    
    RCC_APB1PeriphResetCmd(RCC_APB1Periph_TIM6, ENABLE);
 8001e02:	2010      	movs	r0, #16
 8001e04:	2101      	movs	r1, #1
 8001e06:	f7ff fa5b 	bl	80012c0 <RCC_APB1PeriphResetCmd>
    RCC_APB1PeriphResetCmd(RCC_APB1Periph_TIM6, DISABLE);
 8001e0a:	2010      	movs	r0, #16
 8001e0c:	2100      	movs	r1, #0
 8001e0e:	f7ff fa57 	bl	80012c0 <RCC_APB1PeriphResetCmd>
 8001e12:	e06e      	b.n	8001ef2 <TIM_DeInit+0x182>
  }  
  else if (TIMx == TIM7)
 8001e14:	687b      	ldr	r3, [r7, #4]
 8001e16:	4a3d      	ldr	r2, [pc, #244]	; (8001f0c <TIM_DeInit+0x19c>)
 8001e18:	4293      	cmp	r3, r2
 8001e1a:	d108      	bne.n	8001e2e <TIM_DeInit+0xbe>
  {      
    RCC_APB1PeriphResetCmd(RCC_APB1Periph_TIM7, ENABLE);
 8001e1c:	2020      	movs	r0, #32
 8001e1e:	2101      	movs	r1, #1
 8001e20:	f7ff fa4e 	bl	80012c0 <RCC_APB1PeriphResetCmd>
    RCC_APB1PeriphResetCmd(RCC_APB1Periph_TIM7, DISABLE);
 8001e24:	2020      	movs	r0, #32
 8001e26:	2100      	movs	r1, #0
 8001e28:	f7ff fa4a 	bl	80012c0 <RCC_APB1PeriphResetCmd>
 8001e2c:	e061      	b.n	8001ef2 <TIM_DeInit+0x182>
  }  
  else if (TIMx == TIM8)
 8001e2e:	687b      	ldr	r3, [r7, #4]
 8001e30:	4a37      	ldr	r2, [pc, #220]	; (8001f10 <TIM_DeInit+0x1a0>)
 8001e32:	4293      	cmp	r3, r2
 8001e34:	d108      	bne.n	8001e48 <TIM_DeInit+0xd8>
  {      
    RCC_APB2PeriphResetCmd(RCC_APB2Periph_TIM8, ENABLE);
 8001e36:	2002      	movs	r0, #2
 8001e38:	2101      	movs	r1, #1
 8001e3a:	f7ff fa5f 	bl	80012fc <RCC_APB2PeriphResetCmd>
    RCC_APB2PeriphResetCmd(RCC_APB2Periph_TIM8, DISABLE);  
 8001e3e:	2002      	movs	r0, #2
 8001e40:	2100      	movs	r1, #0
 8001e42:	f7ff fa5b 	bl	80012fc <RCC_APB2PeriphResetCmd>
 8001e46:	e054      	b.n	8001ef2 <TIM_DeInit+0x182>
  }  
  else if (TIMx == TIM9)
 8001e48:	687b      	ldr	r3, [r7, #4]
 8001e4a:	4a32      	ldr	r2, [pc, #200]	; (8001f14 <TIM_DeInit+0x1a4>)
 8001e4c:	4293      	cmp	r3, r2
 8001e4e:	d10a      	bne.n	8001e66 <TIM_DeInit+0xf6>
  {      
    RCC_APB2PeriphResetCmd(RCC_APB2Periph_TIM9, ENABLE);
 8001e50:	f44f 3080 	mov.w	r0, #65536	; 0x10000
 8001e54:	2101      	movs	r1, #1
 8001e56:	f7ff fa51 	bl	80012fc <RCC_APB2PeriphResetCmd>
    RCC_APB2PeriphResetCmd(RCC_APB2Periph_TIM9, DISABLE);  
 8001e5a:	f44f 3080 	mov.w	r0, #65536	; 0x10000
 8001e5e:	2100      	movs	r1, #0
 8001e60:	f7ff fa4c 	bl	80012fc <RCC_APB2PeriphResetCmd>
 8001e64:	e045      	b.n	8001ef2 <TIM_DeInit+0x182>
   }  
  else if (TIMx == TIM10)
 8001e66:	687b      	ldr	r3, [r7, #4]
 8001e68:	4a2b      	ldr	r2, [pc, #172]	; (8001f18 <TIM_DeInit+0x1a8>)
 8001e6a:	4293      	cmp	r3, r2
 8001e6c:	d10a      	bne.n	8001e84 <TIM_DeInit+0x114>
  {      
    RCC_APB2PeriphResetCmd(RCC_APB2Periph_TIM10, ENABLE);
 8001e6e:	f44f 3000 	mov.w	r0, #131072	; 0x20000
 8001e72:	2101      	movs	r1, #1
 8001e74:	f7ff fa42 	bl	80012fc <RCC_APB2PeriphResetCmd>
    RCC_APB2PeriphResetCmd(RCC_APB2Periph_TIM10, DISABLE);  
 8001e78:	f44f 3000 	mov.w	r0, #131072	; 0x20000
 8001e7c:	2100      	movs	r1, #0
 8001e7e:	f7ff fa3d 	bl	80012fc <RCC_APB2PeriphResetCmd>
 8001e82:	e036      	b.n	8001ef2 <TIM_DeInit+0x182>
  }  
  else if (TIMx == TIM11) 
 8001e84:	687b      	ldr	r3, [r7, #4]
 8001e86:	4a25      	ldr	r2, [pc, #148]	; (8001f1c <TIM_DeInit+0x1ac>)
 8001e88:	4293      	cmp	r3, r2
 8001e8a:	d10a      	bne.n	8001ea2 <TIM_DeInit+0x132>
  {     
    RCC_APB2PeriphResetCmd(RCC_APB2Periph_TIM11, ENABLE);
 8001e8c:	f44f 2080 	mov.w	r0, #262144	; 0x40000
 8001e90:	2101      	movs	r1, #1
 8001e92:	f7ff fa33 	bl	80012fc <RCC_APB2PeriphResetCmd>
    RCC_APB2PeriphResetCmd(RCC_APB2Periph_TIM11, DISABLE);  
 8001e96:	f44f 2080 	mov.w	r0, #262144	; 0x40000
 8001e9a:	2100      	movs	r1, #0
 8001e9c:	f7ff fa2e 	bl	80012fc <RCC_APB2PeriphResetCmd>
 8001ea0:	e027      	b.n	8001ef2 <TIM_DeInit+0x182>
  }  
  else if (TIMx == TIM12)
 8001ea2:	687b      	ldr	r3, [r7, #4]
 8001ea4:	4a1e      	ldr	r2, [pc, #120]	; (8001f20 <TIM_DeInit+0x1b0>)
 8001ea6:	4293      	cmp	r3, r2
 8001ea8:	d108      	bne.n	8001ebc <TIM_DeInit+0x14c>
  {      
    RCC_APB1PeriphResetCmd(RCC_APB1Periph_TIM12, ENABLE);
 8001eaa:	2040      	movs	r0, #64	; 0x40
 8001eac:	2101      	movs	r1, #1
 8001eae:	f7ff fa07 	bl	80012c0 <RCC_APB1PeriphResetCmd>
    RCC_APB1PeriphResetCmd(RCC_APB1Periph_TIM12, DISABLE);  
 8001eb2:	2040      	movs	r0, #64	; 0x40
 8001eb4:	2100      	movs	r1, #0
 8001eb6:	f7ff fa03 	bl	80012c0 <RCC_APB1PeriphResetCmd>
 8001eba:	e01a      	b.n	8001ef2 <TIM_DeInit+0x182>
  }  
  else if (TIMx == TIM13) 
 8001ebc:	687b      	ldr	r3, [r7, #4]
 8001ebe:	4a19      	ldr	r2, [pc, #100]	; (8001f24 <TIM_DeInit+0x1b4>)
 8001ec0:	4293      	cmp	r3, r2
 8001ec2:	d108      	bne.n	8001ed6 <TIM_DeInit+0x166>
  {       
    RCC_APB1PeriphResetCmd(RCC_APB1Periph_TIM13, ENABLE);
 8001ec4:	2080      	movs	r0, #128	; 0x80
 8001ec6:	2101      	movs	r1, #1
 8001ec8:	f7ff f9fa 	bl	80012c0 <RCC_APB1PeriphResetCmd>
    RCC_APB1PeriphResetCmd(RCC_APB1Periph_TIM13, DISABLE);  
 8001ecc:	2080      	movs	r0, #128	; 0x80
 8001ece:	2100      	movs	r1, #0
 8001ed0:	f7ff f9f6 	bl	80012c0 <RCC_APB1PeriphResetCmd>
 8001ed4:	e00d      	b.n	8001ef2 <TIM_DeInit+0x182>
  }  
  else
  { 
    if (TIMx == TIM14) 
 8001ed6:	687b      	ldr	r3, [r7, #4]
 8001ed8:	4a13      	ldr	r2, [pc, #76]	; (8001f28 <TIM_DeInit+0x1b8>)
 8001eda:	4293      	cmp	r3, r2
 8001edc:	d109      	bne.n	8001ef2 <TIM_DeInit+0x182>
    {     
      RCC_APB1PeriphResetCmd(RCC_APB1Periph_TIM14, ENABLE);
 8001ede:	f44f 7080 	mov.w	r0, #256	; 0x100
 8001ee2:	2101      	movs	r1, #1
 8001ee4:	f7ff f9ec 	bl	80012c0 <RCC_APB1PeriphResetCmd>
      RCC_APB1PeriphResetCmd(RCC_APB1Periph_TIM14, DISABLE); 
 8001ee8:	f44f 7080 	mov.w	r0, #256	; 0x100
 8001eec:	2100      	movs	r1, #0
 8001eee:	f7ff f9e7 	bl	80012c0 <RCC_APB1PeriphResetCmd>
    }   
  }
}
 8001ef2:	3708      	adds	r7, #8
 8001ef4:	46bd      	mov	sp, r7
 8001ef6:	bd80      	pop	{r7, pc}
 8001ef8:	40010000 	.word	0x40010000
 8001efc:	40000400 	.word	0x40000400
 8001f00:	40000800 	.word	0x40000800
 8001f04:	40000c00 	.word	0x40000c00
 8001f08:	40001000 	.word	0x40001000
 8001f0c:	40001400 	.word	0x40001400
 8001f10:	40010400 	.word	0x40010400
 8001f14:	40014000 	.word	0x40014000
 8001f18:	40014400 	.word	0x40014400
 8001f1c:	40014800 	.word	0x40014800
 8001f20:	40001800 	.word	0x40001800
 8001f24:	40001c00 	.word	0x40001c00
 8001f28:	40002000 	.word	0x40002000

08001f2c <TIM_TimeBaseInit>:
  * @param  TIM_TimeBaseInitStruct: pointer to a TIM_TimeBaseInitTypeDef structure
  *         that contains the configuration information for the specified TIM peripheral.
  * @retval None
  */
void TIM_TimeBaseInit(TIM_TypeDef* TIMx, TIM_TimeBaseInitTypeDef* TIM_TimeBaseInitStruct)
{
 8001f2c:	b480      	push	{r7}
 8001f2e:	b085      	sub	sp, #20
 8001f30:	af00      	add	r7, sp, #0
 8001f32:	6078      	str	r0, [r7, #4]
 8001f34:	6039      	str	r1, [r7, #0]
  uint16_t tmpcr1 = 0;
 8001f36:	2300      	movs	r3, #0
 8001f38:	81fb      	strh	r3, [r7, #14]
  /* Check the parameters */
  assert_param(IS_TIM_ALL_PERIPH(TIMx)); 
  assert_param(IS_TIM_COUNTER_MODE(TIM_TimeBaseInitStruct->TIM_CounterMode));
  assert_param(IS_TIM_CKD_DIV(TIM_TimeBaseInitStruct->TIM_ClockDivision));

  tmpcr1 = TIMx->CR1;  
 8001f3a:	687b      	ldr	r3, [r7, #4]
 8001f3c:	881b      	ldrh	r3, [r3, #0]
 8001f3e:	81fb      	strh	r3, [r7, #14]

  if((TIMx == TIM1) || (TIMx == TIM8)||
 8001f40:	687b      	ldr	r3, [r7, #4]
 8001f42:	4a28      	ldr	r2, [pc, #160]	; (8001fe4 <TIM_TimeBaseInit+0xb8>)
 8001f44:	4293      	cmp	r3, r2
 8001f46:	d013      	beq.n	8001f70 <TIM_TimeBaseInit+0x44>
 8001f48:	687b      	ldr	r3, [r7, #4]
 8001f4a:	4a27      	ldr	r2, [pc, #156]	; (8001fe8 <TIM_TimeBaseInit+0xbc>)
 8001f4c:	4293      	cmp	r3, r2
 8001f4e:	d00f      	beq.n	8001f70 <TIM_TimeBaseInit+0x44>
 8001f50:	687b      	ldr	r3, [r7, #4]
 8001f52:	f1b3 4f80 	cmp.w	r3, #1073741824	; 0x40000000
 8001f56:	d00b      	beq.n	8001f70 <TIM_TimeBaseInit+0x44>
     (TIMx == TIM2) || (TIMx == TIM3)||
 8001f58:	687b      	ldr	r3, [r7, #4]
 8001f5a:	4a24      	ldr	r2, [pc, #144]	; (8001fec <TIM_TimeBaseInit+0xc0>)
 8001f5c:	4293      	cmp	r3, r2
 8001f5e:	d007      	beq.n	8001f70 <TIM_TimeBaseInit+0x44>
 8001f60:	687b      	ldr	r3, [r7, #4]
 8001f62:	4a23      	ldr	r2, [pc, #140]	; (8001ff0 <TIM_TimeBaseInit+0xc4>)
 8001f64:	4293      	cmp	r3, r2
 8001f66:	d003      	beq.n	8001f70 <TIM_TimeBaseInit+0x44>
     (TIMx == TIM4) || (TIMx == TIM5)) 
 8001f68:	687b      	ldr	r3, [r7, #4]
 8001f6a:	4a22      	ldr	r2, [pc, #136]	; (8001ff4 <TIM_TimeBaseInit+0xc8>)
 8001f6c:	4293      	cmp	r3, r2
 8001f6e:	d108      	bne.n	8001f82 <TIM_TimeBaseInit+0x56>
  {
    /* Select the Counter Mode */
    tmpcr1 &= (uint16_t)(~(TIM_CR1_DIR | TIM_CR1_CMS));
 8001f70:	89fb      	ldrh	r3, [r7, #14]
 8001f72:	f023 0370 	bic.w	r3, r3, #112	; 0x70
 8001f76:	81fb      	strh	r3, [r7, #14]
    tmpcr1 |= (uint32_t)TIM_TimeBaseInitStruct->TIM_CounterMode;
 8001f78:	683b      	ldr	r3, [r7, #0]
 8001f7a:	885a      	ldrh	r2, [r3, #2]
 8001f7c:	89fb      	ldrh	r3, [r7, #14]
 8001f7e:	4313      	orrs	r3, r2
 8001f80:	81fb      	strh	r3, [r7, #14]
  }
 
  if((TIMx != TIM6) && (TIMx != TIM7))
 8001f82:	687b      	ldr	r3, [r7, #4]
 8001f84:	4a1c      	ldr	r2, [pc, #112]	; (8001ff8 <TIM_TimeBaseInit+0xcc>)
 8001f86:	4293      	cmp	r3, r2
 8001f88:	d00c      	beq.n	8001fa4 <TIM_TimeBaseInit+0x78>
 8001f8a:	687b      	ldr	r3, [r7, #4]
 8001f8c:	4a1b      	ldr	r2, [pc, #108]	; (8001ffc <TIM_TimeBaseInit+0xd0>)
 8001f8e:	4293      	cmp	r3, r2
 8001f90:	d008      	beq.n	8001fa4 <TIM_TimeBaseInit+0x78>
  {
    /* Set the clock division */
    tmpcr1 &=  (uint16_t)(~TIM_CR1_CKD);
 8001f92:	89fb      	ldrh	r3, [r7, #14]
 8001f94:	f423 7340 	bic.w	r3, r3, #768	; 0x300
 8001f98:	81fb      	strh	r3, [r7, #14]
    tmpcr1 |= (uint32_t)TIM_TimeBaseInitStruct->TIM_ClockDivision;
 8001f9a:	683b      	ldr	r3, [r7, #0]
 8001f9c:	891a      	ldrh	r2, [r3, #8]
 8001f9e:	89fb      	ldrh	r3, [r7, #14]
 8001fa0:	4313      	orrs	r3, r2
 8001fa2:	81fb      	strh	r3, [r7, #14]
  }

  TIMx->CR1 = tmpcr1;
 8001fa4:	687b      	ldr	r3, [r7, #4]
 8001fa6:	89fa      	ldrh	r2, [r7, #14]
 8001fa8:	801a      	strh	r2, [r3, #0]

  /* Set the Autoreload value */
  TIMx->ARR = TIM_TimeBaseInitStruct->TIM_Period ;
 8001faa:	683b      	ldr	r3, [r7, #0]
 8001fac:	685a      	ldr	r2, [r3, #4]
 8001fae:	687b      	ldr	r3, [r7, #4]
 8001fb0:	62da      	str	r2, [r3, #44]	; 0x2c
 
  /* Set the Prescaler value */
  TIMx->PSC = TIM_TimeBaseInitStruct->TIM_Prescaler;
 8001fb2:	683b      	ldr	r3, [r7, #0]
 8001fb4:	881a      	ldrh	r2, [r3, #0]
 8001fb6:	687b      	ldr	r3, [r7, #4]
 8001fb8:	851a      	strh	r2, [r3, #40]	; 0x28
    
  if ((TIMx == TIM1) || (TIMx == TIM8))  
 8001fba:	687b      	ldr	r3, [r7, #4]
 8001fbc:	4a09      	ldr	r2, [pc, #36]	; (8001fe4 <TIM_TimeBaseInit+0xb8>)
 8001fbe:	4293      	cmp	r3, r2
 8001fc0:	d003      	beq.n	8001fca <TIM_TimeBaseInit+0x9e>
 8001fc2:	687b      	ldr	r3, [r7, #4]
 8001fc4:	4a08      	ldr	r2, [pc, #32]	; (8001fe8 <TIM_TimeBaseInit+0xbc>)
 8001fc6:	4293      	cmp	r3, r2
 8001fc8:	d104      	bne.n	8001fd4 <TIM_TimeBaseInit+0xa8>
  {
    /* Set the Repetition Counter value */
    TIMx->RCR = TIM_TimeBaseInitStruct->TIM_RepetitionCounter;
 8001fca:	683b      	ldr	r3, [r7, #0]
 8001fcc:	7a9b      	ldrb	r3, [r3, #10]
 8001fce:	b29a      	uxth	r2, r3
 8001fd0:	687b      	ldr	r3, [r7, #4]
 8001fd2:	861a      	strh	r2, [r3, #48]	; 0x30
  }

  /* Generate an update event to reload the Prescaler 
     and the repetition counter(only for TIM1 and TIM8) value immediatly */
  TIMx->EGR = TIM_PSCReloadMode_Immediate;          
 8001fd4:	687b      	ldr	r3, [r7, #4]
 8001fd6:	2201      	movs	r2, #1
 8001fd8:	829a      	strh	r2, [r3, #20]
}
 8001fda:	3714      	adds	r7, #20
 8001fdc:	46bd      	mov	sp, r7
 8001fde:	f85d 7b04 	ldr.w	r7, [sp], #4
 8001fe2:	4770      	bx	lr
 8001fe4:	40010000 	.word	0x40010000
 8001fe8:	40010400 	.word	0x40010400
 8001fec:	40000400 	.word	0x40000400
 8001ff0:	40000800 	.word	0x40000800
 8001ff4:	40000c00 	.word	0x40000c00
 8001ff8:	40001000 	.word	0x40001000
 8001ffc:	40001400 	.word	0x40001400

08002000 <TIM_TimeBaseStructInit>:
  * @param  TIM_TimeBaseInitStruct : pointer to a TIM_TimeBaseInitTypeDef
  *         structure which will be initialized.
  * @retval None
  */
void TIM_TimeBaseStructInit(TIM_TimeBaseInitTypeDef* TIM_TimeBaseInitStruct)
{
 8002000:	b480      	push	{r7}
 8002002:	b083      	sub	sp, #12
 8002004:	af00      	add	r7, sp, #0
 8002006:	6078      	str	r0, [r7, #4]
  /* Set the default configuration */
  TIM_TimeBaseInitStruct->TIM_Period = 0xFFFFFFFF;
 8002008:	687b      	ldr	r3, [r7, #4]
 800200a:	f04f 32ff 	mov.w	r2, #4294967295	; 0xffffffff
 800200e:	605a      	str	r2, [r3, #4]
  TIM_TimeBaseInitStruct->TIM_Prescaler = 0x0000;
 8002010:	687b      	ldr	r3, [r7, #4]
 8002012:	2200      	movs	r2, #0
 8002014:	801a      	strh	r2, [r3, #0]
  TIM_TimeBaseInitStruct->TIM_ClockDivision = TIM_CKD_DIV1;
 8002016:	687b      	ldr	r3, [r7, #4]
 8002018:	2200      	movs	r2, #0
 800201a:	811a      	strh	r2, [r3, #8]
  TIM_TimeBaseInitStruct->TIM_CounterMode = TIM_CounterMode_Up;
 800201c:	687b      	ldr	r3, [r7, #4]
 800201e:	2200      	movs	r2, #0
 8002020:	805a      	strh	r2, [r3, #2]
  TIM_TimeBaseInitStruct->TIM_RepetitionCounter = 0x0000;
 8002022:	687b      	ldr	r3, [r7, #4]
 8002024:	2200      	movs	r2, #0
 8002026:	729a      	strb	r2, [r3, #10]
}
 8002028:	370c      	adds	r7, #12
 800202a:	46bd      	mov	sp, r7
 800202c:	f85d 7b04 	ldr.w	r7, [sp], #4
 8002030:	4770      	bx	lr
 8002032:	bf00      	nop

08002034 <TIM_PrescalerConfig>:
  *            @arg TIM_PSCReloadMode_Update: The Prescaler is loaded at the update event.
  *            @arg TIM_PSCReloadMode_Immediate: The Prescaler is loaded immediatly.
  * @retval None
  */
void TIM_PrescalerConfig(TIM_TypeDef* TIMx, uint16_t Prescaler, uint16_t TIM_PSCReloadMode)
{
 8002034:	b480      	push	{r7}
 8002036:	b083      	sub	sp, #12
 8002038:	af00      	add	r7, sp, #0
 800203a:	6078      	str	r0, [r7, #4]
 800203c:	460b      	mov	r3, r1
 800203e:	807b      	strh	r3, [r7, #2]
 8002040:	4613      	mov	r3, r2
 8002042:	803b      	strh	r3, [r7, #0]
  /* Check the parameters */
  assert_param(IS_TIM_ALL_PERIPH(TIMx));
  assert_param(IS_TIM_PRESCALER_RELOAD(TIM_PSCReloadMode));
  /* Set the Prescaler value */
  TIMx->PSC = Prescaler;
 8002044:	687b      	ldr	r3, [r7, #4]
 8002046:	887a      	ldrh	r2, [r7, #2]
 8002048:	851a      	strh	r2, [r3, #40]	; 0x28
  /* Set or reset the UG Bit */
  TIMx->EGR = TIM_PSCReloadMode;
 800204a:	687b      	ldr	r3, [r7, #4]
 800204c:	883a      	ldrh	r2, [r7, #0]
 800204e:	829a      	strh	r2, [r3, #20]
}
 8002050:	370c      	adds	r7, #12
 8002052:	46bd      	mov	sp, r7
 8002054:	f85d 7b04 	ldr.w	r7, [sp], #4
 8002058:	4770      	bx	lr
 800205a:	bf00      	nop

0800205c <TIM_CounterModeConfig>:
  *            @arg TIM_CounterMode_CenterAligned2: TIM Center Aligned Mode2
  *            @arg TIM_CounterMode_CenterAligned3: TIM Center Aligned Mode3
  * @retval None
  */
void TIM_CounterModeConfig(TIM_TypeDef* TIMx, uint16_t TIM_CounterMode)
{
 800205c:	b480      	push	{r7}
 800205e:	b085      	sub	sp, #20
 8002060:	af00      	add	r7, sp, #0
 8002062:	6078      	str	r0, [r7, #4]
 8002064:	460b      	mov	r3, r1
 8002066:	807b      	strh	r3, [r7, #2]
  uint16_t tmpcr1 = 0;
 8002068:	2300      	movs	r3, #0
 800206a:	81fb      	strh	r3, [r7, #14]

  /* Check the parameters */
  assert_param(IS_TIM_LIST3_PERIPH(TIMx));
  assert_param(IS_TIM_COUNTER_MODE(TIM_CounterMode));

  tmpcr1 = TIMx->CR1;
 800206c:	687b      	ldr	r3, [r7, #4]
 800206e:	881b      	ldrh	r3, [r3, #0]
 8002070:	81fb      	strh	r3, [r7, #14]

  /* Reset the CMS and DIR Bits */
  tmpcr1 &= (uint16_t)~(TIM_CR1_DIR | TIM_CR1_CMS);
 8002072:	89fb      	ldrh	r3, [r7, #14]
 8002074:	f023 0370 	bic.w	r3, r3, #112	; 0x70
 8002078:	81fb      	strh	r3, [r7, #14]

  /* Set the Counter Mode */
  tmpcr1 |= TIM_CounterMode;
 800207a:	89fa      	ldrh	r2, [r7, #14]
 800207c:	887b      	ldrh	r3, [r7, #2]
 800207e:	4313      	orrs	r3, r2
 8002080:	81fb      	strh	r3, [r7, #14]

  /* Write to TIMx CR1 register */
  TIMx->CR1 = tmpcr1;
 8002082:	687b      	ldr	r3, [r7, #4]
 8002084:	89fa      	ldrh	r2, [r7, #14]
 8002086:	801a      	strh	r2, [r3, #0]
}
 8002088:	3714      	adds	r7, #20
 800208a:	46bd      	mov	sp, r7
 800208c:	f85d 7b04 	ldr.w	r7, [sp], #4
 8002090:	4770      	bx	lr
 8002092:	bf00      	nop

08002094 <TIM_SetCounter>:
  * @param  TIMx: where x can be 1 to 14 to select the TIM peripheral.
  * @param  Counter: specifies the Counter register new value.
  * @retval None
  */
void TIM_SetCounter(TIM_TypeDef* TIMx, uint32_t Counter)
{
 8002094:	b480      	push	{r7}
 8002096:	b083      	sub	sp, #12
 8002098:	af00      	add	r7, sp, #0
 800209a:	6078      	str	r0, [r7, #4]
 800209c:	6039      	str	r1, [r7, #0]
  /* Check the parameters */
   assert_param(IS_TIM_ALL_PERIPH(TIMx));

  /* Set the Counter Register value */
  TIMx->CNT = Counter;
 800209e:	687b      	ldr	r3, [r7, #4]
 80020a0:	683a      	ldr	r2, [r7, #0]
 80020a2:	625a      	str	r2, [r3, #36]	; 0x24
}
 80020a4:	370c      	adds	r7, #12
 80020a6:	46bd      	mov	sp, r7
 80020a8:	f85d 7b04 	ldr.w	r7, [sp], #4
 80020ac:	4770      	bx	lr
 80020ae:	bf00      	nop

080020b0 <TIM_SetAutoreload>:
  * @param  TIMx: where x can be 1 to 14 to select the TIM peripheral.
  * @param  Autoreload: specifies the Autoreload register new value.
  * @retval None
  */
void TIM_SetAutoreload(TIM_TypeDef* TIMx, uint32_t Autoreload)
{
 80020b0:	b480      	push	{r7}
 80020b2:	b083      	sub	sp, #12
 80020b4:	af00      	add	r7, sp, #0
 80020b6:	6078      	str	r0, [r7, #4]
 80020b8:	6039      	str	r1, [r7, #0]
  /* Check the parameters */
  assert_param(IS_TIM_ALL_PERIPH(TIMx));
  
  /* Set the Autoreload Register value */
  TIMx->ARR = Autoreload;
 80020ba:	687b      	ldr	r3, [r7, #4]
 80020bc:	683a      	ldr	r2, [r7, #0]
 80020be:	62da      	str	r2, [r3, #44]	; 0x2c
}
 80020c0:	370c      	adds	r7, #12
 80020c2:	46bd      	mov	sp, r7
 80020c4:	f85d 7b04 	ldr.w	r7, [sp], #4
 80020c8:	4770      	bx	lr
 80020ca:	bf00      	nop

080020cc <TIM_GetCounter>:
  * @brief  Gets the TIMx Counter value.
  * @param  TIMx: where x can be 1 to 14 to select the TIM peripheral.
  * @retval Counter Register value
  */
uint32_t TIM_GetCounter(TIM_TypeDef* TIMx)
{
 80020cc:	b480      	push	{r7}
 80020ce:	b083      	sub	sp, #12
 80020d0:	af00      	add	r7, sp, #0
 80020d2:	6078      	str	r0, [r7, #4]
  /* Check the parameters */
  assert_param(IS_TIM_ALL_PERIPH(TIMx));

  /* Get the Counter Register value */
  return TIMx->CNT;
 80020d4:	687b      	ldr	r3, [r7, #4]
 80020d6:	6a5b      	ldr	r3, [r3, #36]	; 0x24
}
 80020d8:	4618      	mov	r0, r3
 80020da:	370c      	adds	r7, #12
 80020dc:	46bd      	mov	sp, r7
 80020de:	f85d 7b04 	ldr.w	r7, [sp], #4
 80020e2:	4770      	bx	lr

080020e4 <TIM_GetPrescaler>:
  * @brief  Gets the TIMx Prescaler value.
  * @param  TIMx: where x can be 1 to 14 to select the TIM peripheral.
  * @retval Prescaler Register value.
  */
uint16_t TIM_GetPrescaler(TIM_TypeDef* TIMx)
{
 80020e4:	b480      	push	{r7}
 80020e6:	b083      	sub	sp, #12
 80020e8:	af00      	add	r7, sp, #0
 80020ea:	6078      	str	r0, [r7, #4]
  /* Check the parameters */
  assert_param(IS_TIM_ALL_PERIPH(TIMx));

  /* Get the Prescaler Register value */
  return TIMx->PSC;
 80020ec:	687b      	ldr	r3, [r7, #4]
 80020ee:	8d1b      	ldrh	r3, [r3, #40]	; 0x28
 80020f0:	b29b      	uxth	r3, r3
}
 80020f2:	4618      	mov	r0, r3
 80020f4:	370c      	adds	r7, #12
 80020f6:	46bd      	mov	sp, r7
 80020f8:	f85d 7b04 	ldr.w	r7, [sp], #4
 80020fc:	4770      	bx	lr
 80020fe:	bf00      	nop

08002100 <TIM_UpdateDisableConfig>:
  * @param  NewState: new state of the TIMx UDIS bit
  *          This parameter can be: ENABLE or DISABLE.
  * @retval None
  */
void TIM_UpdateDisableConfig(TIM_TypeDef* TIMx, FunctionalState NewState)
{
 8002100:	b480      	push	{r7}
 8002102:	b083      	sub	sp, #12
 8002104:	af00      	add	r7, sp, #0
 8002106:	6078      	str	r0, [r7, #4]
 8002108:	460b      	mov	r3, r1
 800210a:	70fb      	strb	r3, [r7, #3]
  /* Check the parameters */
  assert_param(IS_TIM_ALL_PERIPH(TIMx));
  assert_param(IS_FUNCTIONAL_STATE(NewState));

  if (NewState != DISABLE)
 800210c:	78fb      	ldrb	r3, [r7, #3]
 800210e:	2b00      	cmp	r3, #0
 8002110:	d008      	beq.n	8002124 <TIM_UpdateDisableConfig+0x24>
  {
    /* Set the Update Disable Bit */
    TIMx->CR1 |= TIM_CR1_UDIS;
 8002112:	687b      	ldr	r3, [r7, #4]
 8002114:	881b      	ldrh	r3, [r3, #0]
 8002116:	b29b      	uxth	r3, r3
 8002118:	f043 0302 	orr.w	r3, r3, #2
 800211c:	b29a      	uxth	r2, r3
 800211e:	687b      	ldr	r3, [r7, #4]
 8002120:	801a      	strh	r2, [r3, #0]
 8002122:	e007      	b.n	8002134 <TIM_UpdateDisableConfig+0x34>
  }
  else
  {
    /* Reset the Update Disable Bit */
    TIMx->CR1 &= (uint16_t)~TIM_CR1_UDIS;
 8002124:	687b      	ldr	r3, [r7, #4]
 8002126:	881b      	ldrh	r3, [r3, #0]
 8002128:	b29b      	uxth	r3, r3
 800212a:	f023 0302 	bic.w	r3, r3, #2
 800212e:	b29a      	uxth	r2, r3
 8002130:	687b      	ldr	r3, [r7, #4]
 8002132:	801a      	strh	r2, [r3, #0]
  }
}
 8002134:	370c      	adds	r7, #12
 8002136:	46bd      	mov	sp, r7
 8002138:	f85d 7b04 	ldr.w	r7, [sp], #4
 800213c:	4770      	bx	lr
 800213e:	bf00      	nop

08002140 <TIM_UpdateRequestConfig>:
  *                 generation through the slave mode controller.
  *            @arg TIM_UpdateSource_Global: Source of update is counter overflow/underflow.
  * @retval None
  */
void TIM_UpdateRequestConfig(TIM_TypeDef* TIMx, uint16_t TIM_UpdateSource)
{
 8002140:	b480      	push	{r7}
 8002142:	b083      	sub	sp, #12
 8002144:	af00      	add	r7, sp, #0
 8002146:	6078      	str	r0, [r7, #4]
 8002148:	460b      	mov	r3, r1
 800214a:	807b      	strh	r3, [r7, #2]
  /* Check the parameters */
  assert_param(IS_TIM_ALL_PERIPH(TIMx));
  assert_param(IS_TIM_UPDATE_SOURCE(TIM_UpdateSource));

  if (TIM_UpdateSource != TIM_UpdateSource_Global)
 800214c:	887b      	ldrh	r3, [r7, #2]
 800214e:	2b00      	cmp	r3, #0
 8002150:	d008      	beq.n	8002164 <TIM_UpdateRequestConfig+0x24>
  {
    /* Set the URS Bit */
    TIMx->CR1 |= TIM_CR1_URS;
 8002152:	687b      	ldr	r3, [r7, #4]
 8002154:	881b      	ldrh	r3, [r3, #0]
 8002156:	b29b      	uxth	r3, r3
 8002158:	f043 0304 	orr.w	r3, r3, #4
 800215c:	b29a      	uxth	r2, r3
 800215e:	687b      	ldr	r3, [r7, #4]
 8002160:	801a      	strh	r2, [r3, #0]
 8002162:	e007      	b.n	8002174 <TIM_UpdateRequestConfig+0x34>
  }
  else
  {
    /* Reset the URS Bit */
    TIMx->CR1 &= (uint16_t)~TIM_CR1_URS;
 8002164:	687b      	ldr	r3, [r7, #4]
 8002166:	881b      	ldrh	r3, [r3, #0]
 8002168:	b29b      	uxth	r3, r3
 800216a:	f023 0304 	bic.w	r3, r3, #4
 800216e:	b29a      	uxth	r2, r3
 8002170:	687b      	ldr	r3, [r7, #4]
 8002172:	801a      	strh	r2, [r3, #0]
  }
}
 8002174:	370c      	adds	r7, #12
 8002176:	46bd      	mov	sp, r7
 8002178:	f85d 7b04 	ldr.w	r7, [sp], #4
 800217c:	4770      	bx	lr
 800217e:	bf00      	nop

08002180 <TIM_ARRPreloadConfig>:
  * @param  NewState: new state of the TIMx peripheral Preload register
  *          This parameter can be: ENABLE or DISABLE.
  * @retval None
  */
void TIM_ARRPreloadConfig(TIM_TypeDef* TIMx, FunctionalState NewState)
{
 8002180:	b480      	push	{r7}
 8002182:	b083      	sub	sp, #12
 8002184:	af00      	add	r7, sp, #0
 8002186:	6078      	str	r0, [r7, #4]
 8002188:	460b      	mov	r3, r1
 800218a:	70fb      	strb	r3, [r7, #3]
  /* Check the parameters */
  assert_param(IS_TIM_ALL_PERIPH(TIMx));
  assert_param(IS_FUNCTIONAL_STATE(NewState));

  if (NewState != DISABLE)
 800218c:	78fb      	ldrb	r3, [r7, #3]
 800218e:	2b00      	cmp	r3, #0
 8002190:	d008      	beq.n	80021a4 <TIM_ARRPreloadConfig+0x24>
  {
    /* Set the ARR Preload Bit */
    TIMx->CR1 |= TIM_CR1_ARPE;
 8002192:	687b      	ldr	r3, [r7, #4]
 8002194:	881b      	ldrh	r3, [r3, #0]
 8002196:	b29b      	uxth	r3, r3
 8002198:	f043 0380 	orr.w	r3, r3, #128	; 0x80
 800219c:	b29a      	uxth	r2, r3
 800219e:	687b      	ldr	r3, [r7, #4]
 80021a0:	801a      	strh	r2, [r3, #0]
 80021a2:	e007      	b.n	80021b4 <TIM_ARRPreloadConfig+0x34>
  }
  else
  {
    /* Reset the ARR Preload Bit */
    TIMx->CR1 &= (uint16_t)~TIM_CR1_ARPE;
 80021a4:	687b      	ldr	r3, [r7, #4]
 80021a6:	881b      	ldrh	r3, [r3, #0]
 80021a8:	b29b      	uxth	r3, r3
 80021aa:	f023 0380 	bic.w	r3, r3, #128	; 0x80
 80021ae:	b29a      	uxth	r2, r3
 80021b0:	687b      	ldr	r3, [r7, #4]
 80021b2:	801a      	strh	r2, [r3, #0]
  }
}
 80021b4:	370c      	adds	r7, #12
 80021b6:	46bd      	mov	sp, r7
 80021b8:	f85d 7b04 	ldr.w	r7, [sp], #4
 80021bc:	4770      	bx	lr
 80021be:	bf00      	nop

080021c0 <TIM_SelectOnePulseMode>:
  *            @arg TIM_OPMode_Single
  *            @arg TIM_OPMode_Repetitive
  * @retval None
  */
void TIM_SelectOnePulseMode(TIM_TypeDef* TIMx, uint16_t TIM_OPMode)
{
 80021c0:	b480      	push	{r7}
 80021c2:	b083      	sub	sp, #12
 80021c4:	af00      	add	r7, sp, #0
 80021c6:	6078      	str	r0, [r7, #4]
 80021c8:	460b      	mov	r3, r1
 80021ca:	807b      	strh	r3, [r7, #2]
  /* Check the parameters */
  assert_param(IS_TIM_ALL_PERIPH(TIMx));
  assert_param(IS_TIM_OPM_MODE(TIM_OPMode));

  /* Reset the OPM Bit */
  TIMx->CR1 &= (uint16_t)~TIM_CR1_OPM;
 80021cc:	687b      	ldr	r3, [r7, #4]
 80021ce:	881b      	ldrh	r3, [r3, #0]
 80021d0:	b29b      	uxth	r3, r3
 80021d2:	f023 0308 	bic.w	r3, r3, #8
 80021d6:	b29a      	uxth	r2, r3
 80021d8:	687b      	ldr	r3, [r7, #4]
 80021da:	801a      	strh	r2, [r3, #0]

  /* Configure the OPM Mode */
  TIMx->CR1 |= TIM_OPMode;
 80021dc:	687b      	ldr	r3, [r7, #4]
 80021de:	881b      	ldrh	r3, [r3, #0]
 80021e0:	b29a      	uxth	r2, r3
 80021e2:	887b      	ldrh	r3, [r7, #2]
 80021e4:	4313      	orrs	r3, r2
 80021e6:	b29a      	uxth	r2, r3
 80021e8:	687b      	ldr	r3, [r7, #4]
 80021ea:	801a      	strh	r2, [r3, #0]
}
 80021ec:	370c      	adds	r7, #12
 80021ee:	46bd      	mov	sp, r7
 80021f0:	f85d 7b04 	ldr.w	r7, [sp], #4
 80021f4:	4770      	bx	lr
 80021f6:	bf00      	nop

080021f8 <TIM_SetClockDivision>:
  *            @arg TIM_CKD_DIV2: TDTS = 2*Tck_tim
  *            @arg TIM_CKD_DIV4: TDTS = 4*Tck_tim
  * @retval None
  */
void TIM_SetClockDivision(TIM_TypeDef* TIMx, uint16_t TIM_CKD)
{
 80021f8:	b480      	push	{r7}
 80021fa:	b083      	sub	sp, #12
 80021fc:	af00      	add	r7, sp, #0
 80021fe:	6078      	str	r0, [r7, #4]
 8002200:	460b      	mov	r3, r1
 8002202:	807b      	strh	r3, [r7, #2]
  /* Check the parameters */
  assert_param(IS_TIM_LIST1_PERIPH(TIMx));
  assert_param(IS_TIM_CKD_DIV(TIM_CKD));

  /* Reset the CKD Bits */
  TIMx->CR1 &= (uint16_t)(~TIM_CR1_CKD);
 8002204:	687b      	ldr	r3, [r7, #4]
 8002206:	881b      	ldrh	r3, [r3, #0]
 8002208:	b29b      	uxth	r3, r3
 800220a:	f423 7340 	bic.w	r3, r3, #768	; 0x300
 800220e:	b29a      	uxth	r2, r3
 8002210:	687b      	ldr	r3, [r7, #4]
 8002212:	801a      	strh	r2, [r3, #0]

  /* Set the CKD value */
  TIMx->CR1 |= TIM_CKD;
 8002214:	687b      	ldr	r3, [r7, #4]
 8002216:	881b      	ldrh	r3, [r3, #0]
 8002218:	b29a      	uxth	r2, r3
 800221a:	887b      	ldrh	r3, [r7, #2]
 800221c:	4313      	orrs	r3, r2
 800221e:	b29a      	uxth	r2, r3
 8002220:	687b      	ldr	r3, [r7, #4]
 8002222:	801a      	strh	r2, [r3, #0]
}
 8002224:	370c      	adds	r7, #12
 8002226:	46bd      	mov	sp, r7
 8002228:	f85d 7b04 	ldr.w	r7, [sp], #4
 800222c:	4770      	bx	lr
 800222e:	bf00      	nop

08002230 <TIM_Cmd>:
  * @param  NewState: new state of the TIMx peripheral.
  *          This parameter can be: ENABLE or DISABLE.
  * @retval None
  */
void TIM_Cmd(TIM_TypeDef* TIMx, FunctionalState NewState)
{
 8002230:	b480      	push	{r7}
 8002232:	b083      	sub	sp, #12
 8002234:	af00      	add	r7, sp, #0
 8002236:	6078      	str	r0, [r7, #4]
 8002238:	460b      	mov	r3, r1
 800223a:	70fb      	strb	r3, [r7, #3]
  /* Check the parameters */
  assert_param(IS_TIM_ALL_PERIPH(TIMx)); 
  assert_param(IS_FUNCTIONAL_STATE(NewState));
  
  if (NewState != DISABLE)
 800223c:	78fb      	ldrb	r3, [r7, #3]
 800223e:	2b00      	cmp	r3, #0
 8002240:	d008      	beq.n	8002254 <TIM_Cmd+0x24>
  {
    /* Enable the TIM Counter */
    TIMx->CR1 |= TIM_CR1_CEN;
 8002242:	687b      	ldr	r3, [r7, #4]
 8002244:	881b      	ldrh	r3, [r3, #0]
 8002246:	b29b      	uxth	r3, r3
 8002248:	f043 0301 	orr.w	r3, r3, #1
 800224c:	b29a      	uxth	r2, r3
 800224e:	687b      	ldr	r3, [r7, #4]
 8002250:	801a      	strh	r2, [r3, #0]
 8002252:	e007      	b.n	8002264 <TIM_Cmd+0x34>
  }
  else
  {
    /* Disable the TIM Counter */
    TIMx->CR1 &= (uint16_t)~TIM_CR1_CEN;
 8002254:	687b      	ldr	r3, [r7, #4]
 8002256:	881b      	ldrh	r3, [r3, #0]
 8002258:	b29b      	uxth	r3, r3
 800225a:	f023 0301 	bic.w	r3, r3, #1
 800225e:	b29a      	uxth	r2, r3
 8002260:	687b      	ldr	r3, [r7, #4]
 8002262:	801a      	strh	r2, [r3, #0]
  }
}
 8002264:	370c      	adds	r7, #12
 8002266:	46bd      	mov	sp, r7
 8002268:	f85d 7b04 	ldr.w	r7, [sp], #4
 800226c:	4770      	bx	lr
 800226e:	bf00      	nop

08002270 <TIM_OC1Init>:
  * @param  TIM_OCInitStruct: pointer to a TIM_OCInitTypeDef structure that contains
  *         the configuration information for the specified TIM peripheral.
  * @retval None
  */
void TIM_OC1Init(TIM_TypeDef* TIMx, TIM_OCInitTypeDef* TIM_OCInitStruct)
{
 8002270:	b480      	push	{r7}
 8002272:	b085      	sub	sp, #20
 8002274:	af00      	add	r7, sp, #0
 8002276:	6078      	str	r0, [r7, #4]
 8002278:	6039      	str	r1, [r7, #0]
  uint16_t tmpccmrx = 0, tmpccer = 0, tmpcr2 = 0;
 800227a:	2300      	movs	r3, #0
 800227c:	817b      	strh	r3, [r7, #10]
 800227e:	2300      	movs	r3, #0
 8002280:	81fb      	strh	r3, [r7, #14]
 8002282:	2300      	movs	r3, #0
 8002284:	81bb      	strh	r3, [r7, #12]
  assert_param(IS_TIM_OC_MODE(TIM_OCInitStruct->TIM_OCMode));
  assert_param(IS_TIM_OUTPUT_STATE(TIM_OCInitStruct->TIM_OutputState));
  assert_param(IS_TIM_OC_POLARITY(TIM_OCInitStruct->TIM_OCPolarity));   

  /* Disable the Channel 1: Reset the CC1E Bit */
  TIMx->CCER &= (uint16_t)~TIM_CCER_CC1E;
 8002286:	687b      	ldr	r3, [r7, #4]
 8002288:	8c1b      	ldrh	r3, [r3, #32]
 800228a:	b29b      	uxth	r3, r3
 800228c:	f023 0301 	bic.w	r3, r3, #1
 8002290:	b29a      	uxth	r2, r3
 8002292:	687b      	ldr	r3, [r7, #4]
 8002294:	841a      	strh	r2, [r3, #32]
  
  /* Get the TIMx CCER register value */
  tmpccer = TIMx->CCER;
 8002296:	687b      	ldr	r3, [r7, #4]
 8002298:	8c1b      	ldrh	r3, [r3, #32]
 800229a:	81fb      	strh	r3, [r7, #14]
  /* Get the TIMx CR2 register value */
  tmpcr2 =  TIMx->CR2;
 800229c:	687b      	ldr	r3, [r7, #4]
 800229e:	889b      	ldrh	r3, [r3, #4]
 80022a0:	81bb      	strh	r3, [r7, #12]
  
  /* Get the TIMx CCMR1 register value */
  tmpccmrx = TIMx->CCMR1;
 80022a2:	687b      	ldr	r3, [r7, #4]
 80022a4:	8b1b      	ldrh	r3, [r3, #24]
 80022a6:	817b      	strh	r3, [r7, #10]
    
  /* Reset the Output Compare Mode Bits */
  tmpccmrx &= (uint16_t)~TIM_CCMR1_OC1M;
 80022a8:	897b      	ldrh	r3, [r7, #10]
 80022aa:	f023 0370 	bic.w	r3, r3, #112	; 0x70
 80022ae:	817b      	strh	r3, [r7, #10]
  tmpccmrx &= (uint16_t)~TIM_CCMR1_CC1S;
 80022b0:	897b      	ldrh	r3, [r7, #10]
 80022b2:	f023 0303 	bic.w	r3, r3, #3
 80022b6:	817b      	strh	r3, [r7, #10]
  /* Select the Output Compare Mode */
  tmpccmrx |= TIM_OCInitStruct->TIM_OCMode;
 80022b8:	683b      	ldr	r3, [r7, #0]
 80022ba:	881a      	ldrh	r2, [r3, #0]
 80022bc:	897b      	ldrh	r3, [r7, #10]
 80022be:	4313      	orrs	r3, r2
 80022c0:	817b      	strh	r3, [r7, #10]
  
  /* Reset the Output Polarity level */
  tmpccer &= (uint16_t)~TIM_CCER_CC1P;
 80022c2:	89fb      	ldrh	r3, [r7, #14]
 80022c4:	f023 0302 	bic.w	r3, r3, #2
 80022c8:	81fb      	strh	r3, [r7, #14]
  /* Set the Output Compare Polarity */
  tmpccer |= TIM_OCInitStruct->TIM_OCPolarity;
 80022ca:	683b      	ldr	r3, [r7, #0]
 80022cc:	899a      	ldrh	r2, [r3, #12]
 80022ce:	89fb      	ldrh	r3, [r7, #14]
 80022d0:	4313      	orrs	r3, r2
 80022d2:	81fb      	strh	r3, [r7, #14]
  
  /* Set the Output State */
  tmpccer |= TIM_OCInitStruct->TIM_OutputState;
 80022d4:	683b      	ldr	r3, [r7, #0]
 80022d6:	885a      	ldrh	r2, [r3, #2]
 80022d8:	89fb      	ldrh	r3, [r7, #14]
 80022da:	4313      	orrs	r3, r2
 80022dc:	81fb      	strh	r3, [r7, #14]
    
  if((TIMx == TIM1) || (TIMx == TIM8))
 80022de:	687b      	ldr	r3, [r7, #4]
 80022e0:	4a1e      	ldr	r2, [pc, #120]	; (800235c <TIM_OC1Init+0xec>)
 80022e2:	4293      	cmp	r3, r2
 80022e4:	d003      	beq.n	80022ee <TIM_OC1Init+0x7e>
 80022e6:	687b      	ldr	r3, [r7, #4]
 80022e8:	4a1d      	ldr	r2, [pc, #116]	; (8002360 <TIM_OC1Init+0xf0>)
 80022ea:	4293      	cmp	r3, r2
 80022ec:	d123      	bne.n	8002336 <TIM_OC1Init+0xc6>
    assert_param(IS_TIM_OCN_POLARITY(TIM_OCInitStruct->TIM_OCNPolarity));
    assert_param(IS_TIM_OCNIDLE_STATE(TIM_OCInitStruct->TIM_OCNIdleState));
    assert_param(IS_TIM_OCIDLE_STATE(TIM_OCInitStruct->TIM_OCIdleState));
    
    /* Reset the Output N Polarity level */
    tmpccer &= (uint16_t)~TIM_CCER_CC1NP;
 80022ee:	89fb      	ldrh	r3, [r7, #14]
 80022f0:	f023 0308 	bic.w	r3, r3, #8
 80022f4:	81fb      	strh	r3, [r7, #14]
    /* Set the Output N Polarity */
    tmpccer |= TIM_OCInitStruct->TIM_OCNPolarity;
 80022f6:	683b      	ldr	r3, [r7, #0]
 80022f8:	89da      	ldrh	r2, [r3, #14]
 80022fa:	89fb      	ldrh	r3, [r7, #14]
 80022fc:	4313      	orrs	r3, r2
 80022fe:	81fb      	strh	r3, [r7, #14]
    /* Reset the Output N State */
    tmpccer &= (uint16_t)~TIM_CCER_CC1NE;
 8002300:	89fb      	ldrh	r3, [r7, #14]
 8002302:	f023 0304 	bic.w	r3, r3, #4
 8002306:	81fb      	strh	r3, [r7, #14]
    
    /* Set the Output N State */
    tmpccer |= TIM_OCInitStruct->TIM_OutputNState;
 8002308:	683b      	ldr	r3, [r7, #0]
 800230a:	889a      	ldrh	r2, [r3, #4]
 800230c:	89fb      	ldrh	r3, [r7, #14]
 800230e:	4313      	orrs	r3, r2
 8002310:	81fb      	strh	r3, [r7, #14]
    /* Reset the Output Compare and Output Compare N IDLE State */
    tmpcr2 &= (uint16_t)~TIM_CR2_OIS1;
 8002312:	89bb      	ldrh	r3, [r7, #12]
 8002314:	f423 7380 	bic.w	r3, r3, #256	; 0x100
 8002318:	81bb      	strh	r3, [r7, #12]
    tmpcr2 &= (uint16_t)~TIM_CR2_OIS1N;
 800231a:	89bb      	ldrh	r3, [r7, #12]
 800231c:	f423 7300 	bic.w	r3, r3, #512	; 0x200
 8002320:	81bb      	strh	r3, [r7, #12]
    /* Set the Output Idle state */
    tmpcr2 |= TIM_OCInitStruct->TIM_OCIdleState;
 8002322:	683b      	ldr	r3, [r7, #0]
 8002324:	8a1a      	ldrh	r2, [r3, #16]
 8002326:	89bb      	ldrh	r3, [r7, #12]
 8002328:	4313      	orrs	r3, r2
 800232a:	81bb      	strh	r3, [r7, #12]
    /* Set the Output N Idle state */
    tmpcr2 |= TIM_OCInitStruct->TIM_OCNIdleState;
 800232c:	683b      	ldr	r3, [r7, #0]
 800232e:	8a5a      	ldrh	r2, [r3, #18]
 8002330:	89bb      	ldrh	r3, [r7, #12]
 8002332:	4313      	orrs	r3, r2
 8002334:	81bb      	strh	r3, [r7, #12]
  }
  /* Write to TIMx CR2 */
  TIMx->CR2 = tmpcr2;
 8002336:	687b      	ldr	r3, [r7, #4]
 8002338:	89ba      	ldrh	r2, [r7, #12]
 800233a:	809a      	strh	r2, [r3, #4]
  
  /* Write to TIMx CCMR1 */
  TIMx->CCMR1 = tmpccmrx;
 800233c:	687b      	ldr	r3, [r7, #4]
 800233e:	897a      	ldrh	r2, [r7, #10]
 8002340:	831a      	strh	r2, [r3, #24]
  
  /* Set the Capture Compare Register value */
  TIMx->CCR1 = TIM_OCInitStruct->TIM_Pulse;
 8002342:	683b      	ldr	r3, [r7, #0]
 8002344:	689a      	ldr	r2, [r3, #8]
 8002346:	687b      	ldr	r3, [r7, #4]
 8002348:	635a      	str	r2, [r3, #52]	; 0x34
  
  /* Write to TIMx CCER */
  TIMx->CCER = tmpccer;
 800234a:	687b      	ldr	r3, [r7, #4]
 800234c:	89fa      	ldrh	r2, [r7, #14]
 800234e:	841a      	strh	r2, [r3, #32]
}
 8002350:	3714      	adds	r7, #20
 8002352:	46bd      	mov	sp, r7
 8002354:	f85d 7b04 	ldr.w	r7, [sp], #4
 8002358:	4770      	bx	lr
 800235a:	bf00      	nop
 800235c:	40010000 	.word	0x40010000
 8002360:	40010400 	.word	0x40010400

08002364 <TIM_OC2Init>:
  * @param  TIM_OCInitStruct: pointer to a TIM_OCInitTypeDef structure that contains
  *         the configuration information for the specified TIM peripheral.
  * @retval None
  */
void TIM_OC2Init(TIM_TypeDef* TIMx, TIM_OCInitTypeDef* TIM_OCInitStruct)
{
 8002364:	b480      	push	{r7}
 8002366:	b085      	sub	sp, #20
 8002368:	af00      	add	r7, sp, #0
 800236a:	6078      	str	r0, [r7, #4]
 800236c:	6039      	str	r1, [r7, #0]
  uint16_t tmpccmrx = 0, tmpccer = 0, tmpcr2 = 0;
 800236e:	2300      	movs	r3, #0
 8002370:	817b      	strh	r3, [r7, #10]
 8002372:	2300      	movs	r3, #0
 8002374:	81fb      	strh	r3, [r7, #14]
 8002376:	2300      	movs	r3, #0
 8002378:	81bb      	strh	r3, [r7, #12]
  assert_param(IS_TIM_OC_MODE(TIM_OCInitStruct->TIM_OCMode));
  assert_param(IS_TIM_OUTPUT_STATE(TIM_OCInitStruct->TIM_OutputState));
  assert_param(IS_TIM_OC_POLARITY(TIM_OCInitStruct->TIM_OCPolarity));   

  /* Disable the Channel 2: Reset the CC2E Bit */
  TIMx->CCER &= (uint16_t)~TIM_CCER_CC2E;
 800237a:	687b      	ldr	r3, [r7, #4]
 800237c:	8c1b      	ldrh	r3, [r3, #32]
 800237e:	b29b      	uxth	r3, r3
 8002380:	f023 0310 	bic.w	r3, r3, #16
 8002384:	b29a      	uxth	r2, r3
 8002386:	687b      	ldr	r3, [r7, #4]
 8002388:	841a      	strh	r2, [r3, #32]
  
  /* Get the TIMx CCER register value */  
  tmpccer = TIMx->CCER;
 800238a:	687b      	ldr	r3, [r7, #4]
 800238c:	8c1b      	ldrh	r3, [r3, #32]
 800238e:	81fb      	strh	r3, [r7, #14]
  /* Get the TIMx CR2 register value */
  tmpcr2 =  TIMx->CR2;
 8002390:	687b      	ldr	r3, [r7, #4]
 8002392:	889b      	ldrh	r3, [r3, #4]
 8002394:	81bb      	strh	r3, [r7, #12]
  
  /* Get the TIMx CCMR1 register value */
  tmpccmrx = TIMx->CCMR1;
 8002396:	687b      	ldr	r3, [r7, #4]
 8002398:	8b1b      	ldrh	r3, [r3, #24]
 800239a:	817b      	strh	r3, [r7, #10]
    
  /* Reset the Output Compare mode and Capture/Compare selection Bits */
  tmpccmrx &= (uint16_t)~TIM_CCMR1_OC2M;
 800239c:	897b      	ldrh	r3, [r7, #10]
 800239e:	f423 43e0 	bic.w	r3, r3, #28672	; 0x7000
 80023a2:	817b      	strh	r3, [r7, #10]
  tmpccmrx &= (uint16_t)~TIM_CCMR1_CC2S;
 80023a4:	897b      	ldrh	r3, [r7, #10]
 80023a6:	f423 7340 	bic.w	r3, r3, #768	; 0x300
 80023aa:	817b      	strh	r3, [r7, #10]
  
  /* Select the Output Compare Mode */
  tmpccmrx |= (uint16_t)(TIM_OCInitStruct->TIM_OCMode << 8);
 80023ac:	683b      	ldr	r3, [r7, #0]
 80023ae:	881b      	ldrh	r3, [r3, #0]
 80023b0:	021b      	lsls	r3, r3, #8
 80023b2:	b29a      	uxth	r2, r3
 80023b4:	897b      	ldrh	r3, [r7, #10]
 80023b6:	4313      	orrs	r3, r2
 80023b8:	817b      	strh	r3, [r7, #10]
  
  /* Reset the Output Polarity level */
  tmpccer &= (uint16_t)~TIM_CCER_CC2P;
 80023ba:	89fb      	ldrh	r3, [r7, #14]
 80023bc:	f023 0320 	bic.w	r3, r3, #32
 80023c0:	81fb      	strh	r3, [r7, #14]
  /* Set the Output Compare Polarity */
  tmpccer |= (uint16_t)(TIM_OCInitStruct->TIM_OCPolarity << 4);
 80023c2:	683b      	ldr	r3, [r7, #0]
 80023c4:	899b      	ldrh	r3, [r3, #12]
 80023c6:	011b      	lsls	r3, r3, #4
 80023c8:	b29a      	uxth	r2, r3
 80023ca:	89fb      	ldrh	r3, [r7, #14]
 80023cc:	4313      	orrs	r3, r2
 80023ce:	81fb      	strh	r3, [r7, #14]
  
  /* Set the Output State */
  tmpccer |= (uint16_t)(TIM_OCInitStruct->TIM_OutputState << 4);
 80023d0:	683b      	ldr	r3, [r7, #0]
 80023d2:	885b      	ldrh	r3, [r3, #2]
 80023d4:	011b      	lsls	r3, r3, #4
 80023d6:	b29a      	uxth	r2, r3
 80023d8:	89fb      	ldrh	r3, [r7, #14]
 80023da:	4313      	orrs	r3, r2
 80023dc:	81fb      	strh	r3, [r7, #14]
    
  if((TIMx == TIM1) || (TIMx == TIM8))
 80023de:	687b      	ldr	r3, [r7, #4]
 80023e0:	4a22      	ldr	r2, [pc, #136]	; (800246c <TIM_OC2Init+0x108>)
 80023e2:	4293      	cmp	r3, r2
 80023e4:	d003      	beq.n	80023ee <TIM_OC2Init+0x8a>
 80023e6:	687b      	ldr	r3, [r7, #4]
 80023e8:	4a21      	ldr	r2, [pc, #132]	; (8002470 <TIM_OC2Init+0x10c>)
 80023ea:	4293      	cmp	r3, r2
 80023ec:	d12b      	bne.n	8002446 <TIM_OC2Init+0xe2>
    assert_param(IS_TIM_OCN_POLARITY(TIM_OCInitStruct->TIM_OCNPolarity));
    assert_param(IS_TIM_OCNIDLE_STATE(TIM_OCInitStruct->TIM_OCNIdleState));
    assert_param(IS_TIM_OCIDLE_STATE(TIM_OCInitStruct->TIM_OCIdleState));
    
    /* Reset the Output N Polarity level */
    tmpccer &= (uint16_t)~TIM_CCER_CC2NP;
 80023ee:	89fb      	ldrh	r3, [r7, #14]
 80023f0:	f023 0380 	bic.w	r3, r3, #128	; 0x80
 80023f4:	81fb      	strh	r3, [r7, #14]
    /* Set the Output N Polarity */
    tmpccer |= (uint16_t)(TIM_OCInitStruct->TIM_OCNPolarity << 4);
 80023f6:	683b      	ldr	r3, [r7, #0]
 80023f8:	89db      	ldrh	r3, [r3, #14]
 80023fa:	011b      	lsls	r3, r3, #4
 80023fc:	b29a      	uxth	r2, r3
 80023fe:	89fb      	ldrh	r3, [r7, #14]
 8002400:	4313      	orrs	r3, r2
 8002402:	81fb      	strh	r3, [r7, #14]
    /* Reset the Output N State */
    tmpccer &= (uint16_t)~TIM_CCER_CC2NE;
 8002404:	89fb      	ldrh	r3, [r7, #14]
 8002406:	f023 0340 	bic.w	r3, r3, #64	; 0x40
 800240a:	81fb      	strh	r3, [r7, #14]
    
    /* Set the Output N State */
    tmpccer |= (uint16_t)(TIM_OCInitStruct->TIM_OutputNState << 4);
 800240c:	683b      	ldr	r3, [r7, #0]
 800240e:	889b      	ldrh	r3, [r3, #4]
 8002410:	011b      	lsls	r3, r3, #4
 8002412:	b29a      	uxth	r2, r3
 8002414:	89fb      	ldrh	r3, [r7, #14]
 8002416:	4313      	orrs	r3, r2
 8002418:	81fb      	strh	r3, [r7, #14]
    /* Reset the Output Compare and Output Compare N IDLE State */
    tmpcr2 &= (uint16_t)~TIM_CR2_OIS2;
 800241a:	89bb      	ldrh	r3, [r7, #12]
 800241c:	f423 6380 	bic.w	r3, r3, #1024	; 0x400
 8002420:	81bb      	strh	r3, [r7, #12]
    tmpcr2 &= (uint16_t)~TIM_CR2_OIS2N;
 8002422:	89bb      	ldrh	r3, [r7, #12]
 8002424:	f423 6300 	bic.w	r3, r3, #2048	; 0x800
 8002428:	81bb      	strh	r3, [r7, #12]
    /* Set the Output Idle state */
    tmpcr2 |= (uint16_t)(TIM_OCInitStruct->TIM_OCIdleState << 2);
 800242a:	683b      	ldr	r3, [r7, #0]
 800242c:	8a1b      	ldrh	r3, [r3, #16]
 800242e:	009b      	lsls	r3, r3, #2
 8002430:	b29a      	uxth	r2, r3
 8002432:	89bb      	ldrh	r3, [r7, #12]
 8002434:	4313      	orrs	r3, r2
 8002436:	81bb      	strh	r3, [r7, #12]
    /* Set the Output N Idle state */
    tmpcr2 |= (uint16_t)(TIM_OCInitStruct->TIM_OCNIdleState << 2);
 8002438:	683b      	ldr	r3, [r7, #0]
 800243a:	8a5b      	ldrh	r3, [r3, #18]
 800243c:	009b      	lsls	r3, r3, #2
 800243e:	b29a      	uxth	r2, r3
 8002440:	89bb      	ldrh	r3, [r7, #12]
 8002442:	4313      	orrs	r3, r2
 8002444:	81bb      	strh	r3, [r7, #12]
  }
  /* Write to TIMx CR2 */
  TIMx->CR2 = tmpcr2;
 8002446:	687b      	ldr	r3, [r7, #4]
 8002448:	89ba      	ldrh	r2, [r7, #12]
 800244a:	809a      	strh	r2, [r3, #4]
  
  /* Write to TIMx CCMR1 */
  TIMx->CCMR1 = tmpccmrx;
 800244c:	687b      	ldr	r3, [r7, #4]
 800244e:	897a      	ldrh	r2, [r7, #10]
 8002450:	831a      	strh	r2, [r3, #24]
  
  /* Set the Capture Compare Register value */
  TIMx->CCR2 = TIM_OCInitStruct->TIM_Pulse;
 8002452:	683b      	ldr	r3, [r7, #0]
 8002454:	689a      	ldr	r2, [r3, #8]
 8002456:	687b      	ldr	r3, [r7, #4]
 8002458:	639a      	str	r2, [r3, #56]	; 0x38
  
  /* Write to TIMx CCER */
  TIMx->CCER = tmpccer;
 800245a:	687b      	ldr	r3, [r7, #4]
 800245c:	89fa      	ldrh	r2, [r7, #14]
 800245e:	841a      	strh	r2, [r3, #32]
}
 8002460:	3714      	adds	r7, #20
 8002462:	46bd      	mov	sp, r7
 8002464:	f85d 7b04 	ldr.w	r7, [sp], #4
 8002468:	4770      	bx	lr
 800246a:	bf00      	nop
 800246c:	40010000 	.word	0x40010000
 8002470:	40010400 	.word	0x40010400

08002474 <TIM_OC3Init>:
  * @param  TIM_OCInitStruct: pointer to a TIM_OCInitTypeDef structure that contains
  *         the configuration information for the specified TIM peripheral.
  * @retval None
  */
void TIM_OC3Init(TIM_TypeDef* TIMx, TIM_OCInitTypeDef* TIM_OCInitStruct)
{
 8002474:	b480      	push	{r7}
 8002476:	b085      	sub	sp, #20
 8002478:	af00      	add	r7, sp, #0
 800247a:	6078      	str	r0, [r7, #4]
 800247c:	6039      	str	r1, [r7, #0]
  uint16_t tmpccmrx = 0, tmpccer = 0, tmpcr2 = 0;
 800247e:	2300      	movs	r3, #0
 8002480:	817b      	strh	r3, [r7, #10]
 8002482:	2300      	movs	r3, #0
 8002484:	81fb      	strh	r3, [r7, #14]
 8002486:	2300      	movs	r3, #0
 8002488:	81bb      	strh	r3, [r7, #12]
  assert_param(IS_TIM_OC_MODE(TIM_OCInitStruct->TIM_OCMode));
  assert_param(IS_TIM_OUTPUT_STATE(TIM_OCInitStruct->TIM_OutputState));
  assert_param(IS_TIM_OC_POLARITY(TIM_OCInitStruct->TIM_OCPolarity));   

  /* Disable the Channel 3: Reset the CC2E Bit */
  TIMx->CCER &= (uint16_t)~TIM_CCER_CC3E;
 800248a:	687b      	ldr	r3, [r7, #4]
 800248c:	8c1b      	ldrh	r3, [r3, #32]
 800248e:	b29b      	uxth	r3, r3
 8002490:	f423 7380 	bic.w	r3, r3, #256	; 0x100
 8002494:	b29a      	uxth	r2, r3
 8002496:	687b      	ldr	r3, [r7, #4]
 8002498:	841a      	strh	r2, [r3, #32]
  
  /* Get the TIMx CCER register value */
  tmpccer = TIMx->CCER;
 800249a:	687b      	ldr	r3, [r7, #4]
 800249c:	8c1b      	ldrh	r3, [r3, #32]
 800249e:	81fb      	strh	r3, [r7, #14]
  /* Get the TIMx CR2 register value */
  tmpcr2 =  TIMx->CR2;
 80024a0:	687b      	ldr	r3, [r7, #4]
 80024a2:	889b      	ldrh	r3, [r3, #4]
 80024a4:	81bb      	strh	r3, [r7, #12]
  
  /* Get the TIMx CCMR2 register value */
  tmpccmrx = TIMx->CCMR2;
 80024a6:	687b      	ldr	r3, [r7, #4]
 80024a8:	8b9b      	ldrh	r3, [r3, #28]
 80024aa:	817b      	strh	r3, [r7, #10]
    
  /* Reset the Output Compare mode and Capture/Compare selection Bits */
  tmpccmrx &= (uint16_t)~TIM_CCMR2_OC3M;
 80024ac:	897b      	ldrh	r3, [r7, #10]
 80024ae:	f023 0370 	bic.w	r3, r3, #112	; 0x70
 80024b2:	817b      	strh	r3, [r7, #10]
  tmpccmrx &= (uint16_t)~TIM_CCMR2_CC3S;  
 80024b4:	897b      	ldrh	r3, [r7, #10]
 80024b6:	f023 0303 	bic.w	r3, r3, #3
 80024ba:	817b      	strh	r3, [r7, #10]
  /* Select the Output Compare Mode */
  tmpccmrx |= TIM_OCInitStruct->TIM_OCMode;
 80024bc:	683b      	ldr	r3, [r7, #0]
 80024be:	881a      	ldrh	r2, [r3, #0]
 80024c0:	897b      	ldrh	r3, [r7, #10]
 80024c2:	4313      	orrs	r3, r2
 80024c4:	817b      	strh	r3, [r7, #10]
  
  /* Reset the Output Polarity level */
  tmpccer &= (uint16_t)~TIM_CCER_CC3P;
 80024c6:	89fb      	ldrh	r3, [r7, #14]
 80024c8:	f423 7300 	bic.w	r3, r3, #512	; 0x200
 80024cc:	81fb      	strh	r3, [r7, #14]
  /* Set the Output Compare Polarity */
  tmpccer |= (uint16_t)(TIM_OCInitStruct->TIM_OCPolarity << 8);
 80024ce:	683b      	ldr	r3, [r7, #0]
 80024d0:	899b      	ldrh	r3, [r3, #12]
 80024d2:	021b      	lsls	r3, r3, #8
 80024d4:	b29a      	uxth	r2, r3
 80024d6:	89fb      	ldrh	r3, [r7, #14]
 80024d8:	4313      	orrs	r3, r2
 80024da:	81fb      	strh	r3, [r7, #14]
  
  /* Set the Output State */
  tmpccer |= (uint16_t)(TIM_OCInitStruct->TIM_OutputState << 8);
 80024dc:	683b      	ldr	r3, [r7, #0]
 80024de:	885b      	ldrh	r3, [r3, #2]
 80024e0:	021b      	lsls	r3, r3, #8
 80024e2:	b29a      	uxth	r2, r3
 80024e4:	89fb      	ldrh	r3, [r7, #14]
 80024e6:	4313      	orrs	r3, r2
 80024e8:	81fb      	strh	r3, [r7, #14]
    
  if((TIMx == TIM1) || (TIMx == TIM8))
 80024ea:	687b      	ldr	r3, [r7, #4]
 80024ec:	4a22      	ldr	r2, [pc, #136]	; (8002578 <TIM_OC3Init+0x104>)
 80024ee:	4293      	cmp	r3, r2
 80024f0:	d003      	beq.n	80024fa <TIM_OC3Init+0x86>
 80024f2:	687b      	ldr	r3, [r7, #4]
 80024f4:	4a21      	ldr	r2, [pc, #132]	; (800257c <TIM_OC3Init+0x108>)
 80024f6:	4293      	cmp	r3, r2
 80024f8:	d12b      	bne.n	8002552 <TIM_OC3Init+0xde>
    assert_param(IS_TIM_OCN_POLARITY(TIM_OCInitStruct->TIM_OCNPolarity));
    assert_param(IS_TIM_OCNIDLE_STATE(TIM_OCInitStruct->TIM_OCNIdleState));
    assert_param(IS_TIM_OCIDLE_STATE(TIM_OCInitStruct->TIM_OCIdleState));
    
    /* Reset the Output N Polarity level */
    tmpccer &= (uint16_t)~TIM_CCER_CC3NP;
 80024fa:	89fb      	ldrh	r3, [r7, #14]
 80024fc:	f423 6300 	bic.w	r3, r3, #2048	; 0x800
 8002500:	81fb      	strh	r3, [r7, #14]
    /* Set the Output N Polarity */
    tmpccer |= (uint16_t)(TIM_OCInitStruct->TIM_OCNPolarity << 8);
 8002502:	683b      	ldr	r3, [r7, #0]
 8002504:	89db      	ldrh	r3, [r3, #14]
 8002506:	021b      	lsls	r3, r3, #8
 8002508:	b29a      	uxth	r2, r3
 800250a:	89fb      	ldrh	r3, [r7, #14]
 800250c:	4313      	orrs	r3, r2
 800250e:	81fb      	strh	r3, [r7, #14]
    /* Reset the Output N State */
    tmpccer &= (uint16_t)~TIM_CCER_CC3NE;
 8002510:	89fb      	ldrh	r3, [r7, #14]
 8002512:	f423 6380 	bic.w	r3, r3, #1024	; 0x400
 8002516:	81fb      	strh	r3, [r7, #14]
    
    /* Set the Output N State */
    tmpccer |= (uint16_t)(TIM_OCInitStruct->TIM_OutputNState << 8);
 8002518:	683b      	ldr	r3, [r7, #0]
 800251a:	889b      	ldrh	r3, [r3, #4]
 800251c:	021b      	lsls	r3, r3, #8
 800251e:	b29a      	uxth	r2, r3
 8002520:	89fb      	ldrh	r3, [r7, #14]
 8002522:	4313      	orrs	r3, r2
 8002524:	81fb      	strh	r3, [r7, #14]
    /* Reset the Output Compare and Output Compare N IDLE State */
    tmpcr2 &= (uint16_t)~TIM_CR2_OIS3;
 8002526:	89bb      	ldrh	r3, [r7, #12]
 8002528:	f423 5380 	bic.w	r3, r3, #4096	; 0x1000
 800252c:	81bb      	strh	r3, [r7, #12]
    tmpcr2 &= (uint16_t)~TIM_CR2_OIS3N;
 800252e:	89bb      	ldrh	r3, [r7, #12]
 8002530:	f423 5300 	bic.w	r3, r3, #8192	; 0x2000
 8002534:	81bb      	strh	r3, [r7, #12]
    /* Set the Output Idle state */
    tmpcr2 |= (uint16_t)(TIM_OCInitStruct->TIM_OCIdleState << 4);
 8002536:	683b      	ldr	r3, [r7, #0]
 8002538:	8a1b      	ldrh	r3, [r3, #16]
 800253a:	011b      	lsls	r3, r3, #4
 800253c:	b29a      	uxth	r2, r3
 800253e:	89bb      	ldrh	r3, [r7, #12]
 8002540:	4313      	orrs	r3, r2
 8002542:	81bb      	strh	r3, [r7, #12]
    /* Set the Output N Idle state */
    tmpcr2 |= (uint16_t)(TIM_OCInitStruct->TIM_OCNIdleState << 4);
 8002544:	683b      	ldr	r3, [r7, #0]
 8002546:	8a5b      	ldrh	r3, [r3, #18]
 8002548:	011b      	lsls	r3, r3, #4
 800254a:	b29a      	uxth	r2, r3
 800254c:	89bb      	ldrh	r3, [r7, #12]
 800254e:	4313      	orrs	r3, r2
 8002550:	81bb      	strh	r3, [r7, #12]
  }
  /* Write to TIMx CR2 */
  TIMx->CR2 = tmpcr2;
 8002552:	687b      	ldr	r3, [r7, #4]
 8002554:	89ba      	ldrh	r2, [r7, #12]
 8002556:	809a      	strh	r2, [r3, #4]
  
  /* Write to TIMx CCMR2 */
  TIMx->CCMR2 = tmpccmrx;
 8002558:	687b      	ldr	r3, [r7, #4]
 800255a:	897a      	ldrh	r2, [r7, #10]
 800255c:	839a      	strh	r2, [r3, #28]
  
  /* Set the Capture Compare Register value */
  TIMx->CCR3 = TIM_OCInitStruct->TIM_Pulse;
 800255e:	683b      	ldr	r3, [r7, #0]
 8002560:	689a      	ldr	r2, [r3, #8]
 8002562:	687b      	ldr	r3, [r7, #4]
 8002564:	63da      	str	r2, [r3, #60]	; 0x3c
  
  /* Write to TIMx CCER */
  TIMx->CCER = tmpccer;
 8002566:	687b      	ldr	r3, [r7, #4]
 8002568:	89fa      	ldrh	r2, [r7, #14]
 800256a:	841a      	strh	r2, [r3, #32]
}
 800256c:	3714      	adds	r7, #20
 800256e:	46bd      	mov	sp, r7
 8002570:	f85d 7b04 	ldr.w	r7, [sp], #4
 8002574:	4770      	bx	lr
 8002576:	bf00      	nop
 8002578:	40010000 	.word	0x40010000
 800257c:	40010400 	.word	0x40010400

08002580 <TIM_OC4Init>:
  * @param  TIM_OCInitStruct: pointer to a TIM_OCInitTypeDef structure that contains
  *         the configuration information for the specified TIM peripheral.
  * @retval None
  */
void TIM_OC4Init(TIM_TypeDef* TIMx, TIM_OCInitTypeDef* TIM_OCInitStruct)
{
 8002580:	b480      	push	{r7}
 8002582:	b085      	sub	sp, #20
 8002584:	af00      	add	r7, sp, #0
 8002586:	6078      	str	r0, [r7, #4]
 8002588:	6039      	str	r1, [r7, #0]
  uint16_t tmpccmrx = 0, tmpccer = 0, tmpcr2 = 0;
 800258a:	2300      	movs	r3, #0
 800258c:	81bb      	strh	r3, [r7, #12]
 800258e:	2300      	movs	r3, #0
 8002590:	817b      	strh	r3, [r7, #10]
 8002592:	2300      	movs	r3, #0
 8002594:	81fb      	strh	r3, [r7, #14]
  assert_param(IS_TIM_OC_MODE(TIM_OCInitStruct->TIM_OCMode));
  assert_param(IS_TIM_OUTPUT_STATE(TIM_OCInitStruct->TIM_OutputState));
  assert_param(IS_TIM_OC_POLARITY(TIM_OCInitStruct->TIM_OCPolarity));   

  /* Disable the Channel 4: Reset the CC4E Bit */
  TIMx->CCER &= (uint16_t)~TIM_CCER_CC4E;
 8002596:	687b      	ldr	r3, [r7, #4]
 8002598:	8c1b      	ldrh	r3, [r3, #32]
 800259a:	b29b      	uxth	r3, r3
 800259c:	f423 5380 	bic.w	r3, r3, #4096	; 0x1000
 80025a0:	b29a      	uxth	r2, r3
 80025a2:	687b      	ldr	r3, [r7, #4]
 80025a4:	841a      	strh	r2, [r3, #32]
  
  /* Get the TIMx CCER register value */
  tmpccer = TIMx->CCER;
 80025a6:	687b      	ldr	r3, [r7, #4]
 80025a8:	8c1b      	ldrh	r3, [r3, #32]
 80025aa:	817b      	strh	r3, [r7, #10]
  /* Get the TIMx CR2 register value */
  tmpcr2 =  TIMx->CR2;
 80025ac:	687b      	ldr	r3, [r7, #4]
 80025ae:	889b      	ldrh	r3, [r3, #4]
 80025b0:	81fb      	strh	r3, [r7, #14]
  
  /* Get the TIMx CCMR2 register value */
  tmpccmrx = TIMx->CCMR2;
 80025b2:	687b      	ldr	r3, [r7, #4]
 80025b4:	8b9b      	ldrh	r3, [r3, #28]
 80025b6:	81bb      	strh	r3, [r7, #12]
    
  /* Reset the Output Compare mode and Capture/Compare selection Bits */
  tmpccmrx &= (uint16_t)~TIM_CCMR2_OC4M;
 80025b8:	89bb      	ldrh	r3, [r7, #12]
 80025ba:	f423 43e0 	bic.w	r3, r3, #28672	; 0x7000
 80025be:	81bb      	strh	r3, [r7, #12]
  tmpccmrx &= (uint16_t)~TIM_CCMR2_CC4S;
 80025c0:	89bb      	ldrh	r3, [r7, #12]
 80025c2:	f423 7340 	bic.w	r3, r3, #768	; 0x300
 80025c6:	81bb      	strh	r3, [r7, #12]
  
  /* Select the Output Compare Mode */
  tmpccmrx |= (uint16_t)(TIM_OCInitStruct->TIM_OCMode << 8);
 80025c8:	683b      	ldr	r3, [r7, #0]
 80025ca:	881b      	ldrh	r3, [r3, #0]
 80025cc:	021b      	lsls	r3, r3, #8
 80025ce:	b29a      	uxth	r2, r3
 80025d0:	89bb      	ldrh	r3, [r7, #12]
 80025d2:	4313      	orrs	r3, r2
 80025d4:	81bb      	strh	r3, [r7, #12]
  
  /* Reset the Output Polarity level */
  tmpccer &= (uint16_t)~TIM_CCER_CC4P;
 80025d6:	897b      	ldrh	r3, [r7, #10]
 80025d8:	f423 5300 	bic.w	r3, r3, #8192	; 0x2000
 80025dc:	817b      	strh	r3, [r7, #10]
  /* Set the Output Compare Polarity */
  tmpccer |= (uint16_t)(TIM_OCInitStruct->TIM_OCPolarity << 12);
 80025de:	683b      	ldr	r3, [r7, #0]
 80025e0:	899b      	ldrh	r3, [r3, #12]
 80025e2:	031b      	lsls	r3, r3, #12
 80025e4:	b29a      	uxth	r2, r3
 80025e6:	897b      	ldrh	r3, [r7, #10]
 80025e8:	4313      	orrs	r3, r2
 80025ea:	817b      	strh	r3, [r7, #10]
  
  /* Set the Output State */
  tmpccer |= (uint16_t)(TIM_OCInitStruct->TIM_OutputState << 12);
 80025ec:	683b      	ldr	r3, [r7, #0]
 80025ee:	885b      	ldrh	r3, [r3, #2]
 80025f0:	031b      	lsls	r3, r3, #12
 80025f2:	b29a      	uxth	r2, r3
 80025f4:	897b      	ldrh	r3, [r7, #10]
 80025f6:	4313      	orrs	r3, r2
 80025f8:	817b      	strh	r3, [r7, #10]
  
  if((TIMx == TIM1) || (TIMx == TIM8))
 80025fa:	687b      	ldr	r3, [r7, #4]
 80025fc:	4a11      	ldr	r2, [pc, #68]	; (8002644 <TIM_OC4Init+0xc4>)
 80025fe:	4293      	cmp	r3, r2
 8002600:	d003      	beq.n	800260a <TIM_OC4Init+0x8a>
 8002602:	687b      	ldr	r3, [r7, #4]
 8002604:	4a10      	ldr	r2, [pc, #64]	; (8002648 <TIM_OC4Init+0xc8>)
 8002606:	4293      	cmp	r3, r2
 8002608:	d10a      	bne.n	8002620 <TIM_OC4Init+0xa0>
  {
    assert_param(IS_TIM_OCIDLE_STATE(TIM_OCInitStruct->TIM_OCIdleState));
    /* Reset the Output Compare IDLE State */
    tmpcr2 &=(uint16_t) ~TIM_CR2_OIS4;
 800260a:	89fb      	ldrh	r3, [r7, #14]
 800260c:	f423 4380 	bic.w	r3, r3, #16384	; 0x4000
 8002610:	81fb      	strh	r3, [r7, #14]
    /* Set the Output Idle state */
    tmpcr2 |= (uint16_t)(TIM_OCInitStruct->TIM_OCIdleState << 6);
 8002612:	683b      	ldr	r3, [r7, #0]
 8002614:	8a1b      	ldrh	r3, [r3, #16]
 8002616:	019b      	lsls	r3, r3, #6
 8002618:	b29a      	uxth	r2, r3
 800261a:	89fb      	ldrh	r3, [r7, #14]
 800261c:	4313      	orrs	r3, r2
 800261e:	81fb      	strh	r3, [r7, #14]
  }
  /* Write to TIMx CR2 */
  TIMx->CR2 = tmpcr2;
 8002620:	687b      	ldr	r3, [r7, #4]
 8002622:	89fa      	ldrh	r2, [r7, #14]
 8002624:	809a      	strh	r2, [r3, #4]
  
  /* Write to TIMx CCMR2 */  
  TIMx->CCMR2 = tmpccmrx;
 8002626:	687b      	ldr	r3, [r7, #4]
 8002628:	89ba      	ldrh	r2, [r7, #12]
 800262a:	839a      	strh	r2, [r3, #28]
    
  /* Set the Capture Compare Register value */
  TIMx->CCR4 = TIM_OCInitStruct->TIM_Pulse;
 800262c:	683b      	ldr	r3, [r7, #0]
 800262e:	689a      	ldr	r2, [r3, #8]
 8002630:	687b      	ldr	r3, [r7, #4]
 8002632:	641a      	str	r2, [r3, #64]	; 0x40
  
  /* Write to TIMx CCER */
  TIMx->CCER = tmpccer;
 8002634:	687b      	ldr	r3, [r7, #4]
 8002636:	897a      	ldrh	r2, [r7, #10]
 8002638:	841a      	strh	r2, [r3, #32]
}
 800263a:	3714      	adds	r7, #20
 800263c:	46bd      	mov	sp, r7
 800263e:	f85d 7b04 	ldr.w	r7, [sp], #4
 8002642:	4770      	bx	lr
 8002644:	40010000 	.word	0x40010000
 8002648:	40010400 	.word	0x40010400

0800264c <TIM_OCStructInit>:
  * @param  TIM_OCInitStruct: pointer to a TIM_OCInitTypeDef structure which will
  *         be initialized.
  * @retval None
  */
void TIM_OCStructInit(TIM_OCInitTypeDef* TIM_OCInitStruct)
{
 800264c:	b480      	push	{r7}
 800264e:	b083      	sub	sp, #12
 8002650:	af00      	add	r7, sp, #0
 8002652:	6078      	str	r0, [r7, #4]
  /* Set the default configuration */
  TIM_OCInitStruct->TIM_OCMode = TIM_OCMode_Timing;
 8002654:	687b      	ldr	r3, [r7, #4]
 8002656:	2200      	movs	r2, #0
 8002658:	801a      	strh	r2, [r3, #0]
  TIM_OCInitStruct->TIM_OutputState = TIM_OutputState_Disable;
 800265a:	687b      	ldr	r3, [r7, #4]
 800265c:	2200      	movs	r2, #0
 800265e:	805a      	strh	r2, [r3, #2]
  TIM_OCInitStruct->TIM_OutputNState = TIM_OutputNState_Disable;
 8002660:	687b      	ldr	r3, [r7, #4]
 8002662:	2200      	movs	r2, #0
 8002664:	809a      	strh	r2, [r3, #4]
  TIM_OCInitStruct->TIM_Pulse = 0x00000000;
 8002666:	687b      	ldr	r3, [r7, #4]
 8002668:	2200      	movs	r2, #0
 800266a:	609a      	str	r2, [r3, #8]
  TIM_OCInitStruct->TIM_OCPolarity = TIM_OCPolarity_High;
 800266c:	687b      	ldr	r3, [r7, #4]
 800266e:	2200      	movs	r2, #0
 8002670:	819a      	strh	r2, [r3, #12]
  TIM_OCInitStruct->TIM_OCNPolarity = TIM_OCPolarity_High;
 8002672:	687b      	ldr	r3, [r7, #4]
 8002674:	2200      	movs	r2, #0
 8002676:	81da      	strh	r2, [r3, #14]
  TIM_OCInitStruct->TIM_OCIdleState = TIM_OCIdleState_Reset;
 8002678:	687b      	ldr	r3, [r7, #4]
 800267a:	2200      	movs	r2, #0
 800267c:	821a      	strh	r2, [r3, #16]
  TIM_OCInitStruct->TIM_OCNIdleState = TIM_OCNIdleState_Reset;
 800267e:	687b      	ldr	r3, [r7, #4]
 8002680:	2200      	movs	r2, #0
 8002682:	825a      	strh	r2, [r3, #18]
}
 8002684:	370c      	adds	r7, #12
 8002686:	46bd      	mov	sp, r7
 8002688:	f85d 7b04 	ldr.w	r7, [sp], #4
 800268c:	4770      	bx	lr
 800268e:	bf00      	nop

08002690 <TIM_SelectOCxM>:
  *            @arg TIM_ForcedAction_Active
  *            @arg TIM_ForcedAction_InActive
  * @retval None
  */
void TIM_SelectOCxM(TIM_TypeDef* TIMx, uint16_t TIM_Channel, uint16_t TIM_OCMode)
{
 8002690:	b480      	push	{r7}
 8002692:	b085      	sub	sp, #20
 8002694:	af00      	add	r7, sp, #0
 8002696:	6078      	str	r0, [r7, #4]
 8002698:	460b      	mov	r3, r1
 800269a:	807b      	strh	r3, [r7, #2]
 800269c:	4613      	mov	r3, r2
 800269e:	803b      	strh	r3, [r7, #0]
  uint32_t tmp = 0;
 80026a0:	2300      	movs	r3, #0
 80026a2:	60fb      	str	r3, [r7, #12]
  uint16_t tmp1 = 0;
 80026a4:	2300      	movs	r3, #0
 80026a6:	817b      	strh	r3, [r7, #10]
  /* Check the parameters */
  assert_param(IS_TIM_LIST1_PERIPH(TIMx));
  assert_param(IS_TIM_CHANNEL(TIM_Channel));
  assert_param(IS_TIM_OCM(TIM_OCMode));

  tmp = (uint32_t) TIMx;
 80026a8:	687b      	ldr	r3, [r7, #4]
 80026aa:	60fb      	str	r3, [r7, #12]
  tmp += CCMR_OFFSET;
 80026ac:	68fb      	ldr	r3, [r7, #12]
 80026ae:	3318      	adds	r3, #24
 80026b0:	60fb      	str	r3, [r7, #12]

  tmp1 = CCER_CCE_SET << (uint16_t)TIM_Channel;
 80026b2:	887b      	ldrh	r3, [r7, #2]
 80026b4:	2201      	movs	r2, #1
 80026b6:	fa02 f303 	lsl.w	r3, r2, r3
 80026ba:	817b      	strh	r3, [r7, #10]

  /* Disable the Channel: Reset the CCxE Bit */
  TIMx->CCER &= (uint16_t) ~tmp1;
 80026bc:	687b      	ldr	r3, [r7, #4]
 80026be:	8c1b      	ldrh	r3, [r3, #32]
 80026c0:	b29a      	uxth	r2, r3
 80026c2:	897b      	ldrh	r3, [r7, #10]
 80026c4:	43db      	mvns	r3, r3
 80026c6:	b29b      	uxth	r3, r3
 80026c8:	4013      	ands	r3, r2
 80026ca:	b29a      	uxth	r2, r3
 80026cc:	687b      	ldr	r3, [r7, #4]
 80026ce:	841a      	strh	r2, [r3, #32]

  if((TIM_Channel == TIM_Channel_1) ||(TIM_Channel == TIM_Channel_3))
 80026d0:	887b      	ldrh	r3, [r7, #2]
 80026d2:	2b00      	cmp	r3, #0
 80026d4:	d002      	beq.n	80026dc <TIM_SelectOCxM+0x4c>
 80026d6:	887b      	ldrh	r3, [r7, #2]
 80026d8:	2b08      	cmp	r3, #8
 80026da:	d114      	bne.n	8002706 <TIM_SelectOCxM+0x76>
  {
    tmp += (TIM_Channel>>1);
 80026dc:	887b      	ldrh	r3, [r7, #2]
 80026de:	085b      	lsrs	r3, r3, #1
 80026e0:	b29b      	uxth	r3, r3
 80026e2:	461a      	mov	r2, r3
 80026e4:	68fb      	ldr	r3, [r7, #12]
 80026e6:	4413      	add	r3, r2
 80026e8:	60fb      	str	r3, [r7, #12]

    /* Reset the OCxM bits in the CCMRx register */
    *(__IO uint32_t *) tmp &= CCMR_OC13M_MASK;
 80026ea:	68fa      	ldr	r2, [r7, #12]
 80026ec:	68fb      	ldr	r3, [r7, #12]
 80026ee:	6819      	ldr	r1, [r3, #0]
 80026f0:	f64f 738f 	movw	r3, #65423	; 0xff8f
 80026f4:	400b      	ands	r3, r1
 80026f6:	6013      	str	r3, [r2, #0]
   
    /* Configure the OCxM bits in the CCMRx register */
    *(__IO uint32_t *) tmp |= TIM_OCMode;
 80026f8:	68fb      	ldr	r3, [r7, #12]
 80026fa:	68fa      	ldr	r2, [r7, #12]
 80026fc:	6811      	ldr	r1, [r2, #0]
 80026fe:	883a      	ldrh	r2, [r7, #0]
 8002700:	430a      	orrs	r2, r1
 8002702:	601a      	str	r2, [r3, #0]
 8002704:	e017      	b.n	8002736 <TIM_SelectOCxM+0xa6>
  }
  else
  {
    tmp += (uint16_t)(TIM_Channel - (uint16_t)4)>> (uint16_t)1;
 8002706:	887b      	ldrh	r3, [r7, #2]
 8002708:	3b04      	subs	r3, #4
 800270a:	b29b      	uxth	r3, r3
 800270c:	085b      	lsrs	r3, r3, #1
 800270e:	b29b      	uxth	r3, r3
 8002710:	461a      	mov	r2, r3
 8002712:	68fb      	ldr	r3, [r7, #12]
 8002714:	4413      	add	r3, r2
 8002716:	60fb      	str	r3, [r7, #12]

    /* Reset the OCxM bits in the CCMRx register */
    *(__IO uint32_t *) tmp &= CCMR_OC24M_MASK;
 8002718:	68fa      	ldr	r2, [r7, #12]
 800271a:	68fb      	ldr	r3, [r7, #12]
 800271c:	6819      	ldr	r1, [r3, #0]
 800271e:	f648 73ff 	movw	r3, #36863	; 0x8fff
 8002722:	400b      	ands	r3, r1
 8002724:	6013      	str	r3, [r2, #0]
    
    /* Configure the OCxM bits in the CCMRx register */
    *(__IO uint32_t *) tmp |= (uint16_t)(TIM_OCMode << 8);
 8002726:	68fb      	ldr	r3, [r7, #12]
 8002728:	68fa      	ldr	r2, [r7, #12]
 800272a:	6812      	ldr	r2, [r2, #0]
 800272c:	8839      	ldrh	r1, [r7, #0]
 800272e:	0209      	lsls	r1, r1, #8
 8002730:	b289      	uxth	r1, r1
 8002732:	430a      	orrs	r2, r1
 8002734:	601a      	str	r2, [r3, #0]
  }
}
 8002736:	3714      	adds	r7, #20
 8002738:	46bd      	mov	sp, r7
 800273a:	f85d 7b04 	ldr.w	r7, [sp], #4
 800273e:	4770      	bx	lr

08002740 <TIM_SetCompare1>:
  * @param  TIMx: where x can be 1 to 14 except 6 and 7, to select the TIM peripheral.
  * @param  Compare1: specifies the Capture Compare1 register new value.
  * @retval None
  */
void TIM_SetCompare1(TIM_TypeDef* TIMx, uint32_t Compare1)
{
 8002740:	b480      	push	{r7}
 8002742:	b083      	sub	sp, #12
 8002744:	af00      	add	r7, sp, #0
 8002746:	6078      	str	r0, [r7, #4]
 8002748:	6039      	str	r1, [r7, #0]
  /* Check the parameters */
  assert_param(IS_TIM_LIST1_PERIPH(TIMx));

  /* Set the Capture Compare1 Register value */
  TIMx->CCR1 = Compare1;
 800274a:	687b      	ldr	r3, [r7, #4]
 800274c:	683a      	ldr	r2, [r7, #0]
 800274e:	635a      	str	r2, [r3, #52]	; 0x34
}
 8002750:	370c      	adds	r7, #12
 8002752:	46bd      	mov	sp, r7
 8002754:	f85d 7b04 	ldr.w	r7, [sp], #4
 8002758:	4770      	bx	lr
 800275a:	bf00      	nop

0800275c <TIM_SetCompare2>:
  *         peripheral.
  * @param  Compare2: specifies the Capture Compare2 register new value.
  * @retval None
  */
void TIM_SetCompare2(TIM_TypeDef* TIMx, uint32_t Compare2)
{
 800275c:	b480      	push	{r7}
 800275e:	b083      	sub	sp, #12
 8002760:	af00      	add	r7, sp, #0
 8002762:	6078      	str	r0, [r7, #4]
 8002764:	6039      	str	r1, [r7, #0]
  /* Check the parameters */
  assert_param(IS_TIM_LIST2_PERIPH(TIMx));

  /* Set the Capture Compare2 Register value */
  TIMx->CCR2 = Compare2;
 8002766:	687b      	ldr	r3, [r7, #4]
 8002768:	683a      	ldr	r2, [r7, #0]
 800276a:	639a      	str	r2, [r3, #56]	; 0x38
}
 800276c:	370c      	adds	r7, #12
 800276e:	46bd      	mov	sp, r7
 8002770:	f85d 7b04 	ldr.w	r7, [sp], #4
 8002774:	4770      	bx	lr
 8002776:	bf00      	nop

08002778 <TIM_SetCompare3>:
  * @param  TIMx: where x can be 1, 2, 3, 4, 5 or 8 to select the TIM peripheral.
  * @param  Compare3: specifies the Capture Compare3 register new value.
  * @retval None
  */
void TIM_SetCompare3(TIM_TypeDef* TIMx, uint32_t Compare3)
{
 8002778:	b480      	push	{r7}
 800277a:	b083      	sub	sp, #12
 800277c:	af00      	add	r7, sp, #0
 800277e:	6078      	str	r0, [r7, #4]
 8002780:	6039      	str	r1, [r7, #0]
  /* Check the parameters */
  assert_param(IS_TIM_LIST3_PERIPH(TIMx));

  /* Set the Capture Compare3 Register value */
  TIMx->CCR3 = Compare3;
 8002782:	687b      	ldr	r3, [r7, #4]
 8002784:	683a      	ldr	r2, [r7, #0]
 8002786:	63da      	str	r2, [r3, #60]	; 0x3c
}
 8002788:	370c      	adds	r7, #12
 800278a:	46bd      	mov	sp, r7
 800278c:	f85d 7b04 	ldr.w	r7, [sp], #4
 8002790:	4770      	bx	lr
 8002792:	bf00      	nop

08002794 <TIM_SetCompare4>:
  * @param  TIMx: where x can be 1, 2, 3, 4, 5 or 8 to select the TIM peripheral.
  * @param  Compare4: specifies the Capture Compare4 register new value.
  * @retval None
  */
void TIM_SetCompare4(TIM_TypeDef* TIMx, uint32_t Compare4)
{
 8002794:	b480      	push	{r7}
 8002796:	b083      	sub	sp, #12
 8002798:	af00      	add	r7, sp, #0
 800279a:	6078      	str	r0, [r7, #4]
 800279c:	6039      	str	r1, [r7, #0]
  /* Check the parameters */
  assert_param(IS_TIM_LIST3_PERIPH(TIMx));

  /* Set the Capture Compare4 Register value */
  TIMx->CCR4 = Compare4;
 800279e:	687b      	ldr	r3, [r7, #4]
 80027a0:	683a      	ldr	r2, [r7, #0]
 80027a2:	641a      	str	r2, [r3, #64]	; 0x40
}
 80027a4:	370c      	adds	r7, #12
 80027a6:	46bd      	mov	sp, r7
 80027a8:	f85d 7b04 	ldr.w	r7, [sp], #4
 80027ac:	4770      	bx	lr
 80027ae:	bf00      	nop

080027b0 <TIM_ForcedOC1Config>:
  *            @arg TIM_ForcedAction_Active: Force active level on OC1REF
  *            @arg TIM_ForcedAction_InActive: Force inactive level on OC1REF.
  * @retval None
  */
void TIM_ForcedOC1Config(TIM_TypeDef* TIMx, uint16_t TIM_ForcedAction)
{
 80027b0:	b480      	push	{r7}
 80027b2:	b085      	sub	sp, #20
 80027b4:	af00      	add	r7, sp, #0
 80027b6:	6078      	str	r0, [r7, #4]
 80027b8:	460b      	mov	r3, r1
 80027ba:	807b      	strh	r3, [r7, #2]
  uint16_t tmpccmr1 = 0;
 80027bc:	2300      	movs	r3, #0
 80027be:	81fb      	strh	r3, [r7, #14]

  /* Check the parameters */
  assert_param(IS_TIM_LIST1_PERIPH(TIMx));
  assert_param(IS_TIM_FORCED_ACTION(TIM_ForcedAction));
  tmpccmr1 = TIMx->CCMR1;
 80027c0:	687b      	ldr	r3, [r7, #4]
 80027c2:	8b1b      	ldrh	r3, [r3, #24]
 80027c4:	81fb      	strh	r3, [r7, #14]

  /* Reset the OC1M Bits */
  tmpccmr1 &= (uint16_t)~TIM_CCMR1_OC1M;
 80027c6:	89fb      	ldrh	r3, [r7, #14]
 80027c8:	f023 0370 	bic.w	r3, r3, #112	; 0x70
 80027cc:	81fb      	strh	r3, [r7, #14]

  /* Configure The Forced output Mode */
  tmpccmr1 |= TIM_ForcedAction;
 80027ce:	89fa      	ldrh	r2, [r7, #14]
 80027d0:	887b      	ldrh	r3, [r7, #2]
 80027d2:	4313      	orrs	r3, r2
 80027d4:	81fb      	strh	r3, [r7, #14]

  /* Write to TIMx CCMR1 register */
  TIMx->CCMR1 = tmpccmr1;
 80027d6:	687b      	ldr	r3, [r7, #4]
 80027d8:	89fa      	ldrh	r2, [r7, #14]
 80027da:	831a      	strh	r2, [r3, #24]
}
 80027dc:	3714      	adds	r7, #20
 80027de:	46bd      	mov	sp, r7
 80027e0:	f85d 7b04 	ldr.w	r7, [sp], #4
 80027e4:	4770      	bx	lr
 80027e6:	bf00      	nop

080027e8 <TIM_ForcedOC2Config>:
  *            @arg TIM_ForcedAction_Active: Force active level on OC2REF
  *            @arg TIM_ForcedAction_InActive: Force inactive level on OC2REF.
  * @retval None
  */
void TIM_ForcedOC2Config(TIM_TypeDef* TIMx, uint16_t TIM_ForcedAction)
{
 80027e8:	b480      	push	{r7}
 80027ea:	b085      	sub	sp, #20
 80027ec:	af00      	add	r7, sp, #0
 80027ee:	6078      	str	r0, [r7, #4]
 80027f0:	460b      	mov	r3, r1
 80027f2:	807b      	strh	r3, [r7, #2]
  uint16_t tmpccmr1 = 0;
 80027f4:	2300      	movs	r3, #0
 80027f6:	81fb      	strh	r3, [r7, #14]

  /* Check the parameters */
  assert_param(IS_TIM_LIST2_PERIPH(TIMx));
  assert_param(IS_TIM_FORCED_ACTION(TIM_ForcedAction));
  tmpccmr1 = TIMx->CCMR1;
 80027f8:	687b      	ldr	r3, [r7, #4]
 80027fa:	8b1b      	ldrh	r3, [r3, #24]
 80027fc:	81fb      	strh	r3, [r7, #14]

  /* Reset the OC2M Bits */
  tmpccmr1 &= (uint16_t)~TIM_CCMR1_OC2M;
 80027fe:	89fb      	ldrh	r3, [r7, #14]
 8002800:	f423 43e0 	bic.w	r3, r3, #28672	; 0x7000
 8002804:	81fb      	strh	r3, [r7, #14]

  /* Configure The Forced output Mode */
  tmpccmr1 |= (uint16_t)(TIM_ForcedAction << 8);
 8002806:	887b      	ldrh	r3, [r7, #2]
 8002808:	021b      	lsls	r3, r3, #8
 800280a:	b29a      	uxth	r2, r3
 800280c:	89fb      	ldrh	r3, [r7, #14]
 800280e:	4313      	orrs	r3, r2
 8002810:	81fb      	strh	r3, [r7, #14]

  /* Write to TIMx CCMR1 register */
  TIMx->CCMR1 = tmpccmr1;
 8002812:	687b      	ldr	r3, [r7, #4]
 8002814:	89fa      	ldrh	r2, [r7, #14]
 8002816:	831a      	strh	r2, [r3, #24]
}
 8002818:	3714      	adds	r7, #20
 800281a:	46bd      	mov	sp, r7
 800281c:	f85d 7b04 	ldr.w	r7, [sp], #4
 8002820:	4770      	bx	lr
 8002822:	bf00      	nop

08002824 <TIM_ForcedOC3Config>:
  *            @arg TIM_ForcedAction_Active: Force active level on OC3REF
  *            @arg TIM_ForcedAction_InActive: Force inactive level on OC3REF.
  * @retval None
  */
void TIM_ForcedOC3Config(TIM_TypeDef* TIMx, uint16_t TIM_ForcedAction)
{
 8002824:	b480      	push	{r7}
 8002826:	b085      	sub	sp, #20
 8002828:	af00      	add	r7, sp, #0
 800282a:	6078      	str	r0, [r7, #4]
 800282c:	460b      	mov	r3, r1
 800282e:	807b      	strh	r3, [r7, #2]
  uint16_t tmpccmr2 = 0;
 8002830:	2300      	movs	r3, #0
 8002832:	81fb      	strh	r3, [r7, #14]

  /* Check the parameters */
  assert_param(IS_TIM_LIST3_PERIPH(TIMx));
  assert_param(IS_TIM_FORCED_ACTION(TIM_ForcedAction));

  tmpccmr2 = TIMx->CCMR2;
 8002834:	687b      	ldr	r3, [r7, #4]
 8002836:	8b9b      	ldrh	r3, [r3, #28]
 8002838:	81fb      	strh	r3, [r7, #14]

  /* Reset the OC1M Bits */
  tmpccmr2 &= (uint16_t)~TIM_CCMR2_OC3M;
 800283a:	89fb      	ldrh	r3, [r7, #14]
 800283c:	f023 0370 	bic.w	r3, r3, #112	; 0x70
 8002840:	81fb      	strh	r3, [r7, #14]

  /* Configure The Forced output Mode */
  tmpccmr2 |= TIM_ForcedAction;
 8002842:	89fa      	ldrh	r2, [r7, #14]
 8002844:	887b      	ldrh	r3, [r7, #2]
 8002846:	4313      	orrs	r3, r2
 8002848:	81fb      	strh	r3, [r7, #14]

  /* Write to TIMx CCMR2 register */
  TIMx->CCMR2 = tmpccmr2;
 800284a:	687b      	ldr	r3, [r7, #4]
 800284c:	89fa      	ldrh	r2, [r7, #14]
 800284e:	839a      	strh	r2, [r3, #28]
}
 8002850:	3714      	adds	r7, #20
 8002852:	46bd      	mov	sp, r7
 8002854:	f85d 7b04 	ldr.w	r7, [sp], #4
 8002858:	4770      	bx	lr
 800285a:	bf00      	nop

0800285c <TIM_ForcedOC4Config>:
  *            @arg TIM_ForcedAction_Active: Force active level on OC4REF
  *            @arg TIM_ForcedAction_InActive: Force inactive level on OC4REF.
  * @retval None
  */
void TIM_ForcedOC4Config(TIM_TypeDef* TIMx, uint16_t TIM_ForcedAction)
{
 800285c:	b480      	push	{r7}
 800285e:	b085      	sub	sp, #20
 8002860:	af00      	add	r7, sp, #0
 8002862:	6078      	str	r0, [r7, #4]
 8002864:	460b      	mov	r3, r1
 8002866:	807b      	strh	r3, [r7, #2]
  uint16_t tmpccmr2 = 0;
 8002868:	2300      	movs	r3, #0
 800286a:	81fb      	strh	r3, [r7, #14]

  /* Check the parameters */
  assert_param(IS_TIM_LIST3_PERIPH(TIMx));
  assert_param(IS_TIM_FORCED_ACTION(TIM_ForcedAction));
  tmpccmr2 = TIMx->CCMR2;
 800286c:	687b      	ldr	r3, [r7, #4]
 800286e:	8b9b      	ldrh	r3, [r3, #28]
 8002870:	81fb      	strh	r3, [r7, #14]

  /* Reset the OC2M Bits */
  tmpccmr2 &= (uint16_t)~TIM_CCMR2_OC4M;
 8002872:	89fb      	ldrh	r3, [r7, #14]
 8002874:	f423 43e0 	bic.w	r3, r3, #28672	; 0x7000
 8002878:	81fb      	strh	r3, [r7, #14]

  /* Configure The Forced output Mode */
  tmpccmr2 |= (uint16_t)(TIM_ForcedAction << 8);
 800287a:	887b      	ldrh	r3, [r7, #2]
 800287c:	021b      	lsls	r3, r3, #8
 800287e:	b29a      	uxth	r2, r3
 8002880:	89fb      	ldrh	r3, [r7, #14]
 8002882:	4313      	orrs	r3, r2
 8002884:	81fb      	strh	r3, [r7, #14]

  /* Write to TIMx CCMR2 register */
  TIMx->CCMR2 = tmpccmr2;
 8002886:	687b      	ldr	r3, [r7, #4]
 8002888:	89fa      	ldrh	r2, [r7, #14]
 800288a:	839a      	strh	r2, [r3, #28]
}
 800288c:	3714      	adds	r7, #20
 800288e:	46bd      	mov	sp, r7
 8002890:	f85d 7b04 	ldr.w	r7, [sp], #4
 8002894:	4770      	bx	lr
 8002896:	bf00      	nop

08002898 <TIM_OC1PreloadConfig>:
  *            @arg TIM_OCPreload_Enable
  *            @arg TIM_OCPreload_Disable
  * @retval None
  */
void TIM_OC1PreloadConfig(TIM_TypeDef* TIMx, uint16_t TIM_OCPreload)
{
 8002898:	b480      	push	{r7}
 800289a:	b085      	sub	sp, #20
 800289c:	af00      	add	r7, sp, #0
 800289e:	6078      	str	r0, [r7, #4]
 80028a0:	460b      	mov	r3, r1
 80028a2:	807b      	strh	r3, [r7, #2]
  uint16_t tmpccmr1 = 0;
 80028a4:	2300      	movs	r3, #0
 80028a6:	81fb      	strh	r3, [r7, #14]

  /* Check the parameters */
  assert_param(IS_TIM_LIST1_PERIPH(TIMx));
  assert_param(IS_TIM_OCPRELOAD_STATE(TIM_OCPreload));

  tmpccmr1 = TIMx->CCMR1;
 80028a8:	687b      	ldr	r3, [r7, #4]
 80028aa:	8b1b      	ldrh	r3, [r3, #24]
 80028ac:	81fb      	strh	r3, [r7, #14]

  /* Reset the OC1PE Bit */
  tmpccmr1 &= (uint16_t)(~TIM_CCMR1_OC1PE);
 80028ae:	89fb      	ldrh	r3, [r7, #14]
 80028b0:	f023 0308 	bic.w	r3, r3, #8
 80028b4:	81fb      	strh	r3, [r7, #14]

  /* Enable or Disable the Output Compare Preload feature */
  tmpccmr1 |= TIM_OCPreload;
 80028b6:	89fa      	ldrh	r2, [r7, #14]
 80028b8:	887b      	ldrh	r3, [r7, #2]
 80028ba:	4313      	orrs	r3, r2
 80028bc:	81fb      	strh	r3, [r7, #14]

  /* Write to TIMx CCMR1 register */
  TIMx->CCMR1 = tmpccmr1;
 80028be:	687b      	ldr	r3, [r7, #4]
 80028c0:	89fa      	ldrh	r2, [r7, #14]
 80028c2:	831a      	strh	r2, [r3, #24]
}
 80028c4:	3714      	adds	r7, #20
 80028c6:	46bd      	mov	sp, r7
 80028c8:	f85d 7b04 	ldr.w	r7, [sp], #4
 80028cc:	4770      	bx	lr
 80028ce:	bf00      	nop

080028d0 <TIM_OC2PreloadConfig>:
  *            @arg TIM_OCPreload_Enable
  *            @arg TIM_OCPreload_Disable
  * @retval None
  */
void TIM_OC2PreloadConfig(TIM_TypeDef* TIMx, uint16_t TIM_OCPreload)
{
 80028d0:	b480      	push	{r7}
 80028d2:	b085      	sub	sp, #20
 80028d4:	af00      	add	r7, sp, #0
 80028d6:	6078      	str	r0, [r7, #4]
 80028d8:	460b      	mov	r3, r1
 80028da:	807b      	strh	r3, [r7, #2]
  uint16_t tmpccmr1 = 0;
 80028dc:	2300      	movs	r3, #0
 80028de:	81fb      	strh	r3, [r7, #14]

  /* Check the parameters */
  assert_param(IS_TIM_LIST2_PERIPH(TIMx));
  assert_param(IS_TIM_OCPRELOAD_STATE(TIM_OCPreload));

  tmpccmr1 = TIMx->CCMR1;
 80028e0:	687b      	ldr	r3, [r7, #4]
 80028e2:	8b1b      	ldrh	r3, [r3, #24]
 80028e4:	81fb      	strh	r3, [r7, #14]

  /* Reset the OC2PE Bit */
  tmpccmr1 &= (uint16_t)(~TIM_CCMR1_OC2PE);
 80028e6:	89fb      	ldrh	r3, [r7, #14]
 80028e8:	f423 6300 	bic.w	r3, r3, #2048	; 0x800
 80028ec:	81fb      	strh	r3, [r7, #14]

  /* Enable or Disable the Output Compare Preload feature */
  tmpccmr1 |= (uint16_t)(TIM_OCPreload << 8);
 80028ee:	887b      	ldrh	r3, [r7, #2]
 80028f0:	021b      	lsls	r3, r3, #8
 80028f2:	b29a      	uxth	r2, r3
 80028f4:	89fb      	ldrh	r3, [r7, #14]
 80028f6:	4313      	orrs	r3, r2
 80028f8:	81fb      	strh	r3, [r7, #14]

  /* Write to TIMx CCMR1 register */
  TIMx->CCMR1 = tmpccmr1;
 80028fa:	687b      	ldr	r3, [r7, #4]
 80028fc:	89fa      	ldrh	r2, [r7, #14]
 80028fe:	831a      	strh	r2, [r3, #24]
}
 8002900:	3714      	adds	r7, #20
 8002902:	46bd      	mov	sp, r7
 8002904:	f85d 7b04 	ldr.w	r7, [sp], #4
 8002908:	4770      	bx	lr
 800290a:	bf00      	nop

0800290c <TIM_OC3PreloadConfig>:
  *            @arg TIM_OCPreload_Enable
  *            @arg TIM_OCPreload_Disable
  * @retval None
  */
void TIM_OC3PreloadConfig(TIM_TypeDef* TIMx, uint16_t TIM_OCPreload)
{
 800290c:	b480      	push	{r7}
 800290e:	b085      	sub	sp, #20
 8002910:	af00      	add	r7, sp, #0
 8002912:	6078      	str	r0, [r7, #4]
 8002914:	460b      	mov	r3, r1
 8002916:	807b      	strh	r3, [r7, #2]
  uint16_t tmpccmr2 = 0;
 8002918:	2300      	movs	r3, #0
 800291a:	81fb      	strh	r3, [r7, #14]

  /* Check the parameters */
  assert_param(IS_TIM_LIST3_PERIPH(TIMx));
  assert_param(IS_TIM_OCPRELOAD_STATE(TIM_OCPreload));

  tmpccmr2 = TIMx->CCMR2;
 800291c:	687b      	ldr	r3, [r7, #4]
 800291e:	8b9b      	ldrh	r3, [r3, #28]
 8002920:	81fb      	strh	r3, [r7, #14]

  /* Reset the OC3PE Bit */
  tmpccmr2 &= (uint16_t)(~TIM_CCMR2_OC3PE);
 8002922:	89fb      	ldrh	r3, [r7, #14]
 8002924:	f023 0308 	bic.w	r3, r3, #8
 8002928:	81fb      	strh	r3, [r7, #14]

  /* Enable or Disable the Output Compare Preload feature */
  tmpccmr2 |= TIM_OCPreload;
 800292a:	89fa      	ldrh	r2, [r7, #14]
 800292c:	887b      	ldrh	r3, [r7, #2]
 800292e:	4313      	orrs	r3, r2
 8002930:	81fb      	strh	r3, [r7, #14]

  /* Write to TIMx CCMR2 register */
  TIMx->CCMR2 = tmpccmr2;
 8002932:	687b      	ldr	r3, [r7, #4]
 8002934:	89fa      	ldrh	r2, [r7, #14]
 8002936:	839a      	strh	r2, [r3, #28]
}
 8002938:	3714      	adds	r7, #20
 800293a:	46bd      	mov	sp, r7
 800293c:	f85d 7b04 	ldr.w	r7, [sp], #4
 8002940:	4770      	bx	lr
 8002942:	bf00      	nop

08002944 <TIM_OC4PreloadConfig>:
  *            @arg TIM_OCPreload_Enable
  *            @arg TIM_OCPreload_Disable
  * @retval None
  */
void TIM_OC4PreloadConfig(TIM_TypeDef* TIMx, uint16_t TIM_OCPreload)
{
 8002944:	b480      	push	{r7}
 8002946:	b085      	sub	sp, #20
 8002948:	af00      	add	r7, sp, #0
 800294a:	6078      	str	r0, [r7, #4]
 800294c:	460b      	mov	r3, r1
 800294e:	807b      	strh	r3, [r7, #2]
  uint16_t tmpccmr2 = 0;
 8002950:	2300      	movs	r3, #0
 8002952:	81fb      	strh	r3, [r7, #14]

  /* Check the parameters */
  assert_param(IS_TIM_LIST3_PERIPH(TIMx));
  assert_param(IS_TIM_OCPRELOAD_STATE(TIM_OCPreload));

  tmpccmr2 = TIMx->CCMR2;
 8002954:	687b      	ldr	r3, [r7, #4]
 8002956:	8b9b      	ldrh	r3, [r3, #28]
 8002958:	81fb      	strh	r3, [r7, #14]

  /* Reset the OC4PE Bit */
  tmpccmr2 &= (uint16_t)(~TIM_CCMR2_OC4PE);
 800295a:	89fb      	ldrh	r3, [r7, #14]
 800295c:	f423 6300 	bic.w	r3, r3, #2048	; 0x800
 8002960:	81fb      	strh	r3, [r7, #14]

  /* Enable or Disable the Output Compare Preload feature */
  tmpccmr2 |= (uint16_t)(TIM_OCPreload << 8);
 8002962:	887b      	ldrh	r3, [r7, #2]
 8002964:	021b      	lsls	r3, r3, #8
 8002966:	b29a      	uxth	r2, r3
 8002968:	89fb      	ldrh	r3, [r7, #14]
 800296a:	4313      	orrs	r3, r2
 800296c:	81fb      	strh	r3, [r7, #14]

  /* Write to TIMx CCMR2 register */
  TIMx->CCMR2 = tmpccmr2;
 800296e:	687b      	ldr	r3, [r7, #4]
 8002970:	89fa      	ldrh	r2, [r7, #14]
 8002972:	839a      	strh	r2, [r3, #28]
}
 8002974:	3714      	adds	r7, #20
 8002976:	46bd      	mov	sp, r7
 8002978:	f85d 7b04 	ldr.w	r7, [sp], #4
 800297c:	4770      	bx	lr
 800297e:	bf00      	nop

08002980 <TIM_OC1FastConfig>:
  *            @arg TIM_OCFast_Enable: TIM output compare fast enable
  *            @arg TIM_OCFast_Disable: TIM output compare fast disable
  * @retval None
  */
void TIM_OC1FastConfig(TIM_TypeDef* TIMx, uint16_t TIM_OCFast)
{
 8002980:	b480      	push	{r7}
 8002982:	b085      	sub	sp, #20
 8002984:	af00      	add	r7, sp, #0
 8002986:	6078      	str	r0, [r7, #4]
 8002988:	460b      	mov	r3, r1
 800298a:	807b      	strh	r3, [r7, #2]
  uint16_t tmpccmr1 = 0;
 800298c:	2300      	movs	r3, #0
 800298e:	81fb      	strh	r3, [r7, #14]
  /* Check the parameters */
  assert_param(IS_TIM_LIST1_PERIPH(TIMx));
  assert_param(IS_TIM_OCFAST_STATE(TIM_OCFast));

  /* Get the TIMx CCMR1 register value */
  tmpccmr1 = TIMx->CCMR1;
 8002990:	687b      	ldr	r3, [r7, #4]
 8002992:	8b1b      	ldrh	r3, [r3, #24]
 8002994:	81fb      	strh	r3, [r7, #14]

  /* Reset the OC1FE Bit */
  tmpccmr1 &= (uint16_t)~TIM_CCMR1_OC1FE;
 8002996:	89fb      	ldrh	r3, [r7, #14]
 8002998:	f023 0304 	bic.w	r3, r3, #4
 800299c:	81fb      	strh	r3, [r7, #14]

  /* Enable or Disable the Output Compare Fast Bit */
  tmpccmr1 |= TIM_OCFast;
 800299e:	89fa      	ldrh	r2, [r7, #14]
 80029a0:	887b      	ldrh	r3, [r7, #2]
 80029a2:	4313      	orrs	r3, r2
 80029a4:	81fb      	strh	r3, [r7, #14]

  /* Write to TIMx CCMR1 */
  TIMx->CCMR1 = tmpccmr1;
 80029a6:	687b      	ldr	r3, [r7, #4]
 80029a8:	89fa      	ldrh	r2, [r7, #14]
 80029aa:	831a      	strh	r2, [r3, #24]
}
 80029ac:	3714      	adds	r7, #20
 80029ae:	46bd      	mov	sp, r7
 80029b0:	f85d 7b04 	ldr.w	r7, [sp], #4
 80029b4:	4770      	bx	lr
 80029b6:	bf00      	nop

080029b8 <TIM_OC2FastConfig>:
  *            @arg TIM_OCFast_Enable: TIM output compare fast enable
  *            @arg TIM_OCFast_Disable: TIM output compare fast disable
  * @retval None
  */
void TIM_OC2FastConfig(TIM_TypeDef* TIMx, uint16_t TIM_OCFast)
{
 80029b8:	b480      	push	{r7}
 80029ba:	b085      	sub	sp, #20
 80029bc:	af00      	add	r7, sp, #0
 80029be:	6078      	str	r0, [r7, #4]
 80029c0:	460b      	mov	r3, r1
 80029c2:	807b      	strh	r3, [r7, #2]
  uint16_t tmpccmr1 = 0;
 80029c4:	2300      	movs	r3, #0
 80029c6:	81fb      	strh	r3, [r7, #14]
  /* Check the parameters */
  assert_param(IS_TIM_LIST2_PERIPH(TIMx));
  assert_param(IS_TIM_OCFAST_STATE(TIM_OCFast));

  /* Get the TIMx CCMR1 register value */
  tmpccmr1 = TIMx->CCMR1;
 80029c8:	687b      	ldr	r3, [r7, #4]
 80029ca:	8b1b      	ldrh	r3, [r3, #24]
 80029cc:	81fb      	strh	r3, [r7, #14]

  /* Reset the OC2FE Bit */
  tmpccmr1 &= (uint16_t)(~TIM_CCMR1_OC2FE);
 80029ce:	89fb      	ldrh	r3, [r7, #14]
 80029d0:	f423 6380 	bic.w	r3, r3, #1024	; 0x400
 80029d4:	81fb      	strh	r3, [r7, #14]

  /* Enable or Disable the Output Compare Fast Bit */
  tmpccmr1 |= (uint16_t)(TIM_OCFast << 8);
 80029d6:	887b      	ldrh	r3, [r7, #2]
 80029d8:	021b      	lsls	r3, r3, #8
 80029da:	b29a      	uxth	r2, r3
 80029dc:	89fb      	ldrh	r3, [r7, #14]
 80029de:	4313      	orrs	r3, r2
 80029e0:	81fb      	strh	r3, [r7, #14]

  /* Write to TIMx CCMR1 */
  TIMx->CCMR1 = tmpccmr1;
 80029e2:	687b      	ldr	r3, [r7, #4]
 80029e4:	89fa      	ldrh	r2, [r7, #14]
 80029e6:	831a      	strh	r2, [r3, #24]
}
 80029e8:	3714      	adds	r7, #20
 80029ea:	46bd      	mov	sp, r7
 80029ec:	f85d 7b04 	ldr.w	r7, [sp], #4
 80029f0:	4770      	bx	lr
 80029f2:	bf00      	nop

080029f4 <TIM_OC3FastConfig>:
  *            @arg TIM_OCFast_Enable: TIM output compare fast enable
  *            @arg TIM_OCFast_Disable: TIM output compare fast disable
  * @retval None
  */
void TIM_OC3FastConfig(TIM_TypeDef* TIMx, uint16_t TIM_OCFast)
{
 80029f4:	b480      	push	{r7}
 80029f6:	b085      	sub	sp, #20
 80029f8:	af00      	add	r7, sp, #0
 80029fa:	6078      	str	r0, [r7, #4]
 80029fc:	460b      	mov	r3, r1
 80029fe:	807b      	strh	r3, [r7, #2]
  uint16_t tmpccmr2 = 0;
 8002a00:	2300      	movs	r3, #0
 8002a02:	81fb      	strh	r3, [r7, #14]
  /* Check the parameters */
  assert_param(IS_TIM_LIST3_PERIPH(TIMx));
  assert_param(IS_TIM_OCFAST_STATE(TIM_OCFast));

  /* Get the TIMx CCMR2 register value */
  tmpccmr2 = TIMx->CCMR2;
 8002a04:	687b      	ldr	r3, [r7, #4]
 8002a06:	8b9b      	ldrh	r3, [r3, #28]
 8002a08:	81fb      	strh	r3, [r7, #14]

  /* Reset the OC3FE Bit */
  tmpccmr2 &= (uint16_t)~TIM_CCMR2_OC3FE;
 8002a0a:	89fb      	ldrh	r3, [r7, #14]
 8002a0c:	f023 0304 	bic.w	r3, r3, #4
 8002a10:	81fb      	strh	r3, [r7, #14]

  /* Enable or Disable the Output Compare Fast Bit */
  tmpccmr2 |= TIM_OCFast;
 8002a12:	89fa      	ldrh	r2, [r7, #14]
 8002a14:	887b      	ldrh	r3, [r7, #2]
 8002a16:	4313      	orrs	r3, r2
 8002a18:	81fb      	strh	r3, [r7, #14]

  /* Write to TIMx CCMR2 */
  TIMx->CCMR2 = tmpccmr2;
 8002a1a:	687b      	ldr	r3, [r7, #4]
 8002a1c:	89fa      	ldrh	r2, [r7, #14]
 8002a1e:	839a      	strh	r2, [r3, #28]
}
 8002a20:	3714      	adds	r7, #20
 8002a22:	46bd      	mov	sp, r7
 8002a24:	f85d 7b04 	ldr.w	r7, [sp], #4
 8002a28:	4770      	bx	lr
 8002a2a:	bf00      	nop

08002a2c <TIM_OC4FastConfig>:
  *            @arg TIM_OCFast_Enable: TIM output compare fast enable
  *            @arg TIM_OCFast_Disable: TIM output compare fast disable
  * @retval None
  */
void TIM_OC4FastConfig(TIM_TypeDef* TIMx, uint16_t TIM_OCFast)
{
 8002a2c:	b480      	push	{r7}
 8002a2e:	b085      	sub	sp, #20
 8002a30:	af00      	add	r7, sp, #0
 8002a32:	6078      	str	r0, [r7, #4]
 8002a34:	460b      	mov	r3, r1
 8002a36:	807b      	strh	r3, [r7, #2]
  uint16_t tmpccmr2 = 0;
 8002a38:	2300      	movs	r3, #0
 8002a3a:	81fb      	strh	r3, [r7, #14]
  /* Check the parameters */
  assert_param(IS_TIM_LIST3_PERIPH(TIMx));
  assert_param(IS_TIM_OCFAST_STATE(TIM_OCFast));

  /* Get the TIMx CCMR2 register value */
  tmpccmr2 = TIMx->CCMR2;
 8002a3c:	687b      	ldr	r3, [r7, #4]
 8002a3e:	8b9b      	ldrh	r3, [r3, #28]
 8002a40:	81fb      	strh	r3, [r7, #14]

  /* Reset the OC4FE Bit */
  tmpccmr2 &= (uint16_t)(~TIM_CCMR2_OC4FE);
 8002a42:	89fb      	ldrh	r3, [r7, #14]
 8002a44:	f423 6380 	bic.w	r3, r3, #1024	; 0x400
 8002a48:	81fb      	strh	r3, [r7, #14]

  /* Enable or Disable the Output Compare Fast Bit */
  tmpccmr2 |= (uint16_t)(TIM_OCFast << 8);
 8002a4a:	887b      	ldrh	r3, [r7, #2]
 8002a4c:	021b      	lsls	r3, r3, #8
 8002a4e:	b29a      	uxth	r2, r3
 8002a50:	89fb      	ldrh	r3, [r7, #14]
 8002a52:	4313      	orrs	r3, r2
 8002a54:	81fb      	strh	r3, [r7, #14]

  /* Write to TIMx CCMR2 */
  TIMx->CCMR2 = tmpccmr2;
 8002a56:	687b      	ldr	r3, [r7, #4]
 8002a58:	89fa      	ldrh	r2, [r7, #14]
 8002a5a:	839a      	strh	r2, [r3, #28]
}
 8002a5c:	3714      	adds	r7, #20
 8002a5e:	46bd      	mov	sp, r7
 8002a60:	f85d 7b04 	ldr.w	r7, [sp], #4
 8002a64:	4770      	bx	lr
 8002a66:	bf00      	nop

08002a68 <TIM_ClearOC1Ref>:
  *            @arg TIM_OCClear_Enable: TIM Output clear enable
  *            @arg TIM_OCClear_Disable: TIM Output clear disable
  * @retval None
  */
void TIM_ClearOC1Ref(TIM_TypeDef* TIMx, uint16_t TIM_OCClear)
{
 8002a68:	b480      	push	{r7}
 8002a6a:	b085      	sub	sp, #20
 8002a6c:	af00      	add	r7, sp, #0
 8002a6e:	6078      	str	r0, [r7, #4]
 8002a70:	460b      	mov	r3, r1
 8002a72:	807b      	strh	r3, [r7, #2]
  uint16_t tmpccmr1 = 0;
 8002a74:	2300      	movs	r3, #0
 8002a76:	81fb      	strh	r3, [r7, #14]

  /* Check the parameters */
  assert_param(IS_TIM_LIST1_PERIPH(TIMx));
  assert_param(IS_TIM_OCCLEAR_STATE(TIM_OCClear));

  tmpccmr1 = TIMx->CCMR1;
 8002a78:	687b      	ldr	r3, [r7, #4]
 8002a7a:	8b1b      	ldrh	r3, [r3, #24]
 8002a7c:	81fb      	strh	r3, [r7, #14]

  /* Reset the OC1CE Bit */
  tmpccmr1 &= (uint16_t)~TIM_CCMR1_OC1CE;
 8002a7e:	89fb      	ldrh	r3, [r7, #14]
 8002a80:	f023 0380 	bic.w	r3, r3, #128	; 0x80
 8002a84:	81fb      	strh	r3, [r7, #14]

  /* Enable or Disable the Output Compare Clear Bit */
  tmpccmr1 |= TIM_OCClear;
 8002a86:	89fa      	ldrh	r2, [r7, #14]
 8002a88:	887b      	ldrh	r3, [r7, #2]
 8002a8a:	4313      	orrs	r3, r2
 8002a8c:	81fb      	strh	r3, [r7, #14]

  /* Write to TIMx CCMR1 register */
  TIMx->CCMR1 = tmpccmr1;
 8002a8e:	687b      	ldr	r3, [r7, #4]
 8002a90:	89fa      	ldrh	r2, [r7, #14]
 8002a92:	831a      	strh	r2, [r3, #24]
}
 8002a94:	3714      	adds	r7, #20
 8002a96:	46bd      	mov	sp, r7
 8002a98:	f85d 7b04 	ldr.w	r7, [sp], #4
 8002a9c:	4770      	bx	lr
 8002a9e:	bf00      	nop

08002aa0 <TIM_ClearOC2Ref>:
  *            @arg TIM_OCClear_Enable: TIM Output clear enable
  *            @arg TIM_OCClear_Disable: TIM Output clear disable
  * @retval None
  */
void TIM_ClearOC2Ref(TIM_TypeDef* TIMx, uint16_t TIM_OCClear)
{
 8002aa0:	b480      	push	{r7}
 8002aa2:	b085      	sub	sp, #20
 8002aa4:	af00      	add	r7, sp, #0
 8002aa6:	6078      	str	r0, [r7, #4]
 8002aa8:	460b      	mov	r3, r1
 8002aaa:	807b      	strh	r3, [r7, #2]
  uint16_t tmpccmr1 = 0;
 8002aac:	2300      	movs	r3, #0
 8002aae:	81fb      	strh	r3, [r7, #14]

  /* Check the parameters */
  assert_param(IS_TIM_LIST2_PERIPH(TIMx));
  assert_param(IS_TIM_OCCLEAR_STATE(TIM_OCClear));

  tmpccmr1 = TIMx->CCMR1;
 8002ab0:	687b      	ldr	r3, [r7, #4]
 8002ab2:	8b1b      	ldrh	r3, [r3, #24]
 8002ab4:	81fb      	strh	r3, [r7, #14]

  /* Reset the OC2CE Bit */
  tmpccmr1 &= (uint16_t)~TIM_CCMR1_OC2CE;
 8002ab6:	89fb      	ldrh	r3, [r7, #14]
 8002ab8:	f3c3 030e 	ubfx	r3, r3, #0, #15
 8002abc:	81fb      	strh	r3, [r7, #14]

  /* Enable or Disable the Output Compare Clear Bit */
  tmpccmr1 |= (uint16_t)(TIM_OCClear << 8);
 8002abe:	887b      	ldrh	r3, [r7, #2]
 8002ac0:	021b      	lsls	r3, r3, #8
 8002ac2:	b29a      	uxth	r2, r3
 8002ac4:	89fb      	ldrh	r3, [r7, #14]
 8002ac6:	4313      	orrs	r3, r2
 8002ac8:	81fb      	strh	r3, [r7, #14]

  /* Write to TIMx CCMR1 register */
  TIMx->CCMR1 = tmpccmr1;
 8002aca:	687b      	ldr	r3, [r7, #4]
 8002acc:	89fa      	ldrh	r2, [r7, #14]
 8002ace:	831a      	strh	r2, [r3, #24]
}
 8002ad0:	3714      	adds	r7, #20
 8002ad2:	46bd      	mov	sp, r7
 8002ad4:	f85d 7b04 	ldr.w	r7, [sp], #4
 8002ad8:	4770      	bx	lr
 8002ada:	bf00      	nop

08002adc <TIM_ClearOC3Ref>:
  *            @arg TIM_OCClear_Enable: TIM Output clear enable
  *            @arg TIM_OCClear_Disable: TIM Output clear disable
  * @retval None
  */
void TIM_ClearOC3Ref(TIM_TypeDef* TIMx, uint16_t TIM_OCClear)
{
 8002adc:	b480      	push	{r7}
 8002ade:	b085      	sub	sp, #20
 8002ae0:	af00      	add	r7, sp, #0
 8002ae2:	6078      	str	r0, [r7, #4]
 8002ae4:	460b      	mov	r3, r1
 8002ae6:	807b      	strh	r3, [r7, #2]
  uint16_t tmpccmr2 = 0;
 8002ae8:	2300      	movs	r3, #0
 8002aea:	81fb      	strh	r3, [r7, #14]

  /* Check the parameters */
  assert_param(IS_TIM_LIST3_PERIPH(TIMx));
  assert_param(IS_TIM_OCCLEAR_STATE(TIM_OCClear));

  tmpccmr2 = TIMx->CCMR2;
 8002aec:	687b      	ldr	r3, [r7, #4]
 8002aee:	8b9b      	ldrh	r3, [r3, #28]
 8002af0:	81fb      	strh	r3, [r7, #14]

  /* Reset the OC3CE Bit */
  tmpccmr2 &= (uint16_t)~TIM_CCMR2_OC3CE;
 8002af2:	89fb      	ldrh	r3, [r7, #14]
 8002af4:	f023 0380 	bic.w	r3, r3, #128	; 0x80
 8002af8:	81fb      	strh	r3, [r7, #14]

  /* Enable or Disable the Output Compare Clear Bit */
  tmpccmr2 |= TIM_OCClear;
 8002afa:	89fa      	ldrh	r2, [r7, #14]
 8002afc:	887b      	ldrh	r3, [r7, #2]
 8002afe:	4313      	orrs	r3, r2
 8002b00:	81fb      	strh	r3, [r7, #14]

  /* Write to TIMx CCMR2 register */
  TIMx->CCMR2 = tmpccmr2;
 8002b02:	687b      	ldr	r3, [r7, #4]
 8002b04:	89fa      	ldrh	r2, [r7, #14]
 8002b06:	839a      	strh	r2, [r3, #28]
}
 8002b08:	3714      	adds	r7, #20
 8002b0a:	46bd      	mov	sp, r7
 8002b0c:	f85d 7b04 	ldr.w	r7, [sp], #4
 8002b10:	4770      	bx	lr
 8002b12:	bf00      	nop

08002b14 <TIM_ClearOC4Ref>:
  *            @arg TIM_OCClear_Enable: TIM Output clear enable
  *            @arg TIM_OCClear_Disable: TIM Output clear disable
  * @retval None
  */
void TIM_ClearOC4Ref(TIM_TypeDef* TIMx, uint16_t TIM_OCClear)
{
 8002b14:	b480      	push	{r7}
 8002b16:	b085      	sub	sp, #20
 8002b18:	af00      	add	r7, sp, #0
 8002b1a:	6078      	str	r0, [r7, #4]
 8002b1c:	460b      	mov	r3, r1
 8002b1e:	807b      	strh	r3, [r7, #2]
  uint16_t tmpccmr2 = 0;
 8002b20:	2300      	movs	r3, #0
 8002b22:	81fb      	strh	r3, [r7, #14]

  /* Check the parameters */
  assert_param(IS_TIM_LIST3_PERIPH(TIMx));
  assert_param(IS_TIM_OCCLEAR_STATE(TIM_OCClear));

  tmpccmr2 = TIMx->CCMR2;
 8002b24:	687b      	ldr	r3, [r7, #4]
 8002b26:	8b9b      	ldrh	r3, [r3, #28]
 8002b28:	81fb      	strh	r3, [r7, #14]

  /* Reset the OC4CE Bit */
  tmpccmr2 &= (uint16_t)~TIM_CCMR2_OC4CE;
 8002b2a:	89fb      	ldrh	r3, [r7, #14]
 8002b2c:	f3c3 030e 	ubfx	r3, r3, #0, #15
 8002b30:	81fb      	strh	r3, [r7, #14]

  /* Enable or Disable the Output Compare Clear Bit */
  tmpccmr2 |= (uint16_t)(TIM_OCClear << 8);
 8002b32:	887b      	ldrh	r3, [r7, #2]
 8002b34:	021b      	lsls	r3, r3, #8
 8002b36:	b29a      	uxth	r2, r3
 8002b38:	89fb      	ldrh	r3, [r7, #14]
 8002b3a:	4313      	orrs	r3, r2
 8002b3c:	81fb      	strh	r3, [r7, #14]

  /* Write to TIMx CCMR2 register */
  TIMx->CCMR2 = tmpccmr2;
 8002b3e:	687b      	ldr	r3, [r7, #4]
 8002b40:	89fa      	ldrh	r2, [r7, #14]
 8002b42:	839a      	strh	r2, [r3, #28]
}
 8002b44:	3714      	adds	r7, #20
 8002b46:	46bd      	mov	sp, r7
 8002b48:	f85d 7b04 	ldr.w	r7, [sp], #4
 8002b4c:	4770      	bx	lr
 8002b4e:	bf00      	nop

08002b50 <TIM_OC1PolarityConfig>:
  *            @arg TIM_OCPolarity_High: Output Compare active high
  *            @arg TIM_OCPolarity_Low: Output Compare active low
  * @retval None
  */
void TIM_OC1PolarityConfig(TIM_TypeDef* TIMx, uint16_t TIM_OCPolarity)
{
 8002b50:	b480      	push	{r7}
 8002b52:	b085      	sub	sp, #20
 8002b54:	af00      	add	r7, sp, #0
 8002b56:	6078      	str	r0, [r7, #4]
 8002b58:	460b      	mov	r3, r1
 8002b5a:	807b      	strh	r3, [r7, #2]
  uint16_t tmpccer = 0;
 8002b5c:	2300      	movs	r3, #0
 8002b5e:	81fb      	strh	r3, [r7, #14]

  /* Check the parameters */
  assert_param(IS_TIM_LIST1_PERIPH(TIMx));
  assert_param(IS_TIM_OC_POLARITY(TIM_OCPolarity));

  tmpccer = TIMx->CCER;
 8002b60:	687b      	ldr	r3, [r7, #4]
 8002b62:	8c1b      	ldrh	r3, [r3, #32]
 8002b64:	81fb      	strh	r3, [r7, #14]

  /* Set or Reset the CC1P Bit */
  tmpccer &= (uint16_t)(~TIM_CCER_CC1P);
 8002b66:	89fb      	ldrh	r3, [r7, #14]
 8002b68:	f023 0302 	bic.w	r3, r3, #2
 8002b6c:	81fb      	strh	r3, [r7, #14]
  tmpccer |= TIM_OCPolarity;
 8002b6e:	89fa      	ldrh	r2, [r7, #14]
 8002b70:	887b      	ldrh	r3, [r7, #2]
 8002b72:	4313      	orrs	r3, r2
 8002b74:	81fb      	strh	r3, [r7, #14]

  /* Write to TIMx CCER register */
  TIMx->CCER = tmpccer;
 8002b76:	687b      	ldr	r3, [r7, #4]
 8002b78:	89fa      	ldrh	r2, [r7, #14]
 8002b7a:	841a      	strh	r2, [r3, #32]
}
 8002b7c:	3714      	adds	r7, #20
 8002b7e:	46bd      	mov	sp, r7
 8002b80:	f85d 7b04 	ldr.w	r7, [sp], #4
 8002b84:	4770      	bx	lr
 8002b86:	bf00      	nop

08002b88 <TIM_OC1NPolarityConfig>:
  *            @arg TIM_OCNPolarity_High: Output Compare active high
  *            @arg TIM_OCNPolarity_Low: Output Compare active low
  * @retval None
  */
void TIM_OC1NPolarityConfig(TIM_TypeDef* TIMx, uint16_t TIM_OCNPolarity)
{
 8002b88:	b480      	push	{r7}
 8002b8a:	b085      	sub	sp, #20
 8002b8c:	af00      	add	r7, sp, #0
 8002b8e:	6078      	str	r0, [r7, #4]
 8002b90:	460b      	mov	r3, r1
 8002b92:	807b      	strh	r3, [r7, #2]
  uint16_t tmpccer = 0;
 8002b94:	2300      	movs	r3, #0
 8002b96:	81fb      	strh	r3, [r7, #14]
  /* Check the parameters */
  assert_param(IS_TIM_LIST4_PERIPH(TIMx));
  assert_param(IS_TIM_OCN_POLARITY(TIM_OCNPolarity));
   
  tmpccer = TIMx->CCER;
 8002b98:	687b      	ldr	r3, [r7, #4]
 8002b9a:	8c1b      	ldrh	r3, [r3, #32]
 8002b9c:	81fb      	strh	r3, [r7, #14]

  /* Set or Reset the CC1NP Bit */
  tmpccer &= (uint16_t)~TIM_CCER_CC1NP;
 8002b9e:	89fb      	ldrh	r3, [r7, #14]
 8002ba0:	f023 0308 	bic.w	r3, r3, #8
 8002ba4:	81fb      	strh	r3, [r7, #14]
  tmpccer |= TIM_OCNPolarity;
 8002ba6:	89fa      	ldrh	r2, [r7, #14]
 8002ba8:	887b      	ldrh	r3, [r7, #2]
 8002baa:	4313      	orrs	r3, r2
 8002bac:	81fb      	strh	r3, [r7, #14]

  /* Write to TIMx CCER register */
  TIMx->CCER = tmpccer;
 8002bae:	687b      	ldr	r3, [r7, #4]
 8002bb0:	89fa      	ldrh	r2, [r7, #14]
 8002bb2:	841a      	strh	r2, [r3, #32]
}
 8002bb4:	3714      	adds	r7, #20
 8002bb6:	46bd      	mov	sp, r7
 8002bb8:	f85d 7b04 	ldr.w	r7, [sp], #4
 8002bbc:	4770      	bx	lr
 8002bbe:	bf00      	nop

08002bc0 <TIM_OC2PolarityConfig>:
  *            @arg TIM_OCPolarity_High: Output Compare active high
  *            @arg TIM_OCPolarity_Low: Output Compare active low
  * @retval None
  */
void TIM_OC2PolarityConfig(TIM_TypeDef* TIMx, uint16_t TIM_OCPolarity)
{
 8002bc0:	b480      	push	{r7}
 8002bc2:	b085      	sub	sp, #20
 8002bc4:	af00      	add	r7, sp, #0
 8002bc6:	6078      	str	r0, [r7, #4]
 8002bc8:	460b      	mov	r3, r1
 8002bca:	807b      	strh	r3, [r7, #2]
  uint16_t tmpccer = 0;
 8002bcc:	2300      	movs	r3, #0
 8002bce:	81fb      	strh	r3, [r7, #14]

  /* Check the parameters */
  assert_param(IS_TIM_LIST2_PERIPH(TIMx));
  assert_param(IS_TIM_OC_POLARITY(TIM_OCPolarity));

  tmpccer = TIMx->CCER;
 8002bd0:	687b      	ldr	r3, [r7, #4]
 8002bd2:	8c1b      	ldrh	r3, [r3, #32]
 8002bd4:	81fb      	strh	r3, [r7, #14]

  /* Set or Reset the CC2P Bit */
  tmpccer &= (uint16_t)(~TIM_CCER_CC2P);
 8002bd6:	89fb      	ldrh	r3, [r7, #14]
 8002bd8:	f023 0320 	bic.w	r3, r3, #32
 8002bdc:	81fb      	strh	r3, [r7, #14]
  tmpccer |= (uint16_t)(TIM_OCPolarity << 4);
 8002bde:	887b      	ldrh	r3, [r7, #2]
 8002be0:	011b      	lsls	r3, r3, #4
 8002be2:	b29a      	uxth	r2, r3
 8002be4:	89fb      	ldrh	r3, [r7, #14]
 8002be6:	4313      	orrs	r3, r2
 8002be8:	81fb      	strh	r3, [r7, #14]

  /* Write to TIMx CCER register */
  TIMx->CCER = tmpccer;
 8002bea:	687b      	ldr	r3, [r7, #4]
 8002bec:	89fa      	ldrh	r2, [r7, #14]
 8002bee:	841a      	strh	r2, [r3, #32]
}
 8002bf0:	3714      	adds	r7, #20
 8002bf2:	46bd      	mov	sp, r7
 8002bf4:	f85d 7b04 	ldr.w	r7, [sp], #4
 8002bf8:	4770      	bx	lr
 8002bfa:	bf00      	nop

08002bfc <TIM_OC2NPolarityConfig>:
  *            @arg TIM_OCNPolarity_High: Output Compare active high
  *            @arg TIM_OCNPolarity_Low: Output Compare active low
  * @retval None
  */
void TIM_OC2NPolarityConfig(TIM_TypeDef* TIMx, uint16_t TIM_OCNPolarity)
{
 8002bfc:	b480      	push	{r7}
 8002bfe:	b085      	sub	sp, #20
 8002c00:	af00      	add	r7, sp, #0
 8002c02:	6078      	str	r0, [r7, #4]
 8002c04:	460b      	mov	r3, r1
 8002c06:	807b      	strh	r3, [r7, #2]
  uint16_t tmpccer = 0;
 8002c08:	2300      	movs	r3, #0
 8002c0a:	81fb      	strh	r3, [r7, #14]

  /* Check the parameters */
  assert_param(IS_TIM_LIST4_PERIPH(TIMx));
  assert_param(IS_TIM_OCN_POLARITY(TIM_OCNPolarity));
  
  tmpccer = TIMx->CCER;
 8002c0c:	687b      	ldr	r3, [r7, #4]
 8002c0e:	8c1b      	ldrh	r3, [r3, #32]
 8002c10:	81fb      	strh	r3, [r7, #14]

  /* Set or Reset the CC2NP Bit */
  tmpccer &= (uint16_t)~TIM_CCER_CC2NP;
 8002c12:	89fb      	ldrh	r3, [r7, #14]
 8002c14:	f023 0380 	bic.w	r3, r3, #128	; 0x80
 8002c18:	81fb      	strh	r3, [r7, #14]
  tmpccer |= (uint16_t)(TIM_OCNPolarity << 4);
 8002c1a:	887b      	ldrh	r3, [r7, #2]
 8002c1c:	011b      	lsls	r3, r3, #4
 8002c1e:	b29a      	uxth	r2, r3
 8002c20:	89fb      	ldrh	r3, [r7, #14]
 8002c22:	4313      	orrs	r3, r2
 8002c24:	81fb      	strh	r3, [r7, #14]

  /* Write to TIMx CCER register */
  TIMx->CCER = tmpccer;
 8002c26:	687b      	ldr	r3, [r7, #4]
 8002c28:	89fa      	ldrh	r2, [r7, #14]
 8002c2a:	841a      	strh	r2, [r3, #32]
}
 8002c2c:	3714      	adds	r7, #20
 8002c2e:	46bd      	mov	sp, r7
 8002c30:	f85d 7b04 	ldr.w	r7, [sp], #4
 8002c34:	4770      	bx	lr
 8002c36:	bf00      	nop

08002c38 <TIM_OC3PolarityConfig>:
  *            @arg TIM_OCPolarity_High: Output Compare active high
  *            @arg TIM_OCPolarity_Low: Output Compare active low
  * @retval None
  */
void TIM_OC3PolarityConfig(TIM_TypeDef* TIMx, uint16_t TIM_OCPolarity)
{
 8002c38:	b480      	push	{r7}
 8002c3a:	b085      	sub	sp, #20
 8002c3c:	af00      	add	r7, sp, #0
 8002c3e:	6078      	str	r0, [r7, #4]
 8002c40:	460b      	mov	r3, r1
 8002c42:	807b      	strh	r3, [r7, #2]
  uint16_t tmpccer = 0;
 8002c44:	2300      	movs	r3, #0
 8002c46:	81fb      	strh	r3, [r7, #14]

  /* Check the parameters */
  assert_param(IS_TIM_LIST3_PERIPH(TIMx));
  assert_param(IS_TIM_OC_POLARITY(TIM_OCPolarity));

  tmpccer = TIMx->CCER;
 8002c48:	687b      	ldr	r3, [r7, #4]
 8002c4a:	8c1b      	ldrh	r3, [r3, #32]
 8002c4c:	81fb      	strh	r3, [r7, #14]

  /* Set or Reset the CC3P Bit */
  tmpccer &= (uint16_t)~TIM_CCER_CC3P;
 8002c4e:	89fb      	ldrh	r3, [r7, #14]
 8002c50:	f423 7300 	bic.w	r3, r3, #512	; 0x200
 8002c54:	81fb      	strh	r3, [r7, #14]
  tmpccer |= (uint16_t)(TIM_OCPolarity << 8);
 8002c56:	887b      	ldrh	r3, [r7, #2]
 8002c58:	021b      	lsls	r3, r3, #8
 8002c5a:	b29a      	uxth	r2, r3
 8002c5c:	89fb      	ldrh	r3, [r7, #14]
 8002c5e:	4313      	orrs	r3, r2
 8002c60:	81fb      	strh	r3, [r7, #14]

  /* Write to TIMx CCER register */
  TIMx->CCER = tmpccer;
 8002c62:	687b      	ldr	r3, [r7, #4]
 8002c64:	89fa      	ldrh	r2, [r7, #14]
 8002c66:	841a      	strh	r2, [r3, #32]
}
 8002c68:	3714      	adds	r7, #20
 8002c6a:	46bd      	mov	sp, r7
 8002c6c:	f85d 7b04 	ldr.w	r7, [sp], #4
 8002c70:	4770      	bx	lr
 8002c72:	bf00      	nop

08002c74 <TIM_OC3NPolarityConfig>:
  *            @arg TIM_OCNPolarity_High: Output Compare active high
  *            @arg TIM_OCNPolarity_Low: Output Compare active low
  * @retval None
  */
void TIM_OC3NPolarityConfig(TIM_TypeDef* TIMx, uint16_t TIM_OCNPolarity)
{
 8002c74:	b480      	push	{r7}
 8002c76:	b085      	sub	sp, #20
 8002c78:	af00      	add	r7, sp, #0
 8002c7a:	6078      	str	r0, [r7, #4]
 8002c7c:	460b      	mov	r3, r1
 8002c7e:	807b      	strh	r3, [r7, #2]
  uint16_t tmpccer = 0;
 8002c80:	2300      	movs	r3, #0
 8002c82:	81fb      	strh	r3, [r7, #14]
 
  /* Check the parameters */
  assert_param(IS_TIM_LIST4_PERIPH(TIMx));
  assert_param(IS_TIM_OCN_POLARITY(TIM_OCNPolarity));
    
  tmpccer = TIMx->CCER;
 8002c84:	687b      	ldr	r3, [r7, #4]
 8002c86:	8c1b      	ldrh	r3, [r3, #32]
 8002c88:	81fb      	strh	r3, [r7, #14]

  /* Set or Reset the CC3NP Bit */
  tmpccer &= (uint16_t)~TIM_CCER_CC3NP;
 8002c8a:	89fb      	ldrh	r3, [r7, #14]
 8002c8c:	f423 6300 	bic.w	r3, r3, #2048	; 0x800
 8002c90:	81fb      	strh	r3, [r7, #14]
  tmpccer |= (uint16_t)(TIM_OCNPolarity << 8);
 8002c92:	887b      	ldrh	r3, [r7, #2]
 8002c94:	021b      	lsls	r3, r3, #8
 8002c96:	b29a      	uxth	r2, r3
 8002c98:	89fb      	ldrh	r3, [r7, #14]
 8002c9a:	4313      	orrs	r3, r2
 8002c9c:	81fb      	strh	r3, [r7, #14]

  /* Write to TIMx CCER register */
  TIMx->CCER = tmpccer;
 8002c9e:	687b      	ldr	r3, [r7, #4]
 8002ca0:	89fa      	ldrh	r2, [r7, #14]
 8002ca2:	841a      	strh	r2, [r3, #32]
}
 8002ca4:	3714      	adds	r7, #20
 8002ca6:	46bd      	mov	sp, r7
 8002ca8:	f85d 7b04 	ldr.w	r7, [sp], #4
 8002cac:	4770      	bx	lr
 8002cae:	bf00      	nop

08002cb0 <TIM_OC4PolarityConfig>:
  *            @arg TIM_OCPolarity_High: Output Compare active high
  *            @arg TIM_OCPolarity_Low: Output Compare active low
  * @retval None
  */
void TIM_OC4PolarityConfig(TIM_TypeDef* TIMx, uint16_t TIM_OCPolarity)
{
 8002cb0:	b480      	push	{r7}
 8002cb2:	b085      	sub	sp, #20
 8002cb4:	af00      	add	r7, sp, #0
 8002cb6:	6078      	str	r0, [r7, #4]
 8002cb8:	460b      	mov	r3, r1
 8002cba:	807b      	strh	r3, [r7, #2]
  uint16_t tmpccer = 0;
 8002cbc:	2300      	movs	r3, #0
 8002cbe:	81fb      	strh	r3, [r7, #14]

  /* Check the parameters */
  assert_param(IS_TIM_LIST3_PERIPH(TIMx));
  assert_param(IS_TIM_OC_POLARITY(TIM_OCPolarity));

  tmpccer = TIMx->CCER;
 8002cc0:	687b      	ldr	r3, [r7, #4]
 8002cc2:	8c1b      	ldrh	r3, [r3, #32]
 8002cc4:	81fb      	strh	r3, [r7, #14]

  /* Set or Reset the CC4P Bit */
  tmpccer &= (uint16_t)~TIM_CCER_CC4P;
 8002cc6:	89fb      	ldrh	r3, [r7, #14]
 8002cc8:	f423 5300 	bic.w	r3, r3, #8192	; 0x2000
 8002ccc:	81fb      	strh	r3, [r7, #14]
  tmpccer |= (uint16_t)(TIM_OCPolarity << 12);
 8002cce:	887b      	ldrh	r3, [r7, #2]
 8002cd0:	031b      	lsls	r3, r3, #12
 8002cd2:	b29a      	uxth	r2, r3
 8002cd4:	89fb      	ldrh	r3, [r7, #14]
 8002cd6:	4313      	orrs	r3, r2
 8002cd8:	81fb      	strh	r3, [r7, #14]

  /* Write to TIMx CCER register */
  TIMx->CCER = tmpccer;
 8002cda:	687b      	ldr	r3, [r7, #4]
 8002cdc:	89fa      	ldrh	r2, [r7, #14]
 8002cde:	841a      	strh	r2, [r3, #32]
}
 8002ce0:	3714      	adds	r7, #20
 8002ce2:	46bd      	mov	sp, r7
 8002ce4:	f85d 7b04 	ldr.w	r7, [sp], #4
 8002ce8:	4770      	bx	lr
 8002cea:	bf00      	nop

08002cec <TIM_CCxCmd>:
  * @param  TIM_CCx: specifies the TIM Channel CCxE bit new state.
  *          This parameter can be: TIM_CCx_Enable or TIM_CCx_Disable. 
  * @retval None
  */
void TIM_CCxCmd(TIM_TypeDef* TIMx, uint16_t TIM_Channel, uint16_t TIM_CCx)
{
 8002cec:	b480      	push	{r7}
 8002cee:	b085      	sub	sp, #20
 8002cf0:	af00      	add	r7, sp, #0
 8002cf2:	6078      	str	r0, [r7, #4]
 8002cf4:	460b      	mov	r3, r1
 8002cf6:	807b      	strh	r3, [r7, #2]
 8002cf8:	4613      	mov	r3, r2
 8002cfa:	803b      	strh	r3, [r7, #0]
  uint16_t tmp = 0;
 8002cfc:	2300      	movs	r3, #0
 8002cfe:	81fb      	strh	r3, [r7, #14]
  /* Check the parameters */
  assert_param(IS_TIM_LIST1_PERIPH(TIMx)); 
  assert_param(IS_TIM_CHANNEL(TIM_Channel));
  assert_param(IS_TIM_CCX(TIM_CCx));

  tmp = CCER_CCE_SET << TIM_Channel;
 8002d00:	887b      	ldrh	r3, [r7, #2]
 8002d02:	2201      	movs	r2, #1
 8002d04:	fa02 f303 	lsl.w	r3, r2, r3
 8002d08:	81fb      	strh	r3, [r7, #14]

  /* Reset the CCxE Bit */
  TIMx->CCER &= (uint16_t)~ tmp;
 8002d0a:	687b      	ldr	r3, [r7, #4]
 8002d0c:	8c1b      	ldrh	r3, [r3, #32]
 8002d0e:	b29a      	uxth	r2, r3
 8002d10:	89fb      	ldrh	r3, [r7, #14]
 8002d12:	43db      	mvns	r3, r3
 8002d14:	b29b      	uxth	r3, r3
 8002d16:	4013      	ands	r3, r2
 8002d18:	b29a      	uxth	r2, r3
 8002d1a:	687b      	ldr	r3, [r7, #4]
 8002d1c:	841a      	strh	r2, [r3, #32]

  /* Set or reset the CCxE Bit */ 
  TIMx->CCER |=  (uint16_t)(TIM_CCx << TIM_Channel);
 8002d1e:	687b      	ldr	r3, [r7, #4]
 8002d20:	8c1b      	ldrh	r3, [r3, #32]
 8002d22:	b29a      	uxth	r2, r3
 8002d24:	8839      	ldrh	r1, [r7, #0]
 8002d26:	887b      	ldrh	r3, [r7, #2]
 8002d28:	fa01 f303 	lsl.w	r3, r1, r3
 8002d2c:	b29b      	uxth	r3, r3
 8002d2e:	4313      	orrs	r3, r2
 8002d30:	b29a      	uxth	r2, r3
 8002d32:	687b      	ldr	r3, [r7, #4]
 8002d34:	841a      	strh	r2, [r3, #32]
}
 8002d36:	3714      	adds	r7, #20
 8002d38:	46bd      	mov	sp, r7
 8002d3a:	f85d 7b04 	ldr.w	r7, [sp], #4
 8002d3e:	4770      	bx	lr

08002d40 <TIM_CCxNCmd>:
  * @param  TIM_CCxN: specifies the TIM Channel CCxNE bit new state.
  *          This parameter can be: TIM_CCxN_Enable or TIM_CCxN_Disable. 
  * @retval None
  */
void TIM_CCxNCmd(TIM_TypeDef* TIMx, uint16_t TIM_Channel, uint16_t TIM_CCxN)
{
 8002d40:	b480      	push	{r7}
 8002d42:	b085      	sub	sp, #20
 8002d44:	af00      	add	r7, sp, #0
 8002d46:	6078      	str	r0, [r7, #4]
 8002d48:	460b      	mov	r3, r1
 8002d4a:	807b      	strh	r3, [r7, #2]
 8002d4c:	4613      	mov	r3, r2
 8002d4e:	803b      	strh	r3, [r7, #0]
  uint16_t tmp = 0;
 8002d50:	2300      	movs	r3, #0
 8002d52:	81fb      	strh	r3, [r7, #14]
  /* Check the parameters */
  assert_param(IS_TIM_LIST4_PERIPH(TIMx));
  assert_param(IS_TIM_COMPLEMENTARY_CHANNEL(TIM_Channel));
  assert_param(IS_TIM_CCXN(TIM_CCxN));

  tmp = CCER_CCNE_SET << TIM_Channel;
 8002d54:	887b      	ldrh	r3, [r7, #2]
 8002d56:	2204      	movs	r2, #4
 8002d58:	fa02 f303 	lsl.w	r3, r2, r3
 8002d5c:	81fb      	strh	r3, [r7, #14]

  /* Reset the CCxNE Bit */
  TIMx->CCER &= (uint16_t) ~tmp;
 8002d5e:	687b      	ldr	r3, [r7, #4]
 8002d60:	8c1b      	ldrh	r3, [r3, #32]
 8002d62:	b29a      	uxth	r2, r3
 8002d64:	89fb      	ldrh	r3, [r7, #14]
 8002d66:	43db      	mvns	r3, r3
 8002d68:	b29b      	uxth	r3, r3
 8002d6a:	4013      	ands	r3, r2
 8002d6c:	b29a      	uxth	r2, r3
 8002d6e:	687b      	ldr	r3, [r7, #4]
 8002d70:	841a      	strh	r2, [r3, #32]

  /* Set or reset the CCxNE Bit */ 
  TIMx->CCER |=  (uint16_t)(TIM_CCxN << TIM_Channel);
 8002d72:	687b      	ldr	r3, [r7, #4]
 8002d74:	8c1b      	ldrh	r3, [r3, #32]
 8002d76:	b29a      	uxth	r2, r3
 8002d78:	8839      	ldrh	r1, [r7, #0]
 8002d7a:	887b      	ldrh	r3, [r7, #2]
 8002d7c:	fa01 f303 	lsl.w	r3, r1, r3
 8002d80:	b29b      	uxth	r3, r3
 8002d82:	4313      	orrs	r3, r2
 8002d84:	b29a      	uxth	r2, r3
 8002d86:	687b      	ldr	r3, [r7, #4]
 8002d88:	841a      	strh	r2, [r3, #32]
}
 8002d8a:	3714      	adds	r7, #20
 8002d8c:	46bd      	mov	sp, r7
 8002d8e:	f85d 7b04 	ldr.w	r7, [sp], #4
 8002d92:	4770      	bx	lr

08002d94 <TIM_ICInit>:
  * @param  TIM_ICInitStruct: pointer to a TIM_ICInitTypeDef structure that contains
  *         the configuration information for the specified TIM peripheral.
  * @retval None
  */
void TIM_ICInit(TIM_TypeDef* TIMx, TIM_ICInitTypeDef* TIM_ICInitStruct)
{
 8002d94:	b580      	push	{r7, lr}
 8002d96:	b082      	sub	sp, #8
 8002d98:	af00      	add	r7, sp, #0
 8002d9a:	6078      	str	r0, [r7, #4]
 8002d9c:	6039      	str	r1, [r7, #0]
  assert_param(IS_TIM_IC_POLARITY(TIM_ICInitStruct->TIM_ICPolarity));
  assert_param(IS_TIM_IC_SELECTION(TIM_ICInitStruct->TIM_ICSelection));
  assert_param(IS_TIM_IC_PRESCALER(TIM_ICInitStruct->TIM_ICPrescaler));
  assert_param(IS_TIM_IC_FILTER(TIM_ICInitStruct->TIM_ICFilter));
  
  if (TIM_ICInitStruct->TIM_Channel == TIM_Channel_1)
 8002d9e:	683b      	ldr	r3, [r7, #0]
 8002da0:	881b      	ldrh	r3, [r3, #0]
 8002da2:	2b00      	cmp	r3, #0
 8002da4:	d10f      	bne.n	8002dc6 <TIM_ICInit+0x32>
  {
    /* TI1 Configuration */
    TI1_Config(TIMx, TIM_ICInitStruct->TIM_ICPolarity,
 8002da6:	683b      	ldr	r3, [r7, #0]
 8002da8:	8859      	ldrh	r1, [r3, #2]
 8002daa:	683b      	ldr	r3, [r7, #0]
 8002dac:	889a      	ldrh	r2, [r3, #4]
 8002dae:	683b      	ldr	r3, [r7, #0]
 8002db0:	891b      	ldrh	r3, [r3, #8]
 8002db2:	6878      	ldr	r0, [r7, #4]
 8002db4:	f000 fcb0 	bl	8003718 <TI1_Config>
               TIM_ICInitStruct->TIM_ICSelection,
               TIM_ICInitStruct->TIM_ICFilter);
    /* Set the Input Capture Prescaler value */
    TIM_SetIC1Prescaler(TIMx, TIM_ICInitStruct->TIM_ICPrescaler);
 8002db8:	683b      	ldr	r3, [r7, #0]
 8002dba:	88db      	ldrh	r3, [r3, #6]
 8002dbc:	6878      	ldr	r0, [r7, #4]
 8002dbe:	4619      	mov	r1, r3
 8002dc0:	f000 f8e0 	bl	8002f84 <TIM_SetIC1Prescaler>
 8002dc4:	e036      	b.n	8002e34 <TIM_ICInit+0xa0>
  }
  else if (TIM_ICInitStruct->TIM_Channel == TIM_Channel_2)
 8002dc6:	683b      	ldr	r3, [r7, #0]
 8002dc8:	881b      	ldrh	r3, [r3, #0]
 8002dca:	2b04      	cmp	r3, #4
 8002dcc:	d10f      	bne.n	8002dee <TIM_ICInit+0x5a>
  {
    /* TI2 Configuration */
    TI2_Config(TIMx, TIM_ICInitStruct->TIM_ICPolarity,
 8002dce:	683b      	ldr	r3, [r7, #0]
 8002dd0:	8859      	ldrh	r1, [r3, #2]
 8002dd2:	683b      	ldr	r3, [r7, #0]
 8002dd4:	889a      	ldrh	r2, [r3, #4]
 8002dd6:	683b      	ldr	r3, [r7, #0]
 8002dd8:	891b      	ldrh	r3, [r3, #8]
 8002dda:	6878      	ldr	r0, [r7, #4]
 8002ddc:	f000 fcde 	bl	800379c <TI2_Config>
               TIM_ICInitStruct->TIM_ICSelection,
               TIM_ICInitStruct->TIM_ICFilter);
    /* Set the Input Capture Prescaler value */
    TIM_SetIC2Prescaler(TIMx, TIM_ICInitStruct->TIM_ICPrescaler);
 8002de0:	683b      	ldr	r3, [r7, #0]
 8002de2:	88db      	ldrh	r3, [r3, #6]
 8002de4:	6878      	ldr	r0, [r7, #4]
 8002de6:	4619      	mov	r1, r3
 8002de8:	f000 f8e8 	bl	8002fbc <TIM_SetIC2Prescaler>
 8002dec:	e022      	b.n	8002e34 <TIM_ICInit+0xa0>
  }
  else if (TIM_ICInitStruct->TIM_Channel == TIM_Channel_3)
 8002dee:	683b      	ldr	r3, [r7, #0]
 8002df0:	881b      	ldrh	r3, [r3, #0]
 8002df2:	2b08      	cmp	r3, #8
 8002df4:	d10f      	bne.n	8002e16 <TIM_ICInit+0x82>
  {
    /* TI3 Configuration */
    TI3_Config(TIMx,  TIM_ICInitStruct->TIM_ICPolarity,
 8002df6:	683b      	ldr	r3, [r7, #0]
 8002df8:	8859      	ldrh	r1, [r3, #2]
 8002dfa:	683b      	ldr	r3, [r7, #0]
 8002dfc:	889a      	ldrh	r2, [r3, #4]
 8002dfe:	683b      	ldr	r3, [r7, #0]
 8002e00:	891b      	ldrh	r3, [r3, #8]
 8002e02:	6878      	ldr	r0, [r7, #4]
 8002e04:	f000 fd16 	bl	8003834 <TI3_Config>
               TIM_ICInitStruct->TIM_ICSelection,
               TIM_ICInitStruct->TIM_ICFilter);
    /* Set the Input Capture Prescaler value */
    TIM_SetIC3Prescaler(TIMx, TIM_ICInitStruct->TIM_ICPrescaler);
 8002e08:	683b      	ldr	r3, [r7, #0]
 8002e0a:	88db      	ldrh	r3, [r3, #6]
 8002e0c:	6878      	ldr	r0, [r7, #4]
 8002e0e:	4619      	mov	r1, r3
 8002e10:	f000 f8f2 	bl	8002ff8 <TIM_SetIC3Prescaler>
 8002e14:	e00e      	b.n	8002e34 <TIM_ICInit+0xa0>
  }
  else
  {
    /* TI4 Configuration */
    TI4_Config(TIMx, TIM_ICInitStruct->TIM_ICPolarity,
 8002e16:	683b      	ldr	r3, [r7, #0]
 8002e18:	8859      	ldrh	r1, [r3, #2]
 8002e1a:	683b      	ldr	r3, [r7, #0]
 8002e1c:	889a      	ldrh	r2, [r3, #4]
 8002e1e:	683b      	ldr	r3, [r7, #0]
 8002e20:	891b      	ldrh	r3, [r3, #8]
 8002e22:	6878      	ldr	r0, [r7, #4]
 8002e24:	f000 fd4e 	bl	80038c4 <TI4_Config>
               TIM_ICInitStruct->TIM_ICSelection,
               TIM_ICInitStruct->TIM_ICFilter);
    /* Set the Input Capture Prescaler value */
    TIM_SetIC4Prescaler(TIMx, TIM_ICInitStruct->TIM_ICPrescaler);
 8002e28:	683b      	ldr	r3, [r7, #0]
 8002e2a:	88db      	ldrh	r3, [r3, #6]
 8002e2c:	6878      	ldr	r0, [r7, #4]
 8002e2e:	4619      	mov	r1, r3
 8002e30:	f000 f8fe 	bl	8003030 <TIM_SetIC4Prescaler>
  }
}
 8002e34:	3708      	adds	r7, #8
 8002e36:	46bd      	mov	sp, r7
 8002e38:	bd80      	pop	{r7, pc}
 8002e3a:	bf00      	nop

08002e3c <TIM_ICStructInit>:
  * @param  TIM_ICInitStruct: pointer to a TIM_ICInitTypeDef structure which will
  *         be initialized.
  * @retval None
  */
void TIM_ICStructInit(TIM_ICInitTypeDef* TIM_ICInitStruct)
{
 8002e3c:	b480      	push	{r7}
 8002e3e:	b083      	sub	sp, #12
 8002e40:	af00      	add	r7, sp, #0
 8002e42:	6078      	str	r0, [r7, #4]
  /* Set the default configuration */
  TIM_ICInitStruct->TIM_Channel = TIM_Channel_1;
 8002e44:	687b      	ldr	r3, [r7, #4]
 8002e46:	2200      	movs	r2, #0
 8002e48:	801a      	strh	r2, [r3, #0]
  TIM_ICInitStruct->TIM_ICPolarity = TIM_ICPolarity_Rising;
 8002e4a:	687b      	ldr	r3, [r7, #4]
 8002e4c:	2200      	movs	r2, #0
 8002e4e:	805a      	strh	r2, [r3, #2]
  TIM_ICInitStruct->TIM_ICSelection = TIM_ICSelection_DirectTI;
 8002e50:	687b      	ldr	r3, [r7, #4]
 8002e52:	2201      	movs	r2, #1
 8002e54:	809a      	strh	r2, [r3, #4]
  TIM_ICInitStruct->TIM_ICPrescaler = TIM_ICPSC_DIV1;
 8002e56:	687b      	ldr	r3, [r7, #4]
 8002e58:	2200      	movs	r2, #0
 8002e5a:	80da      	strh	r2, [r3, #6]
  TIM_ICInitStruct->TIM_ICFilter = 0x00;
 8002e5c:	687b      	ldr	r3, [r7, #4]
 8002e5e:	2200      	movs	r2, #0
 8002e60:	811a      	strh	r2, [r3, #8]
}
 8002e62:	370c      	adds	r7, #12
 8002e64:	46bd      	mov	sp, r7
 8002e66:	f85d 7b04 	ldr.w	r7, [sp], #4
 8002e6a:	4770      	bx	lr

08002e6c <TIM_PWMIConfig>:
  * @param  TIM_ICInitStruct: pointer to a TIM_ICInitTypeDef structure that contains
  *         the configuration information for the specified TIM peripheral.
  * @retval None
  */
void TIM_PWMIConfig(TIM_TypeDef* TIMx, TIM_ICInitTypeDef* TIM_ICInitStruct)
{
 8002e6c:	b580      	push	{r7, lr}
 8002e6e:	b084      	sub	sp, #16
 8002e70:	af00      	add	r7, sp, #0
 8002e72:	6078      	str	r0, [r7, #4]
 8002e74:	6039      	str	r1, [r7, #0]
  uint16_t icoppositepolarity = TIM_ICPolarity_Rising;
 8002e76:	2300      	movs	r3, #0
 8002e78:	81fb      	strh	r3, [r7, #14]
  uint16_t icoppositeselection = TIM_ICSelection_DirectTI;
 8002e7a:	2301      	movs	r3, #1
 8002e7c:	81bb      	strh	r3, [r7, #12]

  /* Check the parameters */
  assert_param(IS_TIM_LIST2_PERIPH(TIMx));

  /* Select the Opposite Input Polarity */
  if (TIM_ICInitStruct->TIM_ICPolarity == TIM_ICPolarity_Rising)
 8002e7e:	683b      	ldr	r3, [r7, #0]
 8002e80:	885b      	ldrh	r3, [r3, #2]
 8002e82:	2b00      	cmp	r3, #0
 8002e84:	d102      	bne.n	8002e8c <TIM_PWMIConfig+0x20>
  {
    icoppositepolarity = TIM_ICPolarity_Falling;
 8002e86:	2302      	movs	r3, #2
 8002e88:	81fb      	strh	r3, [r7, #14]
 8002e8a:	e001      	b.n	8002e90 <TIM_PWMIConfig+0x24>
  }
  else
  {
    icoppositepolarity = TIM_ICPolarity_Rising;
 8002e8c:	2300      	movs	r3, #0
 8002e8e:	81fb      	strh	r3, [r7, #14]
  }
  /* Select the Opposite Input */
  if (TIM_ICInitStruct->TIM_ICSelection == TIM_ICSelection_DirectTI)
 8002e90:	683b      	ldr	r3, [r7, #0]
 8002e92:	889b      	ldrh	r3, [r3, #4]
 8002e94:	2b01      	cmp	r3, #1
 8002e96:	d102      	bne.n	8002e9e <TIM_PWMIConfig+0x32>
  {
    icoppositeselection = TIM_ICSelection_IndirectTI;
 8002e98:	2302      	movs	r3, #2
 8002e9a:	81bb      	strh	r3, [r7, #12]
 8002e9c:	e001      	b.n	8002ea2 <TIM_PWMIConfig+0x36>
  }
  else
  {
    icoppositeselection = TIM_ICSelection_DirectTI;
 8002e9e:	2301      	movs	r3, #1
 8002ea0:	81bb      	strh	r3, [r7, #12]
  }
  if (TIM_ICInitStruct->TIM_Channel == TIM_Channel_1)
 8002ea2:	683b      	ldr	r3, [r7, #0]
 8002ea4:	881b      	ldrh	r3, [r3, #0]
 8002ea6:	2b00      	cmp	r3, #0
 8002ea8:	d11c      	bne.n	8002ee4 <TIM_PWMIConfig+0x78>
  {
    /* TI1 Configuration */
    TI1_Config(TIMx, TIM_ICInitStruct->TIM_ICPolarity, TIM_ICInitStruct->TIM_ICSelection,
 8002eaa:	683b      	ldr	r3, [r7, #0]
 8002eac:	8859      	ldrh	r1, [r3, #2]
 8002eae:	683b      	ldr	r3, [r7, #0]
 8002eb0:	889a      	ldrh	r2, [r3, #4]
 8002eb2:	683b      	ldr	r3, [r7, #0]
 8002eb4:	891b      	ldrh	r3, [r3, #8]
 8002eb6:	6878      	ldr	r0, [r7, #4]
 8002eb8:	f000 fc2e 	bl	8003718 <TI1_Config>
               TIM_ICInitStruct->TIM_ICFilter);
    /* Set the Input Capture Prescaler value */
    TIM_SetIC1Prescaler(TIMx, TIM_ICInitStruct->TIM_ICPrescaler);
 8002ebc:	683b      	ldr	r3, [r7, #0]
 8002ebe:	88db      	ldrh	r3, [r3, #6]
 8002ec0:	6878      	ldr	r0, [r7, #4]
 8002ec2:	4619      	mov	r1, r3
 8002ec4:	f000 f85e 	bl	8002f84 <TIM_SetIC1Prescaler>
    /* TI2 Configuration */
    TI2_Config(TIMx, icoppositepolarity, icoppositeselection, TIM_ICInitStruct->TIM_ICFilter);
 8002ec8:	683b      	ldr	r3, [r7, #0]
 8002eca:	891b      	ldrh	r3, [r3, #8]
 8002ecc:	89f9      	ldrh	r1, [r7, #14]
 8002ece:	89ba      	ldrh	r2, [r7, #12]
 8002ed0:	6878      	ldr	r0, [r7, #4]
 8002ed2:	f000 fc63 	bl	800379c <TI2_Config>
    /* Set the Input Capture Prescaler value */
    TIM_SetIC2Prescaler(TIMx, TIM_ICInitStruct->TIM_ICPrescaler);
 8002ed6:	683b      	ldr	r3, [r7, #0]
 8002ed8:	88db      	ldrh	r3, [r3, #6]
 8002eda:	6878      	ldr	r0, [r7, #4]
 8002edc:	4619      	mov	r1, r3
 8002ede:	f000 f86d 	bl	8002fbc <TIM_SetIC2Prescaler>
 8002ee2:	e01b      	b.n	8002f1c <TIM_PWMIConfig+0xb0>
  }
  else
  { 
    /* TI2 Configuration */
    TI2_Config(TIMx, TIM_ICInitStruct->TIM_ICPolarity, TIM_ICInitStruct->TIM_ICSelection,
 8002ee4:	683b      	ldr	r3, [r7, #0]
 8002ee6:	8859      	ldrh	r1, [r3, #2]
 8002ee8:	683b      	ldr	r3, [r7, #0]
 8002eea:	889a      	ldrh	r2, [r3, #4]
 8002eec:	683b      	ldr	r3, [r7, #0]
 8002eee:	891b      	ldrh	r3, [r3, #8]
 8002ef0:	6878      	ldr	r0, [r7, #4]
 8002ef2:	f000 fc53 	bl	800379c <TI2_Config>
               TIM_ICInitStruct->TIM_ICFilter);
    /* Set the Input Capture Prescaler value */
    TIM_SetIC2Prescaler(TIMx, TIM_ICInitStruct->TIM_ICPrescaler);
 8002ef6:	683b      	ldr	r3, [r7, #0]
 8002ef8:	88db      	ldrh	r3, [r3, #6]
 8002efa:	6878      	ldr	r0, [r7, #4]
 8002efc:	4619      	mov	r1, r3
 8002efe:	f000 f85d 	bl	8002fbc <TIM_SetIC2Prescaler>
    /* TI1 Configuration */
    TI1_Config(TIMx, icoppositepolarity, icoppositeselection, TIM_ICInitStruct->TIM_ICFilter);
 8002f02:	683b      	ldr	r3, [r7, #0]
 8002f04:	891b      	ldrh	r3, [r3, #8]
 8002f06:	89f9      	ldrh	r1, [r7, #14]
 8002f08:	89ba      	ldrh	r2, [r7, #12]
 8002f0a:	6878      	ldr	r0, [r7, #4]
 8002f0c:	f000 fc04 	bl	8003718 <TI1_Config>
    /* Set the Input Capture Prescaler value */
    TIM_SetIC1Prescaler(TIMx, TIM_ICInitStruct->TIM_ICPrescaler);
 8002f10:	683b      	ldr	r3, [r7, #0]
 8002f12:	88db      	ldrh	r3, [r3, #6]
 8002f14:	6878      	ldr	r0, [r7, #4]
 8002f16:	4619      	mov	r1, r3
 8002f18:	f000 f834 	bl	8002f84 <TIM_SetIC1Prescaler>
  }
}
 8002f1c:	3710      	adds	r7, #16
 8002f1e:	46bd      	mov	sp, r7
 8002f20:	bd80      	pop	{r7, pc}
 8002f22:	bf00      	nop

08002f24 <TIM_GetCapture1>:
  * @brief  Gets the TIMx Input Capture 1 value.
  * @param  TIMx: where x can be 1 to 14 except 6 and 7, to select the TIM peripheral.
  * @retval Capture Compare 1 Register value.
  */
uint32_t TIM_GetCapture1(TIM_TypeDef* TIMx)
{
 8002f24:	b480      	push	{r7}
 8002f26:	b083      	sub	sp, #12
 8002f28:	af00      	add	r7, sp, #0
 8002f2a:	6078      	str	r0, [r7, #4]
  /* Check the parameters */
  assert_param(IS_TIM_LIST1_PERIPH(TIMx));

  /* Get the Capture 1 Register value */
  return TIMx->CCR1;
 8002f2c:	687b      	ldr	r3, [r7, #4]
 8002f2e:	6b5b      	ldr	r3, [r3, #52]	; 0x34
}
 8002f30:	4618      	mov	r0, r3
 8002f32:	370c      	adds	r7, #12
 8002f34:	46bd      	mov	sp, r7
 8002f36:	f85d 7b04 	ldr.w	r7, [sp], #4
 8002f3a:	4770      	bx	lr

08002f3c <TIM_GetCapture2>:
  * @param  TIMx: where x can be 1, 2, 3, 4, 5, 8, 9 or 12 to select the TIM 
  *         peripheral.
  * @retval Capture Compare 2 Register value.
  */
uint32_t TIM_GetCapture2(TIM_TypeDef* TIMx)
{
 8002f3c:	b480      	push	{r7}
 8002f3e:	b083      	sub	sp, #12
 8002f40:	af00      	add	r7, sp, #0
 8002f42:	6078      	str	r0, [r7, #4]
  /* Check the parameters */
  assert_param(IS_TIM_LIST2_PERIPH(TIMx));

  /* Get the Capture 2 Register value */
  return TIMx->CCR2;
 8002f44:	687b      	ldr	r3, [r7, #4]
 8002f46:	6b9b      	ldr	r3, [r3, #56]	; 0x38
}
 8002f48:	4618      	mov	r0, r3
 8002f4a:	370c      	adds	r7, #12
 8002f4c:	46bd      	mov	sp, r7
 8002f4e:	f85d 7b04 	ldr.w	r7, [sp], #4
 8002f52:	4770      	bx	lr

08002f54 <TIM_GetCapture3>:
  * @brief  Gets the TIMx Input Capture 3 value.
  * @param  TIMx: where x can be 1, 2, 3, 4, 5 or 8 to select the TIM peripheral.
  * @retval Capture Compare 3 Register value.
  */
uint32_t TIM_GetCapture3(TIM_TypeDef* TIMx)
{
 8002f54:	b480      	push	{r7}
 8002f56:	b083      	sub	sp, #12
 8002f58:	af00      	add	r7, sp, #0
 8002f5a:	6078      	str	r0, [r7, #4]
  /* Check the parameters */
  assert_param(IS_TIM_LIST3_PERIPH(TIMx)); 

  /* Get the Capture 3 Register value */
  return TIMx->CCR3;
 8002f5c:	687b      	ldr	r3, [r7, #4]
 8002f5e:	6bdb      	ldr	r3, [r3, #60]	; 0x3c
}
 8002f60:	4618      	mov	r0, r3
 8002f62:	370c      	adds	r7, #12
 8002f64:	46bd      	mov	sp, r7
 8002f66:	f85d 7b04 	ldr.w	r7, [sp], #4
 8002f6a:	4770      	bx	lr

08002f6c <TIM_GetCapture4>:
  * @brief  Gets the TIMx Input Capture 4 value.
  * @param  TIMx: where x can be 1, 2, 3, 4, 5 or 8 to select the TIM peripheral.
  * @retval Capture Compare 4 Register value.
  */
uint32_t TIM_GetCapture4(TIM_TypeDef* TIMx)
{
 8002f6c:	b480      	push	{r7}
 8002f6e:	b083      	sub	sp, #12
 8002f70:	af00      	add	r7, sp, #0
 8002f72:	6078      	str	r0, [r7, #4]
  /* Check the parameters */
  assert_param(IS_TIM_LIST3_PERIPH(TIMx));

  /* Get the Capture 4 Register value */
  return TIMx->CCR4;
 8002f74:	687b      	ldr	r3, [r7, #4]
 8002f76:	6c1b      	ldr	r3, [r3, #64]	; 0x40
}
 8002f78:	4618      	mov	r0, r3
 8002f7a:	370c      	adds	r7, #12
 8002f7c:	46bd      	mov	sp, r7
 8002f7e:	f85d 7b04 	ldr.w	r7, [sp], #4
 8002f82:	4770      	bx	lr

08002f84 <TIM_SetIC1Prescaler>:
  *            @arg TIM_ICPSC_DIV4: capture is done once every 4 events
  *            @arg TIM_ICPSC_DIV8: capture is done once every 8 events
  * @retval None
  */
void TIM_SetIC1Prescaler(TIM_TypeDef* TIMx, uint16_t TIM_ICPSC)
{
 8002f84:	b480      	push	{r7}
 8002f86:	b083      	sub	sp, #12
 8002f88:	af00      	add	r7, sp, #0
 8002f8a:	6078      	str	r0, [r7, #4]
 8002f8c:	460b      	mov	r3, r1
 8002f8e:	807b      	strh	r3, [r7, #2]
  /* Check the parameters */
  assert_param(IS_TIM_LIST1_PERIPH(TIMx));
  assert_param(IS_TIM_IC_PRESCALER(TIM_ICPSC));

  /* Reset the IC1PSC Bits */
  TIMx->CCMR1 &= (uint16_t)~TIM_CCMR1_IC1PSC;
 8002f90:	687b      	ldr	r3, [r7, #4]
 8002f92:	8b1b      	ldrh	r3, [r3, #24]
 8002f94:	b29b      	uxth	r3, r3
 8002f96:	f023 030c 	bic.w	r3, r3, #12
 8002f9a:	b29a      	uxth	r2, r3
 8002f9c:	687b      	ldr	r3, [r7, #4]
 8002f9e:	831a      	strh	r2, [r3, #24]

  /* Set the IC1PSC value */
  TIMx->CCMR1 |= TIM_ICPSC;
 8002fa0:	687b      	ldr	r3, [r7, #4]
 8002fa2:	8b1b      	ldrh	r3, [r3, #24]
 8002fa4:	b29a      	uxth	r2, r3
 8002fa6:	887b      	ldrh	r3, [r7, #2]
 8002fa8:	4313      	orrs	r3, r2
 8002faa:	b29a      	uxth	r2, r3
 8002fac:	687b      	ldr	r3, [r7, #4]
 8002fae:	831a      	strh	r2, [r3, #24]
}
 8002fb0:	370c      	adds	r7, #12
 8002fb2:	46bd      	mov	sp, r7
 8002fb4:	f85d 7b04 	ldr.w	r7, [sp], #4
 8002fb8:	4770      	bx	lr
 8002fba:	bf00      	nop

08002fbc <TIM_SetIC2Prescaler>:
  *            @arg TIM_ICPSC_DIV4: capture is done once every 4 events
  *            @arg TIM_ICPSC_DIV8: capture is done once every 8 events
  * @retval None
  */
void TIM_SetIC2Prescaler(TIM_TypeDef* TIMx, uint16_t TIM_ICPSC)
{
 8002fbc:	b480      	push	{r7}
 8002fbe:	b083      	sub	sp, #12
 8002fc0:	af00      	add	r7, sp, #0
 8002fc2:	6078      	str	r0, [r7, #4]
 8002fc4:	460b      	mov	r3, r1
 8002fc6:	807b      	strh	r3, [r7, #2]
  /* Check the parameters */
  assert_param(IS_TIM_LIST2_PERIPH(TIMx));
  assert_param(IS_TIM_IC_PRESCALER(TIM_ICPSC));

  /* Reset the IC2PSC Bits */
  TIMx->CCMR1 &= (uint16_t)~TIM_CCMR1_IC2PSC;
 8002fc8:	687b      	ldr	r3, [r7, #4]
 8002fca:	8b1b      	ldrh	r3, [r3, #24]
 8002fcc:	b29b      	uxth	r3, r3
 8002fce:	f423 6340 	bic.w	r3, r3, #3072	; 0xc00
 8002fd2:	b29a      	uxth	r2, r3
 8002fd4:	687b      	ldr	r3, [r7, #4]
 8002fd6:	831a      	strh	r2, [r3, #24]

  /* Set the IC2PSC value */
  TIMx->CCMR1 |= (uint16_t)(TIM_ICPSC << 8);
 8002fd8:	687b      	ldr	r3, [r7, #4]
 8002fda:	8b1b      	ldrh	r3, [r3, #24]
 8002fdc:	b29a      	uxth	r2, r3
 8002fde:	887b      	ldrh	r3, [r7, #2]
 8002fe0:	021b      	lsls	r3, r3, #8
 8002fe2:	b29b      	uxth	r3, r3
 8002fe4:	4313      	orrs	r3, r2
 8002fe6:	b29a      	uxth	r2, r3
 8002fe8:	687b      	ldr	r3, [r7, #4]
 8002fea:	831a      	strh	r2, [r3, #24]
}
 8002fec:	370c      	adds	r7, #12
 8002fee:	46bd      	mov	sp, r7
 8002ff0:	f85d 7b04 	ldr.w	r7, [sp], #4
 8002ff4:	4770      	bx	lr
 8002ff6:	bf00      	nop

08002ff8 <TIM_SetIC3Prescaler>:
  *            @arg TIM_ICPSC_DIV4: capture is done once every 4 events
  *            @arg TIM_ICPSC_DIV8: capture is done once every 8 events
  * @retval None
  */
void TIM_SetIC3Prescaler(TIM_TypeDef* TIMx, uint16_t TIM_ICPSC)
{
 8002ff8:	b480      	push	{r7}
 8002ffa:	b083      	sub	sp, #12
 8002ffc:	af00      	add	r7, sp, #0
 8002ffe:	6078      	str	r0, [r7, #4]
 8003000:	460b      	mov	r3, r1
 8003002:	807b      	strh	r3, [r7, #2]
  /* Check the parameters */
  assert_param(IS_TIM_LIST3_PERIPH(TIMx));
  assert_param(IS_TIM_IC_PRESCALER(TIM_ICPSC));

  /* Reset the IC3PSC Bits */
  TIMx->CCMR2 &= (uint16_t)~TIM_CCMR2_IC3PSC;
 8003004:	687b      	ldr	r3, [r7, #4]
 8003006:	8b9b      	ldrh	r3, [r3, #28]
 8003008:	b29b      	uxth	r3, r3
 800300a:	f023 030c 	bic.w	r3, r3, #12
 800300e:	b29a      	uxth	r2, r3
 8003010:	687b      	ldr	r3, [r7, #4]
 8003012:	839a      	strh	r2, [r3, #28]

  /* Set the IC3PSC value */
  TIMx->CCMR2 |= TIM_ICPSC;
 8003014:	687b      	ldr	r3, [r7, #4]
 8003016:	8b9b      	ldrh	r3, [r3, #28]
 8003018:	b29a      	uxth	r2, r3
 800301a:	887b      	ldrh	r3, [r7, #2]
 800301c:	4313      	orrs	r3, r2
 800301e:	b29a      	uxth	r2, r3
 8003020:	687b      	ldr	r3, [r7, #4]
 8003022:	839a      	strh	r2, [r3, #28]
}
 8003024:	370c      	adds	r7, #12
 8003026:	46bd      	mov	sp, r7
 8003028:	f85d 7b04 	ldr.w	r7, [sp], #4
 800302c:	4770      	bx	lr
 800302e:	bf00      	nop

08003030 <TIM_SetIC4Prescaler>:
  *            @arg TIM_ICPSC_DIV4: capture is done once every 4 events
  *            @arg TIM_ICPSC_DIV8: capture is done once every 8 events
  * @retval None
  */
void TIM_SetIC4Prescaler(TIM_TypeDef* TIMx, uint16_t TIM_ICPSC)
{  
 8003030:	b480      	push	{r7}
 8003032:	b083      	sub	sp, #12
 8003034:	af00      	add	r7, sp, #0
 8003036:	6078      	str	r0, [r7, #4]
 8003038:	460b      	mov	r3, r1
 800303a:	807b      	strh	r3, [r7, #2]
  /* Check the parameters */
  assert_param(IS_TIM_LIST3_PERIPH(TIMx));
  assert_param(IS_TIM_IC_PRESCALER(TIM_ICPSC));

  /* Reset the IC4PSC Bits */
  TIMx->CCMR2 &= (uint16_t)~TIM_CCMR2_IC4PSC;
 800303c:	687b      	ldr	r3, [r7, #4]
 800303e:	8b9b      	ldrh	r3, [r3, #28]
 8003040:	b29b      	uxth	r3, r3
 8003042:	f423 6340 	bic.w	r3, r3, #3072	; 0xc00
 8003046:	b29a      	uxth	r2, r3
 8003048:	687b      	ldr	r3, [r7, #4]
 800304a:	839a      	strh	r2, [r3, #28]

  /* Set the IC4PSC value */
  TIMx->CCMR2 |= (uint16_t)(TIM_ICPSC << 8);
 800304c:	687b      	ldr	r3, [r7, #4]
 800304e:	8b9b      	ldrh	r3, [r3, #28]
 8003050:	b29a      	uxth	r2, r3
 8003052:	887b      	ldrh	r3, [r7, #2]
 8003054:	021b      	lsls	r3, r3, #8
 8003056:	b29b      	uxth	r3, r3
 8003058:	4313      	orrs	r3, r2
 800305a:	b29a      	uxth	r2, r3
 800305c:	687b      	ldr	r3, [r7, #4]
 800305e:	839a      	strh	r2, [r3, #28]
}
 8003060:	370c      	adds	r7, #12
 8003062:	46bd      	mov	sp, r7
 8003064:	f85d 7b04 	ldr.w	r7, [sp], #4
 8003068:	4770      	bx	lr
 800306a:	bf00      	nop

0800306c <TIM_BDTRConfig>:
  * @param  TIM_BDTRInitStruct: pointer to a TIM_BDTRInitTypeDef structure that
  *         contains the BDTR Register configuration  information for the TIM peripheral.
  * @retval None
  */
void TIM_BDTRConfig(TIM_TypeDef* TIMx, TIM_BDTRInitTypeDef *TIM_BDTRInitStruct)
{
 800306c:	b480      	push	{r7}
 800306e:	b083      	sub	sp, #12
 8003070:	af00      	add	r7, sp, #0
 8003072:	6078      	str	r0, [r7, #4]
 8003074:	6039      	str	r1, [r7, #0]
  assert_param(IS_TIM_BREAK_POLARITY(TIM_BDTRInitStruct->TIM_BreakPolarity));
  assert_param(IS_TIM_AUTOMATIC_OUTPUT_STATE(TIM_BDTRInitStruct->TIM_AutomaticOutput));

  /* Set the Lock level, the Break enable Bit and the Polarity, the OSSR State,
     the OSSI State, the dead time value and the Automatic Output Enable Bit */
  TIMx->BDTR = (uint32_t)TIM_BDTRInitStruct->TIM_OSSRState | TIM_BDTRInitStruct->TIM_OSSIState |
 8003076:	683b      	ldr	r3, [r7, #0]
 8003078:	881a      	ldrh	r2, [r3, #0]
 800307a:	683b      	ldr	r3, [r7, #0]
 800307c:	885b      	ldrh	r3, [r3, #2]
 800307e:	4313      	orrs	r3, r2
 8003080:	b29a      	uxth	r2, r3
             TIM_BDTRInitStruct->TIM_LOCKLevel | TIM_BDTRInitStruct->TIM_DeadTime |
 8003082:	683b      	ldr	r3, [r7, #0]
 8003084:	889b      	ldrh	r3, [r3, #4]
  assert_param(IS_TIM_BREAK_POLARITY(TIM_BDTRInitStruct->TIM_BreakPolarity));
  assert_param(IS_TIM_AUTOMATIC_OUTPUT_STATE(TIM_BDTRInitStruct->TIM_AutomaticOutput));

  /* Set the Lock level, the Break enable Bit and the Polarity, the OSSR State,
     the OSSI State, the dead time value and the Automatic Output Enable Bit */
  TIMx->BDTR = (uint32_t)TIM_BDTRInitStruct->TIM_OSSRState | TIM_BDTRInitStruct->TIM_OSSIState |
 8003086:	4313      	orrs	r3, r2
 8003088:	b29a      	uxth	r2, r3
             TIM_BDTRInitStruct->TIM_LOCKLevel | TIM_BDTRInitStruct->TIM_DeadTime |
 800308a:	683b      	ldr	r3, [r7, #0]
 800308c:	88db      	ldrh	r3, [r3, #6]
  assert_param(IS_TIM_BREAK_POLARITY(TIM_BDTRInitStruct->TIM_BreakPolarity));
  assert_param(IS_TIM_AUTOMATIC_OUTPUT_STATE(TIM_BDTRInitStruct->TIM_AutomaticOutput));

  /* Set the Lock level, the Break enable Bit and the Polarity, the OSSR State,
     the OSSI State, the dead time value and the Automatic Output Enable Bit */
  TIMx->BDTR = (uint32_t)TIM_BDTRInitStruct->TIM_OSSRState | TIM_BDTRInitStruct->TIM_OSSIState |
 800308e:	4313      	orrs	r3, r2
 8003090:	b29a      	uxth	r2, r3
             TIM_BDTRInitStruct->TIM_LOCKLevel | TIM_BDTRInitStruct->TIM_DeadTime |
             TIM_BDTRInitStruct->TIM_Break | TIM_BDTRInitStruct->TIM_BreakPolarity |
 8003092:	683b      	ldr	r3, [r7, #0]
 8003094:	891b      	ldrh	r3, [r3, #8]
  assert_param(IS_TIM_BREAK_POLARITY(TIM_BDTRInitStruct->TIM_BreakPolarity));
  assert_param(IS_TIM_AUTOMATIC_OUTPUT_STATE(TIM_BDTRInitStruct->TIM_AutomaticOutput));

  /* Set the Lock level, the Break enable Bit and the Polarity, the OSSR State,
     the OSSI State, the dead time value and the Automatic Output Enable Bit */
  TIMx->BDTR = (uint32_t)TIM_BDTRInitStruct->TIM_OSSRState | TIM_BDTRInitStruct->TIM_OSSIState |
 8003096:	4313      	orrs	r3, r2
 8003098:	b29a      	uxth	r2, r3
             TIM_BDTRInitStruct->TIM_LOCKLevel | TIM_BDTRInitStruct->TIM_DeadTime |
             TIM_BDTRInitStruct->TIM_Break | TIM_BDTRInitStruct->TIM_BreakPolarity |
 800309a:	683b      	ldr	r3, [r7, #0]
 800309c:	895b      	ldrh	r3, [r3, #10]
  assert_param(IS_TIM_BREAK_POLARITY(TIM_BDTRInitStruct->TIM_BreakPolarity));
  assert_param(IS_TIM_AUTOMATIC_OUTPUT_STATE(TIM_BDTRInitStruct->TIM_AutomaticOutput));

  /* Set the Lock level, the Break enable Bit and the Polarity, the OSSR State,
     the OSSI State, the dead time value and the Automatic Output Enable Bit */
  TIMx->BDTR = (uint32_t)TIM_BDTRInitStruct->TIM_OSSRState | TIM_BDTRInitStruct->TIM_OSSIState |
 800309e:	4313      	orrs	r3, r2
 80030a0:	b29a      	uxth	r2, r3
             TIM_BDTRInitStruct->TIM_LOCKLevel | TIM_BDTRInitStruct->TIM_DeadTime |
             TIM_BDTRInitStruct->TIM_Break | TIM_BDTRInitStruct->TIM_BreakPolarity |
             TIM_BDTRInitStruct->TIM_AutomaticOutput;
 80030a2:	683b      	ldr	r3, [r7, #0]
 80030a4:	899b      	ldrh	r3, [r3, #12]
  assert_param(IS_TIM_BREAK_POLARITY(TIM_BDTRInitStruct->TIM_BreakPolarity));
  assert_param(IS_TIM_AUTOMATIC_OUTPUT_STATE(TIM_BDTRInitStruct->TIM_AutomaticOutput));

  /* Set the Lock level, the Break enable Bit and the Polarity, the OSSR State,
     the OSSI State, the dead time value and the Automatic Output Enable Bit */
  TIMx->BDTR = (uint32_t)TIM_BDTRInitStruct->TIM_OSSRState | TIM_BDTRInitStruct->TIM_OSSIState |
 80030a6:	4313      	orrs	r3, r2
 80030a8:	b29a      	uxth	r2, r3
 80030aa:	687b      	ldr	r3, [r7, #4]
 80030ac:	f8a3 2044 	strh.w	r2, [r3, #68]	; 0x44
             TIM_BDTRInitStruct->TIM_LOCKLevel | TIM_BDTRInitStruct->TIM_DeadTime |
             TIM_BDTRInitStruct->TIM_Break | TIM_BDTRInitStruct->TIM_BreakPolarity |
             TIM_BDTRInitStruct->TIM_AutomaticOutput;
}
 80030b0:	370c      	adds	r7, #12
 80030b2:	46bd      	mov	sp, r7
 80030b4:	f85d 7b04 	ldr.w	r7, [sp], #4
 80030b8:	4770      	bx	lr
 80030ba:	bf00      	nop

080030bc <TIM_BDTRStructInit>:
  * @param  TIM_BDTRInitStruct: pointer to a TIM_BDTRInitTypeDef structure which
  *         will be initialized.
  * @retval None
  */
void TIM_BDTRStructInit(TIM_BDTRInitTypeDef* TIM_BDTRInitStruct)
{
 80030bc:	b480      	push	{r7}
 80030be:	b083      	sub	sp, #12
 80030c0:	af00      	add	r7, sp, #0
 80030c2:	6078      	str	r0, [r7, #4]
  /* Set the default configuration */
  TIM_BDTRInitStruct->TIM_OSSRState = TIM_OSSRState_Disable;
 80030c4:	687b      	ldr	r3, [r7, #4]
 80030c6:	2200      	movs	r2, #0
 80030c8:	801a      	strh	r2, [r3, #0]
  TIM_BDTRInitStruct->TIM_OSSIState = TIM_OSSIState_Disable;
 80030ca:	687b      	ldr	r3, [r7, #4]
 80030cc:	2200      	movs	r2, #0
 80030ce:	805a      	strh	r2, [r3, #2]
  TIM_BDTRInitStruct->TIM_LOCKLevel = TIM_LOCKLevel_OFF;
 80030d0:	687b      	ldr	r3, [r7, #4]
 80030d2:	2200      	movs	r2, #0
 80030d4:	809a      	strh	r2, [r3, #4]
  TIM_BDTRInitStruct->TIM_DeadTime = 0x00;
 80030d6:	687b      	ldr	r3, [r7, #4]
 80030d8:	2200      	movs	r2, #0
 80030da:	80da      	strh	r2, [r3, #6]
  TIM_BDTRInitStruct->TIM_Break = TIM_Break_Disable;
 80030dc:	687b      	ldr	r3, [r7, #4]
 80030de:	2200      	movs	r2, #0
 80030e0:	811a      	strh	r2, [r3, #8]
  TIM_BDTRInitStruct->TIM_BreakPolarity = TIM_BreakPolarity_Low;
 80030e2:	687b      	ldr	r3, [r7, #4]
 80030e4:	2200      	movs	r2, #0
 80030e6:	815a      	strh	r2, [r3, #10]
  TIM_BDTRInitStruct->TIM_AutomaticOutput = TIM_AutomaticOutput_Disable;
 80030e8:	687b      	ldr	r3, [r7, #4]
 80030ea:	2200      	movs	r2, #0
 80030ec:	819a      	strh	r2, [r3, #12]
}
 80030ee:	370c      	adds	r7, #12
 80030f0:	46bd      	mov	sp, r7
 80030f2:	f85d 7b04 	ldr.w	r7, [sp], #4
 80030f6:	4770      	bx	lr

080030f8 <TIM_CtrlPWMOutputs>:
  * @param  NewState: new state of the TIM peripheral Main Outputs.
  *          This parameter can be: ENABLE or DISABLE.
  * @retval None
  */
void TIM_CtrlPWMOutputs(TIM_TypeDef* TIMx, FunctionalState NewState)
{
 80030f8:	b480      	push	{r7}
 80030fa:	b083      	sub	sp, #12
 80030fc:	af00      	add	r7, sp, #0
 80030fe:	6078      	str	r0, [r7, #4]
 8003100:	460b      	mov	r3, r1
 8003102:	70fb      	strb	r3, [r7, #3]
  /* Check the parameters */
  assert_param(IS_TIM_LIST4_PERIPH(TIMx));
  assert_param(IS_FUNCTIONAL_STATE(NewState));

  if (NewState != DISABLE)
 8003104:	78fb      	ldrb	r3, [r7, #3]
 8003106:	2b00      	cmp	r3, #0
 8003108:	d00c      	beq.n	8003124 <TIM_CtrlPWMOutputs+0x2c>
  {
    /* Enable the TIM Main Output */
    TIMx->BDTR |= TIM_BDTR_MOE;
 800310a:	687b      	ldr	r3, [r7, #4]
 800310c:	f8b3 3044 	ldrh.w	r3, [r3, #68]	; 0x44
 8003110:	b29b      	uxth	r3, r3
 8003112:	ea6f 4343 	mvn.w	r3, r3, lsl #17
 8003116:	ea6f 4353 	mvn.w	r3, r3, lsr #17
 800311a:	b29a      	uxth	r2, r3
 800311c:	687b      	ldr	r3, [r7, #4]
 800311e:	f8a3 2044 	strh.w	r2, [r3, #68]	; 0x44
 8003122:	e009      	b.n	8003138 <TIM_CtrlPWMOutputs+0x40>
  }
  else
  {
    /* Disable the TIM Main Output */
    TIMx->BDTR &= (uint16_t)~TIM_BDTR_MOE;
 8003124:	687b      	ldr	r3, [r7, #4]
 8003126:	f8b3 3044 	ldrh.w	r3, [r3, #68]	; 0x44
 800312a:	b29b      	uxth	r3, r3
 800312c:	f3c3 030e 	ubfx	r3, r3, #0, #15
 8003130:	b29a      	uxth	r2, r3
 8003132:	687b      	ldr	r3, [r7, #4]
 8003134:	f8a3 2044 	strh.w	r2, [r3, #68]	; 0x44
  }  
}
 8003138:	370c      	adds	r7, #12
 800313a:	46bd      	mov	sp, r7
 800313c:	f85d 7b04 	ldr.w	r7, [sp], #4
 8003140:	4770      	bx	lr
 8003142:	bf00      	nop

08003144 <TIM_SelectCOM>:
  * @param  NewState: new state of the Commutation event.
  *          This parameter can be: ENABLE or DISABLE.
  * @retval None
  */
void TIM_SelectCOM(TIM_TypeDef* TIMx, FunctionalState NewState)
{
 8003144:	b480      	push	{r7}
 8003146:	b083      	sub	sp, #12
 8003148:	af00      	add	r7, sp, #0
 800314a:	6078      	str	r0, [r7, #4]
 800314c:	460b      	mov	r3, r1
 800314e:	70fb      	strb	r3, [r7, #3]
  /* Check the parameters */
  assert_param(IS_TIM_LIST4_PERIPH(TIMx));
  assert_param(IS_FUNCTIONAL_STATE(NewState));

  if (NewState != DISABLE)
 8003150:	78fb      	ldrb	r3, [r7, #3]
 8003152:	2b00      	cmp	r3, #0
 8003154:	d008      	beq.n	8003168 <TIM_SelectCOM+0x24>
  {
    /* Set the COM Bit */
    TIMx->CR2 |= TIM_CR2_CCUS;
 8003156:	687b      	ldr	r3, [r7, #4]
 8003158:	889b      	ldrh	r3, [r3, #4]
 800315a:	b29b      	uxth	r3, r3
 800315c:	f043 0304 	orr.w	r3, r3, #4
 8003160:	b29a      	uxth	r2, r3
 8003162:	687b      	ldr	r3, [r7, #4]
 8003164:	809a      	strh	r2, [r3, #4]
 8003166:	e007      	b.n	8003178 <TIM_SelectCOM+0x34>
  }
  else
  {
    /* Reset the COM Bit */
    TIMx->CR2 &= (uint16_t)~TIM_CR2_CCUS;
 8003168:	687b      	ldr	r3, [r7, #4]
 800316a:	889b      	ldrh	r3, [r3, #4]
 800316c:	b29b      	uxth	r3, r3
 800316e:	f023 0304 	bic.w	r3, r3, #4
 8003172:	b29a      	uxth	r2, r3
 8003174:	687b      	ldr	r3, [r7, #4]
 8003176:	809a      	strh	r2, [r3, #4]
  }
}
 8003178:	370c      	adds	r7, #12
 800317a:	46bd      	mov	sp, r7
 800317c:	f85d 7b04 	ldr.w	r7, [sp], #4
 8003180:	4770      	bx	lr
 8003182:	bf00      	nop

08003184 <TIM_CCPreloadControl>:
  * @param  NewState: new state of the Capture Compare Preload Control bit
  *          This parameter can be: ENABLE or DISABLE.
  * @retval None
  */
void TIM_CCPreloadControl(TIM_TypeDef* TIMx, FunctionalState NewState)
{ 
 8003184:	b480      	push	{r7}
 8003186:	b083      	sub	sp, #12
 8003188:	af00      	add	r7, sp, #0
 800318a:	6078      	str	r0, [r7, #4]
 800318c:	460b      	mov	r3, r1
 800318e:	70fb      	strb	r3, [r7, #3]
  /* Check the parameters */
  assert_param(IS_TIM_LIST4_PERIPH(TIMx));
  assert_param(IS_FUNCTIONAL_STATE(NewState));
  if (NewState != DISABLE)
 8003190:	78fb      	ldrb	r3, [r7, #3]
 8003192:	2b00      	cmp	r3, #0
 8003194:	d008      	beq.n	80031a8 <TIM_CCPreloadControl+0x24>
  {
    /* Set the CCPC Bit */
    TIMx->CR2 |= TIM_CR2_CCPC;
 8003196:	687b      	ldr	r3, [r7, #4]
 8003198:	889b      	ldrh	r3, [r3, #4]
 800319a:	b29b      	uxth	r3, r3
 800319c:	f043 0301 	orr.w	r3, r3, #1
 80031a0:	b29a      	uxth	r2, r3
 80031a2:	687b      	ldr	r3, [r7, #4]
 80031a4:	809a      	strh	r2, [r3, #4]
 80031a6:	e007      	b.n	80031b8 <TIM_CCPreloadControl+0x34>
  }
  else
  {
    /* Reset the CCPC Bit */
    TIMx->CR2 &= (uint16_t)~TIM_CR2_CCPC;
 80031a8:	687b      	ldr	r3, [r7, #4]
 80031aa:	889b      	ldrh	r3, [r3, #4]
 80031ac:	b29b      	uxth	r3, r3
 80031ae:	f023 0301 	bic.w	r3, r3, #1
 80031b2:	b29a      	uxth	r2, r3
 80031b4:	687b      	ldr	r3, [r7, #4]
 80031b6:	809a      	strh	r2, [r3, #4]
  }
}
 80031b8:	370c      	adds	r7, #12
 80031ba:	46bd      	mov	sp, r7
 80031bc:	f85d 7b04 	ldr.w	r7, [sp], #4
 80031c0:	4770      	bx	lr
 80031c2:	bf00      	nop

080031c4 <TIM_ITConfig>:
  * @param  NewState: new state of the TIM interrupts.
  *          This parameter can be: ENABLE or DISABLE.
  * @retval None
  */
void TIM_ITConfig(TIM_TypeDef* TIMx, uint16_t TIM_IT, FunctionalState NewState)
{  
 80031c4:	b480      	push	{r7}
 80031c6:	b083      	sub	sp, #12
 80031c8:	af00      	add	r7, sp, #0
 80031ca:	6078      	str	r0, [r7, #4]
 80031cc:	460b      	mov	r3, r1
 80031ce:	807b      	strh	r3, [r7, #2]
 80031d0:	4613      	mov	r3, r2
 80031d2:	707b      	strb	r3, [r7, #1]
  /* Check the parameters */
  assert_param(IS_TIM_ALL_PERIPH(TIMx));
  assert_param(IS_TIM_IT(TIM_IT));
  assert_param(IS_FUNCTIONAL_STATE(NewState));
  
  if (NewState != DISABLE)
 80031d4:	787b      	ldrb	r3, [r7, #1]
 80031d6:	2b00      	cmp	r3, #0
 80031d8:	d008      	beq.n	80031ec <TIM_ITConfig+0x28>
  {
    /* Enable the Interrupt sources */
    TIMx->DIER |= TIM_IT;
 80031da:	687b      	ldr	r3, [r7, #4]
 80031dc:	899b      	ldrh	r3, [r3, #12]
 80031de:	b29a      	uxth	r2, r3
 80031e0:	887b      	ldrh	r3, [r7, #2]
 80031e2:	4313      	orrs	r3, r2
 80031e4:	b29a      	uxth	r2, r3
 80031e6:	687b      	ldr	r3, [r7, #4]
 80031e8:	819a      	strh	r2, [r3, #12]
 80031ea:	e009      	b.n	8003200 <TIM_ITConfig+0x3c>
  }
  else
  {
    /* Disable the Interrupt sources */
    TIMx->DIER &= (uint16_t)~TIM_IT;
 80031ec:	687b      	ldr	r3, [r7, #4]
 80031ee:	899b      	ldrh	r3, [r3, #12]
 80031f0:	b29a      	uxth	r2, r3
 80031f2:	887b      	ldrh	r3, [r7, #2]
 80031f4:	43db      	mvns	r3, r3
 80031f6:	b29b      	uxth	r3, r3
 80031f8:	4013      	ands	r3, r2
 80031fa:	b29a      	uxth	r2, r3
 80031fc:	687b      	ldr	r3, [r7, #4]
 80031fe:	819a      	strh	r2, [r3, #12]
  }
}
 8003200:	370c      	adds	r7, #12
 8003202:	46bd      	mov	sp, r7
 8003204:	f85d 7b04 	ldr.w	r7, [sp], #4
 8003208:	4770      	bx	lr
 800320a:	bf00      	nop

0800320c <TIM_GenerateEvent>:
  * @note   TIM_EventSource_COM and TIM_EventSource_Break are used only with TIM1 and TIM8.
  *        
  * @retval None
  */
void TIM_GenerateEvent(TIM_TypeDef* TIMx, uint16_t TIM_EventSource)
{ 
 800320c:	b480      	push	{r7}
 800320e:	b083      	sub	sp, #12
 8003210:	af00      	add	r7, sp, #0
 8003212:	6078      	str	r0, [r7, #4]
 8003214:	460b      	mov	r3, r1
 8003216:	807b      	strh	r3, [r7, #2]
  /* Check the parameters */
  assert_param(IS_TIM_ALL_PERIPH(TIMx));
  assert_param(IS_TIM_EVENT_SOURCE(TIM_EventSource));
 
  /* Set the event sources */
  TIMx->EGR = TIM_EventSource;
 8003218:	687b      	ldr	r3, [r7, #4]
 800321a:	887a      	ldrh	r2, [r7, #2]
 800321c:	829a      	strh	r2, [r3, #20]
}
 800321e:	370c      	adds	r7, #12
 8003220:	46bd      	mov	sp, r7
 8003222:	f85d 7b04 	ldr.w	r7, [sp], #4
 8003226:	4770      	bx	lr

08003228 <TIM_GetFlagStatus>:
  * @note   TIM_FLAG_COM and TIM_FLAG_Break are used only with TIM1 and TIM8.    
  *
  * @retval The new state of TIM_FLAG (SET or RESET).
  */
FlagStatus TIM_GetFlagStatus(TIM_TypeDef* TIMx, uint16_t TIM_FLAG)
{ 
 8003228:	b480      	push	{r7}
 800322a:	b085      	sub	sp, #20
 800322c:	af00      	add	r7, sp, #0
 800322e:	6078      	str	r0, [r7, #4]
 8003230:	460b      	mov	r3, r1
 8003232:	807b      	strh	r3, [r7, #2]
  ITStatus bitstatus = RESET;  
 8003234:	2300      	movs	r3, #0
 8003236:	73fb      	strb	r3, [r7, #15]
  /* Check the parameters */
  assert_param(IS_TIM_ALL_PERIPH(TIMx));
  assert_param(IS_TIM_GET_FLAG(TIM_FLAG));

  
  if ((TIMx->SR & TIM_FLAG) != (uint16_t)RESET)
 8003238:	687b      	ldr	r3, [r7, #4]
 800323a:	8a1b      	ldrh	r3, [r3, #16]
 800323c:	b29a      	uxth	r2, r3
 800323e:	887b      	ldrh	r3, [r7, #2]
 8003240:	4013      	ands	r3, r2
 8003242:	b29b      	uxth	r3, r3
 8003244:	2b00      	cmp	r3, #0
 8003246:	d002      	beq.n	800324e <TIM_GetFlagStatus+0x26>
  {
    bitstatus = SET;
 8003248:	2301      	movs	r3, #1
 800324a:	73fb      	strb	r3, [r7, #15]
 800324c:	e001      	b.n	8003252 <TIM_GetFlagStatus+0x2a>
  }
  else
  {
    bitstatus = RESET;
 800324e:	2300      	movs	r3, #0
 8003250:	73fb      	strb	r3, [r7, #15]
  }
  return bitstatus;
 8003252:	7bfb      	ldrb	r3, [r7, #15]
}
 8003254:	4618      	mov	r0, r3
 8003256:	3714      	adds	r7, #20
 8003258:	46bd      	mov	sp, r7
 800325a:	f85d 7b04 	ldr.w	r7, [sp], #4
 800325e:	4770      	bx	lr

08003260 <TIM_ClearFlag>:
  * @note   TIM_FLAG_COM and TIM_FLAG_Break are used only with TIM1 and TIM8.
  *    
  * @retval None
  */
void TIM_ClearFlag(TIM_TypeDef* TIMx, uint16_t TIM_FLAG)
{  
 8003260:	b480      	push	{r7}
 8003262:	b083      	sub	sp, #12
 8003264:	af00      	add	r7, sp, #0
 8003266:	6078      	str	r0, [r7, #4]
 8003268:	460b      	mov	r3, r1
 800326a:	807b      	strh	r3, [r7, #2]
  /* Check the parameters */
  assert_param(IS_TIM_ALL_PERIPH(TIMx));
   
  /* Clear the flags */
  TIMx->SR = (uint16_t)~TIM_FLAG;
 800326c:	887b      	ldrh	r3, [r7, #2]
 800326e:	43db      	mvns	r3, r3
 8003270:	b29a      	uxth	r2, r3
 8003272:	687b      	ldr	r3, [r7, #4]
 8003274:	821a      	strh	r2, [r3, #16]
}
 8003276:	370c      	adds	r7, #12
 8003278:	46bd      	mov	sp, r7
 800327a:	f85d 7b04 	ldr.w	r7, [sp], #4
 800327e:	4770      	bx	lr

08003280 <TIM_GetITStatus>:
  * @note   TIM_IT_COM and TIM_IT_Break are used only with TIM1 and TIM8.
  *     
  * @retval The new state of the TIM_IT(SET or RESET).
  */
ITStatus TIM_GetITStatus(TIM_TypeDef* TIMx, uint16_t TIM_IT)
{
 8003280:	b480      	push	{r7}
 8003282:	b085      	sub	sp, #20
 8003284:	af00      	add	r7, sp, #0
 8003286:	6078      	str	r0, [r7, #4]
 8003288:	460b      	mov	r3, r1
 800328a:	807b      	strh	r3, [r7, #2]
  ITStatus bitstatus = RESET;  
 800328c:	2300      	movs	r3, #0
 800328e:	73fb      	strb	r3, [r7, #15]
  uint16_t itstatus = 0x0, itenable = 0x0;
 8003290:	2300      	movs	r3, #0
 8003292:	81bb      	strh	r3, [r7, #12]
 8003294:	2300      	movs	r3, #0
 8003296:	817b      	strh	r3, [r7, #10]
  /* Check the parameters */
  assert_param(IS_TIM_ALL_PERIPH(TIMx));
  assert_param(IS_TIM_GET_IT(TIM_IT));
   
  itstatus = TIMx->SR & TIM_IT;
 8003298:	687b      	ldr	r3, [r7, #4]
 800329a:	8a1b      	ldrh	r3, [r3, #16]
 800329c:	b29a      	uxth	r2, r3
 800329e:	887b      	ldrh	r3, [r7, #2]
 80032a0:	4013      	ands	r3, r2
 80032a2:	81bb      	strh	r3, [r7, #12]
  
  itenable = TIMx->DIER & TIM_IT;
 80032a4:	687b      	ldr	r3, [r7, #4]
 80032a6:	899b      	ldrh	r3, [r3, #12]
 80032a8:	b29a      	uxth	r2, r3
 80032aa:	887b      	ldrh	r3, [r7, #2]
 80032ac:	4013      	ands	r3, r2
 80032ae:	817b      	strh	r3, [r7, #10]
  if ((itstatus != (uint16_t)RESET) && (itenable != (uint16_t)RESET))
 80032b0:	89bb      	ldrh	r3, [r7, #12]
 80032b2:	2b00      	cmp	r3, #0
 80032b4:	d005      	beq.n	80032c2 <TIM_GetITStatus+0x42>
 80032b6:	897b      	ldrh	r3, [r7, #10]
 80032b8:	2b00      	cmp	r3, #0
 80032ba:	d002      	beq.n	80032c2 <TIM_GetITStatus+0x42>
  {
    bitstatus = SET;
 80032bc:	2301      	movs	r3, #1
 80032be:	73fb      	strb	r3, [r7, #15]
 80032c0:	e001      	b.n	80032c6 <TIM_GetITStatus+0x46>
  }
  else
  {
    bitstatus = RESET;
 80032c2:	2300      	movs	r3, #0
 80032c4:	73fb      	strb	r3, [r7, #15]
  }
  return bitstatus;
 80032c6:	7bfb      	ldrb	r3, [r7, #15]
}
 80032c8:	4618      	mov	r0, r3
 80032ca:	3714      	adds	r7, #20
 80032cc:	46bd      	mov	sp, r7
 80032ce:	f85d 7b04 	ldr.w	r7, [sp], #4
 80032d2:	4770      	bx	lr

080032d4 <TIM_ClearITPendingBit>:
  * @note   TIM_IT_COM and TIM_IT_Break are used only with TIM1 and TIM8.
  *      
  * @retval None
  */
void TIM_ClearITPendingBit(TIM_TypeDef* TIMx, uint16_t TIM_IT)
{
 80032d4:	b480      	push	{r7}
 80032d6:	b083      	sub	sp, #12
 80032d8:	af00      	add	r7, sp, #0
 80032da:	6078      	str	r0, [r7, #4]
 80032dc:	460b      	mov	r3, r1
 80032de:	807b      	strh	r3, [r7, #2]
  /* Check the parameters */
  assert_param(IS_TIM_ALL_PERIPH(TIMx));

  /* Clear the IT pending Bit */
  TIMx->SR = (uint16_t)~TIM_IT;
 80032e0:	887b      	ldrh	r3, [r7, #2]
 80032e2:	43db      	mvns	r3, r3
 80032e4:	b29a      	uxth	r2, r3
 80032e6:	687b      	ldr	r3, [r7, #4]
 80032e8:	821a      	strh	r2, [r3, #16]
}
 80032ea:	370c      	adds	r7, #12
 80032ec:	46bd      	mov	sp, r7
 80032ee:	f85d 7b04 	ldr.w	r7, [sp], #4
 80032f2:	4770      	bx	lr

080032f4 <TIM_DMAConfig>:
  * @param  TIM_DMABurstLength: DMA Burst length. This parameter can be one value
  *         between: TIM_DMABurstLength_1Transfer and TIM_DMABurstLength_18Transfers.
  * @retval None
  */
void TIM_DMAConfig(TIM_TypeDef* TIMx, uint16_t TIM_DMABase, uint16_t TIM_DMABurstLength)
{
 80032f4:	b480      	push	{r7}
 80032f6:	b083      	sub	sp, #12
 80032f8:	af00      	add	r7, sp, #0
 80032fa:	6078      	str	r0, [r7, #4]
 80032fc:	460b      	mov	r3, r1
 80032fe:	807b      	strh	r3, [r7, #2]
 8003300:	4613      	mov	r3, r2
 8003302:	803b      	strh	r3, [r7, #0]
  assert_param(IS_TIM_LIST3_PERIPH(TIMx));
  assert_param(IS_TIM_DMA_BASE(TIM_DMABase)); 
  assert_param(IS_TIM_DMA_LENGTH(TIM_DMABurstLength));

  /* Set the DMA Base and the DMA Burst Length */
  TIMx->DCR = TIM_DMABase | TIM_DMABurstLength;
 8003304:	887a      	ldrh	r2, [r7, #2]
 8003306:	883b      	ldrh	r3, [r7, #0]
 8003308:	4313      	orrs	r3, r2
 800330a:	b29a      	uxth	r2, r3
 800330c:	687b      	ldr	r3, [r7, #4]
 800330e:	f8a3 2048 	strh.w	r2, [r3, #72]	; 0x48
}
 8003312:	370c      	adds	r7, #12
 8003314:	46bd      	mov	sp, r7
 8003316:	f85d 7b04 	ldr.w	r7, [sp], #4
 800331a:	4770      	bx	lr

0800331c <TIM_DMACmd>:
  * @param  NewState: new state of the DMA Request sources.
  *          This parameter can be: ENABLE or DISABLE.
  * @retval None
  */
void TIM_DMACmd(TIM_TypeDef* TIMx, uint16_t TIM_DMASource, FunctionalState NewState)
{ 
 800331c:	b480      	push	{r7}
 800331e:	b083      	sub	sp, #12
 8003320:	af00      	add	r7, sp, #0
 8003322:	6078      	str	r0, [r7, #4]
 8003324:	460b      	mov	r3, r1
 8003326:	807b      	strh	r3, [r7, #2]
 8003328:	4613      	mov	r3, r2
 800332a:	707b      	strb	r3, [r7, #1]
  /* Check the parameters */
  assert_param(IS_TIM_LIST5_PERIPH(TIMx)); 
  assert_param(IS_TIM_DMA_SOURCE(TIM_DMASource));
  assert_param(IS_FUNCTIONAL_STATE(NewState));
  
  if (NewState != DISABLE)
 800332c:	787b      	ldrb	r3, [r7, #1]
 800332e:	2b00      	cmp	r3, #0
 8003330:	d008      	beq.n	8003344 <TIM_DMACmd+0x28>
  {
    /* Enable the DMA sources */
    TIMx->DIER |= TIM_DMASource; 
 8003332:	687b      	ldr	r3, [r7, #4]
 8003334:	899b      	ldrh	r3, [r3, #12]
 8003336:	b29a      	uxth	r2, r3
 8003338:	887b      	ldrh	r3, [r7, #2]
 800333a:	4313      	orrs	r3, r2
 800333c:	b29a      	uxth	r2, r3
 800333e:	687b      	ldr	r3, [r7, #4]
 8003340:	819a      	strh	r2, [r3, #12]
 8003342:	e009      	b.n	8003358 <TIM_DMACmd+0x3c>
  }
  else
  {
    /* Disable the DMA sources */
    TIMx->DIER &= (uint16_t)~TIM_DMASource;
 8003344:	687b      	ldr	r3, [r7, #4]
 8003346:	899b      	ldrh	r3, [r3, #12]
 8003348:	b29a      	uxth	r2, r3
 800334a:	887b      	ldrh	r3, [r7, #2]
 800334c:	43db      	mvns	r3, r3
 800334e:	b29b      	uxth	r3, r3
 8003350:	4013      	ands	r3, r2
 8003352:	b29a      	uxth	r2, r3
 8003354:	687b      	ldr	r3, [r7, #4]
 8003356:	819a      	strh	r2, [r3, #12]
  }
}
 8003358:	370c      	adds	r7, #12
 800335a:	46bd      	mov	sp, r7
 800335c:	f85d 7b04 	ldr.w	r7, [sp], #4
 8003360:	4770      	bx	lr
 8003362:	bf00      	nop

08003364 <TIM_SelectCCDMA>:
  * @param  NewState: new state of the Capture Compare DMA source
  *          This parameter can be: ENABLE or DISABLE.
  * @retval None
  */
void TIM_SelectCCDMA(TIM_TypeDef* TIMx, FunctionalState NewState)
{
 8003364:	b480      	push	{r7}
 8003366:	b083      	sub	sp, #12
 8003368:	af00      	add	r7, sp, #0
 800336a:	6078      	str	r0, [r7, #4]
 800336c:	460b      	mov	r3, r1
 800336e:	70fb      	strb	r3, [r7, #3]
  /* Check the parameters */
  assert_param(IS_TIM_LIST3_PERIPH(TIMx));
  assert_param(IS_FUNCTIONAL_STATE(NewState));

  if (NewState != DISABLE)
 8003370:	78fb      	ldrb	r3, [r7, #3]
 8003372:	2b00      	cmp	r3, #0
 8003374:	d008      	beq.n	8003388 <TIM_SelectCCDMA+0x24>
  {
    /* Set the CCDS Bit */
    TIMx->CR2 |= TIM_CR2_CCDS;
 8003376:	687b      	ldr	r3, [r7, #4]
 8003378:	889b      	ldrh	r3, [r3, #4]
 800337a:	b29b      	uxth	r3, r3
 800337c:	f043 0308 	orr.w	r3, r3, #8
 8003380:	b29a      	uxth	r2, r3
 8003382:	687b      	ldr	r3, [r7, #4]
 8003384:	809a      	strh	r2, [r3, #4]
 8003386:	e007      	b.n	8003398 <TIM_SelectCCDMA+0x34>
  }
  else
  {
    /* Reset the CCDS Bit */
    TIMx->CR2 &= (uint16_t)~TIM_CR2_CCDS;
 8003388:	687b      	ldr	r3, [r7, #4]
 800338a:	889b      	ldrh	r3, [r3, #4]
 800338c:	b29b      	uxth	r3, r3
 800338e:	f023 0308 	bic.w	r3, r3, #8
 8003392:	b29a      	uxth	r2, r3
 8003394:	687b      	ldr	r3, [r7, #4]
 8003396:	809a      	strh	r2, [r3, #4]
  }
}
 8003398:	370c      	adds	r7, #12
 800339a:	46bd      	mov	sp, r7
 800339c:	f85d 7b04 	ldr.w	r7, [sp], #4
 80033a0:	4770      	bx	lr
 80033a2:	bf00      	nop

080033a4 <TIM_InternalClockConfig>:
  * @param  TIMx: where x can be 1, 2, 3, 4, 5, 8, 9 or 12 to select the TIM 
  *         peripheral.
  * @retval None
  */
void TIM_InternalClockConfig(TIM_TypeDef* TIMx)
{
 80033a4:	b480      	push	{r7}
 80033a6:	b083      	sub	sp, #12
 80033a8:	af00      	add	r7, sp, #0
 80033aa:	6078      	str	r0, [r7, #4]
  /* Check the parameters */
  assert_param(IS_TIM_LIST2_PERIPH(TIMx));

  /* Disable slave mode to clock the prescaler directly with the internal clock */
  TIMx->SMCR &=  (uint16_t)~TIM_SMCR_SMS;
 80033ac:	687b      	ldr	r3, [r7, #4]
 80033ae:	891b      	ldrh	r3, [r3, #8]
 80033b0:	b29b      	uxth	r3, r3
 80033b2:	f023 0307 	bic.w	r3, r3, #7
 80033b6:	b29a      	uxth	r2, r3
 80033b8:	687b      	ldr	r3, [r7, #4]
 80033ba:	811a      	strh	r2, [r3, #8]
}
 80033bc:	370c      	adds	r7, #12
 80033be:	46bd      	mov	sp, r7
 80033c0:	f85d 7b04 	ldr.w	r7, [sp], #4
 80033c4:	4770      	bx	lr
 80033c6:	bf00      	nop

080033c8 <TIM_ITRxExternalClockConfig>:
  *            @arg TIM_TS_ITR2: Internal Trigger 2
  *            @arg TIM_TS_ITR3: Internal Trigger 3
  * @retval None
  */
void TIM_ITRxExternalClockConfig(TIM_TypeDef* TIMx, uint16_t TIM_InputTriggerSource)
{
 80033c8:	b580      	push	{r7, lr}
 80033ca:	b082      	sub	sp, #8
 80033cc:	af00      	add	r7, sp, #0
 80033ce:	6078      	str	r0, [r7, #4]
 80033d0:	460b      	mov	r3, r1
 80033d2:	807b      	strh	r3, [r7, #2]
  /* Check the parameters */
  assert_param(IS_TIM_LIST2_PERIPH(TIMx));
  assert_param(IS_TIM_INTERNAL_TRIGGER_SELECTION(TIM_InputTriggerSource));

  /* Select the Internal Trigger */
  TIM_SelectInputTrigger(TIMx, TIM_InputTriggerSource);
 80033d4:	887b      	ldrh	r3, [r7, #2]
 80033d6:	6878      	ldr	r0, [r7, #4]
 80033d8:	4619      	mov	r1, r3
 80033da:	f000 f887 	bl	80034ec <TIM_SelectInputTrigger>

  /* Select the External clock mode1 */
  TIMx->SMCR |= TIM_SlaveMode_External1;
 80033de:	687b      	ldr	r3, [r7, #4]
 80033e0:	891b      	ldrh	r3, [r3, #8]
 80033e2:	b29b      	uxth	r3, r3
 80033e4:	f043 0307 	orr.w	r3, r3, #7
 80033e8:	b29a      	uxth	r2, r3
 80033ea:	687b      	ldr	r3, [r7, #4]
 80033ec:	811a      	strh	r2, [r3, #8]
}
 80033ee:	3708      	adds	r7, #8
 80033f0:	46bd      	mov	sp, r7
 80033f2:	bd80      	pop	{r7, pc}

080033f4 <TIM_TIxExternalClockConfig>:
  *          This parameter must be a value between 0x0 and 0xF.
  * @retval None
  */
void TIM_TIxExternalClockConfig(TIM_TypeDef* TIMx, uint16_t TIM_TIxExternalCLKSource,
                                uint16_t TIM_ICPolarity, uint16_t ICFilter)
{
 80033f4:	b580      	push	{r7, lr}
 80033f6:	b084      	sub	sp, #16
 80033f8:	af00      	add	r7, sp, #0
 80033fa:	60f8      	str	r0, [r7, #12]
 80033fc:	4608      	mov	r0, r1
 80033fe:	4611      	mov	r1, r2
 8003400:	461a      	mov	r2, r3
 8003402:	4603      	mov	r3, r0
 8003404:	817b      	strh	r3, [r7, #10]
 8003406:	460b      	mov	r3, r1
 8003408:	813b      	strh	r3, [r7, #8]
 800340a:	4613      	mov	r3, r2
 800340c:	80fb      	strh	r3, [r7, #6]
  assert_param(IS_TIM_LIST1_PERIPH(TIMx));
  assert_param(IS_TIM_IC_POLARITY(TIM_ICPolarity));
  assert_param(IS_TIM_IC_FILTER(ICFilter));

  /* Configure the Timer Input Clock Source */
  if (TIM_TIxExternalCLKSource == TIM_TIxExternalCLK1Source_TI2)
 800340e:	897b      	ldrh	r3, [r7, #10]
 8003410:	2b60      	cmp	r3, #96	; 0x60
 8003412:	d107      	bne.n	8003424 <TIM_TIxExternalClockConfig+0x30>
  {
    TI2_Config(TIMx, TIM_ICPolarity, TIM_ICSelection_DirectTI, ICFilter);
 8003414:	893a      	ldrh	r2, [r7, #8]
 8003416:	88fb      	ldrh	r3, [r7, #6]
 8003418:	68f8      	ldr	r0, [r7, #12]
 800341a:	4611      	mov	r1, r2
 800341c:	2201      	movs	r2, #1
 800341e:	f000 f9bd 	bl	800379c <TI2_Config>
 8003422:	e006      	b.n	8003432 <TIM_TIxExternalClockConfig+0x3e>
  }
  else
  {
    TI1_Config(TIMx, TIM_ICPolarity, TIM_ICSelection_DirectTI, ICFilter);
 8003424:	893a      	ldrh	r2, [r7, #8]
 8003426:	88fb      	ldrh	r3, [r7, #6]
 8003428:	68f8      	ldr	r0, [r7, #12]
 800342a:	4611      	mov	r1, r2
 800342c:	2201      	movs	r2, #1
 800342e:	f000 f973 	bl	8003718 <TI1_Config>
  }
  /* Select the Trigger source */
  TIM_SelectInputTrigger(TIMx, TIM_TIxExternalCLKSource);
 8003432:	897b      	ldrh	r3, [r7, #10]
 8003434:	68f8      	ldr	r0, [r7, #12]
 8003436:	4619      	mov	r1, r3
 8003438:	f000 f858 	bl	80034ec <TIM_SelectInputTrigger>
  /* Select the External clock mode1 */
  TIMx->SMCR |= TIM_SlaveMode_External1;
 800343c:	68fb      	ldr	r3, [r7, #12]
 800343e:	891b      	ldrh	r3, [r3, #8]
 8003440:	b29b      	uxth	r3, r3
 8003442:	f043 0307 	orr.w	r3, r3, #7
 8003446:	b29a      	uxth	r2, r3
 8003448:	68fb      	ldr	r3, [r7, #12]
 800344a:	811a      	strh	r2, [r3, #8]
}
 800344c:	3710      	adds	r7, #16
 800344e:	46bd      	mov	sp, r7
 8003450:	bd80      	pop	{r7, pc}
 8003452:	bf00      	nop

08003454 <TIM_ETRClockMode1Config>:
  *          This parameter must be a value between 0x00 and 0x0F
  * @retval None
  */
void TIM_ETRClockMode1Config(TIM_TypeDef* TIMx, uint16_t TIM_ExtTRGPrescaler,
                            uint16_t TIM_ExtTRGPolarity, uint16_t ExtTRGFilter)
{
 8003454:	b580      	push	{r7, lr}
 8003456:	b086      	sub	sp, #24
 8003458:	af00      	add	r7, sp, #0
 800345a:	60f8      	str	r0, [r7, #12]
 800345c:	4608      	mov	r0, r1
 800345e:	4611      	mov	r1, r2
 8003460:	461a      	mov	r2, r3
 8003462:	4603      	mov	r3, r0
 8003464:	817b      	strh	r3, [r7, #10]
 8003466:	460b      	mov	r3, r1
 8003468:	813b      	strh	r3, [r7, #8]
 800346a:	4613      	mov	r3, r2
 800346c:	80fb      	strh	r3, [r7, #6]
  uint16_t tmpsmcr = 0;
 800346e:	2300      	movs	r3, #0
 8003470:	82fb      	strh	r3, [r7, #22]
  assert_param(IS_TIM_LIST3_PERIPH(TIMx));
  assert_param(IS_TIM_EXT_PRESCALER(TIM_ExtTRGPrescaler));
  assert_param(IS_TIM_EXT_POLARITY(TIM_ExtTRGPolarity));
  assert_param(IS_TIM_EXT_FILTER(ExtTRGFilter));
  /* Configure the ETR Clock source */
  TIM_ETRConfig(TIMx, TIM_ExtTRGPrescaler, TIM_ExtTRGPolarity, ExtTRGFilter);
 8003472:	8979      	ldrh	r1, [r7, #10]
 8003474:	893a      	ldrh	r2, [r7, #8]
 8003476:	88fb      	ldrh	r3, [r7, #6]
 8003478:	68f8      	ldr	r0, [r7, #12]
 800347a:	f000 f8a7 	bl	80035cc <TIM_ETRConfig>
  
  /* Get the TIMx SMCR register value */
  tmpsmcr = TIMx->SMCR;
 800347e:	68fb      	ldr	r3, [r7, #12]
 8003480:	891b      	ldrh	r3, [r3, #8]
 8003482:	82fb      	strh	r3, [r7, #22]

  /* Reset the SMS Bits */
  tmpsmcr &= (uint16_t)~TIM_SMCR_SMS;
 8003484:	8afb      	ldrh	r3, [r7, #22]
 8003486:	f023 0307 	bic.w	r3, r3, #7
 800348a:	82fb      	strh	r3, [r7, #22]

  /* Select the External clock mode1 */
  tmpsmcr |= TIM_SlaveMode_External1;
 800348c:	8afb      	ldrh	r3, [r7, #22]
 800348e:	f043 0307 	orr.w	r3, r3, #7
 8003492:	82fb      	strh	r3, [r7, #22]

  /* Select the Trigger selection : ETRF */
  tmpsmcr &= (uint16_t)~TIM_SMCR_TS;
 8003494:	8afb      	ldrh	r3, [r7, #22]
 8003496:	f023 0370 	bic.w	r3, r3, #112	; 0x70
 800349a:	82fb      	strh	r3, [r7, #22]
  tmpsmcr |= TIM_TS_ETRF;
 800349c:	8afb      	ldrh	r3, [r7, #22]
 800349e:	f043 0370 	orr.w	r3, r3, #112	; 0x70
 80034a2:	82fb      	strh	r3, [r7, #22]

  /* Write to TIMx SMCR */
  TIMx->SMCR = tmpsmcr;
 80034a4:	68fb      	ldr	r3, [r7, #12]
 80034a6:	8afa      	ldrh	r2, [r7, #22]
 80034a8:	811a      	strh	r2, [r3, #8]
}
 80034aa:	3718      	adds	r7, #24
 80034ac:	46bd      	mov	sp, r7
 80034ae:	bd80      	pop	{r7, pc}

080034b0 <TIM_ETRClockMode2Config>:
  *          This parameter must be a value between 0x00 and 0x0F
  * @retval None
  */
void TIM_ETRClockMode2Config(TIM_TypeDef* TIMx, uint16_t TIM_ExtTRGPrescaler, 
                             uint16_t TIM_ExtTRGPolarity, uint16_t ExtTRGFilter)
{
 80034b0:	b580      	push	{r7, lr}
 80034b2:	b084      	sub	sp, #16
 80034b4:	af00      	add	r7, sp, #0
 80034b6:	60f8      	str	r0, [r7, #12]
 80034b8:	4608      	mov	r0, r1
 80034ba:	4611      	mov	r1, r2
 80034bc:	461a      	mov	r2, r3
 80034be:	4603      	mov	r3, r0
 80034c0:	817b      	strh	r3, [r7, #10]
 80034c2:	460b      	mov	r3, r1
 80034c4:	813b      	strh	r3, [r7, #8]
 80034c6:	4613      	mov	r3, r2
 80034c8:	80fb      	strh	r3, [r7, #6]
  assert_param(IS_TIM_EXT_PRESCALER(TIM_ExtTRGPrescaler));
  assert_param(IS_TIM_EXT_POLARITY(TIM_ExtTRGPolarity));
  assert_param(IS_TIM_EXT_FILTER(ExtTRGFilter));

  /* Configure the ETR Clock source */
  TIM_ETRConfig(TIMx, TIM_ExtTRGPrescaler, TIM_ExtTRGPolarity, ExtTRGFilter);
 80034ca:	8979      	ldrh	r1, [r7, #10]
 80034cc:	893a      	ldrh	r2, [r7, #8]
 80034ce:	88fb      	ldrh	r3, [r7, #6]
 80034d0:	68f8      	ldr	r0, [r7, #12]
 80034d2:	f000 f87b 	bl	80035cc <TIM_ETRConfig>

  /* Enable the External clock mode2 */
  TIMx->SMCR |= TIM_SMCR_ECE;
 80034d6:	68fb      	ldr	r3, [r7, #12]
 80034d8:	891b      	ldrh	r3, [r3, #8]
 80034da:	b29b      	uxth	r3, r3
 80034dc:	f443 4380 	orr.w	r3, r3, #16384	; 0x4000
 80034e0:	b29a      	uxth	r2, r3
 80034e2:	68fb      	ldr	r3, [r7, #12]
 80034e4:	811a      	strh	r2, [r3, #8]
}
 80034e6:	3710      	adds	r7, #16
 80034e8:	46bd      	mov	sp, r7
 80034ea:	bd80      	pop	{r7, pc}

080034ec <TIM_SelectInputTrigger>:
  *            @arg TIM_TS_TI2FP2: Filtered Timer Input 2
  *            @arg TIM_TS_ETRF: External Trigger input
  * @retval None
  */
void TIM_SelectInputTrigger(TIM_TypeDef* TIMx, uint16_t TIM_InputTriggerSource)
{
 80034ec:	b480      	push	{r7}
 80034ee:	b085      	sub	sp, #20
 80034f0:	af00      	add	r7, sp, #0
 80034f2:	6078      	str	r0, [r7, #4]
 80034f4:	460b      	mov	r3, r1
 80034f6:	807b      	strh	r3, [r7, #2]
  uint16_t tmpsmcr = 0;
 80034f8:	2300      	movs	r3, #0
 80034fa:	81fb      	strh	r3, [r7, #14]
  /* Check the parameters */
  assert_param(IS_TIM_LIST1_PERIPH(TIMx)); 
  assert_param(IS_TIM_TRIGGER_SELECTION(TIM_InputTriggerSource));

  /* Get the TIMx SMCR register value */
  tmpsmcr = TIMx->SMCR;
 80034fc:	687b      	ldr	r3, [r7, #4]
 80034fe:	891b      	ldrh	r3, [r3, #8]
 8003500:	81fb      	strh	r3, [r7, #14]

  /* Reset the TS Bits */
  tmpsmcr &= (uint16_t)~TIM_SMCR_TS;
 8003502:	89fb      	ldrh	r3, [r7, #14]
 8003504:	f023 0370 	bic.w	r3, r3, #112	; 0x70
 8003508:	81fb      	strh	r3, [r7, #14]

  /* Set the Input Trigger source */
  tmpsmcr |= TIM_InputTriggerSource;
 800350a:	89fa      	ldrh	r2, [r7, #14]
 800350c:	887b      	ldrh	r3, [r7, #2]
 800350e:	4313      	orrs	r3, r2
 8003510:	81fb      	strh	r3, [r7, #14]

  /* Write to TIMx SMCR */
  TIMx->SMCR = tmpsmcr;
 8003512:	687b      	ldr	r3, [r7, #4]
 8003514:	89fa      	ldrh	r2, [r7, #14]
 8003516:	811a      	strh	r2, [r3, #8]
}
 8003518:	3714      	adds	r7, #20
 800351a:	46bd      	mov	sp, r7
 800351c:	f85d 7b04 	ldr.w	r7, [sp], #4
 8003520:	4770      	bx	lr
 8003522:	bf00      	nop

08003524 <TIM_SelectOutputTrigger>:
  *            @arg TIM_TRGOSource_OC4Ref: OC4REF signal is used as the trigger output(TRGO)
  *
  * @retval None
  */
void TIM_SelectOutputTrigger(TIM_TypeDef* TIMx, uint16_t TIM_TRGOSource)
{
 8003524:	b480      	push	{r7}
 8003526:	b083      	sub	sp, #12
 8003528:	af00      	add	r7, sp, #0
 800352a:	6078      	str	r0, [r7, #4]
 800352c:	460b      	mov	r3, r1
 800352e:	807b      	strh	r3, [r7, #2]
  /* Check the parameters */
  assert_param(IS_TIM_LIST5_PERIPH(TIMx));
  assert_param(IS_TIM_TRGO_SOURCE(TIM_TRGOSource));

  /* Reset the MMS Bits */
  TIMx->CR2 &= (uint16_t)~TIM_CR2_MMS;
 8003530:	687b      	ldr	r3, [r7, #4]
 8003532:	889b      	ldrh	r3, [r3, #4]
 8003534:	b29b      	uxth	r3, r3
 8003536:	f023 0370 	bic.w	r3, r3, #112	; 0x70
 800353a:	b29a      	uxth	r2, r3
 800353c:	687b      	ldr	r3, [r7, #4]
 800353e:	809a      	strh	r2, [r3, #4]
  /* Select the TRGO source */
  TIMx->CR2 |=  TIM_TRGOSource;
 8003540:	687b      	ldr	r3, [r7, #4]
 8003542:	889b      	ldrh	r3, [r3, #4]
 8003544:	b29a      	uxth	r2, r3
 8003546:	887b      	ldrh	r3, [r7, #2]
 8003548:	4313      	orrs	r3, r2
 800354a:	b29a      	uxth	r2, r3
 800354c:	687b      	ldr	r3, [r7, #4]
 800354e:	809a      	strh	r2, [r3, #4]
}
 8003550:	370c      	adds	r7, #12
 8003552:	46bd      	mov	sp, r7
 8003554:	f85d 7b04 	ldr.w	r7, [sp], #4
 8003558:	4770      	bx	lr
 800355a:	bf00      	nop

0800355c <TIM_SelectSlaveMode>:
  *            @arg TIM_SlaveMode_Trigger:   The counter starts at a rising edge of the trigger TRGI
  *            @arg TIM_SlaveMode_External1: Rising edges of the selected trigger (TRGI) clock the counter
  * @retval None
  */
void TIM_SelectSlaveMode(TIM_TypeDef* TIMx, uint16_t TIM_SlaveMode)
{
 800355c:	b480      	push	{r7}
 800355e:	b083      	sub	sp, #12
 8003560:	af00      	add	r7, sp, #0
 8003562:	6078      	str	r0, [r7, #4]
 8003564:	460b      	mov	r3, r1
 8003566:	807b      	strh	r3, [r7, #2]
  /* Check the parameters */
  assert_param(IS_TIM_LIST2_PERIPH(TIMx));
  assert_param(IS_TIM_SLAVE_MODE(TIM_SlaveMode));

  /* Reset the SMS Bits */
  TIMx->SMCR &= (uint16_t)~TIM_SMCR_SMS;
 8003568:	687b      	ldr	r3, [r7, #4]
 800356a:	891b      	ldrh	r3, [r3, #8]
 800356c:	b29b      	uxth	r3, r3
 800356e:	f023 0307 	bic.w	r3, r3, #7
 8003572:	b29a      	uxth	r2, r3
 8003574:	687b      	ldr	r3, [r7, #4]
 8003576:	811a      	strh	r2, [r3, #8]

  /* Select the Slave Mode */
  TIMx->SMCR |= TIM_SlaveMode;
 8003578:	687b      	ldr	r3, [r7, #4]
 800357a:	891b      	ldrh	r3, [r3, #8]
 800357c:	b29a      	uxth	r2, r3
 800357e:	887b      	ldrh	r3, [r7, #2]
 8003580:	4313      	orrs	r3, r2
 8003582:	b29a      	uxth	r2, r3
 8003584:	687b      	ldr	r3, [r7, #4]
 8003586:	811a      	strh	r2, [r3, #8]
}
 8003588:	370c      	adds	r7, #12
 800358a:	46bd      	mov	sp, r7
 800358c:	f85d 7b04 	ldr.w	r7, [sp], #4
 8003590:	4770      	bx	lr
 8003592:	bf00      	nop

08003594 <TIM_SelectMasterSlaveMode>:
  *                                             and its slaves (through TRGO)
  *            @arg TIM_MasterSlaveMode_Disable: No action
  * @retval None
  */
void TIM_SelectMasterSlaveMode(TIM_TypeDef* TIMx, uint16_t TIM_MasterSlaveMode)
{
 8003594:	b480      	push	{r7}
 8003596:	b083      	sub	sp, #12
 8003598:	af00      	add	r7, sp, #0
 800359a:	6078      	str	r0, [r7, #4]
 800359c:	460b      	mov	r3, r1
 800359e:	807b      	strh	r3, [r7, #2]
  /* Check the parameters */
  assert_param(IS_TIM_LIST2_PERIPH(TIMx));
  assert_param(IS_TIM_MSM_STATE(TIM_MasterSlaveMode));

  /* Reset the MSM Bit */
  TIMx->SMCR &= (uint16_t)~TIM_SMCR_MSM;
 80035a0:	687b      	ldr	r3, [r7, #4]
 80035a2:	891b      	ldrh	r3, [r3, #8]
 80035a4:	b29b      	uxth	r3, r3
 80035a6:	f023 0380 	bic.w	r3, r3, #128	; 0x80
 80035aa:	b29a      	uxth	r2, r3
 80035ac:	687b      	ldr	r3, [r7, #4]
 80035ae:	811a      	strh	r2, [r3, #8]
  
  /* Set or Reset the MSM Bit */
  TIMx->SMCR |= TIM_MasterSlaveMode;
 80035b0:	687b      	ldr	r3, [r7, #4]
 80035b2:	891b      	ldrh	r3, [r3, #8]
 80035b4:	b29a      	uxth	r2, r3
 80035b6:	887b      	ldrh	r3, [r7, #2]
 80035b8:	4313      	orrs	r3, r2
 80035ba:	b29a      	uxth	r2, r3
 80035bc:	687b      	ldr	r3, [r7, #4]
 80035be:	811a      	strh	r2, [r3, #8]
}
 80035c0:	370c      	adds	r7, #12
 80035c2:	46bd      	mov	sp, r7
 80035c4:	f85d 7b04 	ldr.w	r7, [sp], #4
 80035c8:	4770      	bx	lr
 80035ca:	bf00      	nop

080035cc <TIM_ETRConfig>:
  *          This parameter must be a value between 0x00 and 0x0F
  * @retval None
  */
void TIM_ETRConfig(TIM_TypeDef* TIMx, uint16_t TIM_ExtTRGPrescaler,
                   uint16_t TIM_ExtTRGPolarity, uint16_t ExtTRGFilter)
{
 80035cc:	b480      	push	{r7}
 80035ce:	b087      	sub	sp, #28
 80035d0:	af00      	add	r7, sp, #0
 80035d2:	60f8      	str	r0, [r7, #12]
 80035d4:	4608      	mov	r0, r1
 80035d6:	4611      	mov	r1, r2
 80035d8:	461a      	mov	r2, r3
 80035da:	4603      	mov	r3, r0
 80035dc:	817b      	strh	r3, [r7, #10]
 80035de:	460b      	mov	r3, r1
 80035e0:	813b      	strh	r3, [r7, #8]
 80035e2:	4613      	mov	r3, r2
 80035e4:	80fb      	strh	r3, [r7, #6]
  uint16_t tmpsmcr = 0;
 80035e6:	2300      	movs	r3, #0
 80035e8:	82fb      	strh	r3, [r7, #22]
  assert_param(IS_TIM_LIST3_PERIPH(TIMx));
  assert_param(IS_TIM_EXT_PRESCALER(TIM_ExtTRGPrescaler));
  assert_param(IS_TIM_EXT_POLARITY(TIM_ExtTRGPolarity));
  assert_param(IS_TIM_EXT_FILTER(ExtTRGFilter));

  tmpsmcr = TIMx->SMCR;
 80035ea:	68fb      	ldr	r3, [r7, #12]
 80035ec:	891b      	ldrh	r3, [r3, #8]
 80035ee:	82fb      	strh	r3, [r7, #22]

  /* Reset the ETR Bits */
  tmpsmcr &= SMCR_ETR_MASK;
 80035f0:	8afb      	ldrh	r3, [r7, #22]
 80035f2:	b2db      	uxtb	r3, r3
 80035f4:	82fb      	strh	r3, [r7, #22]

  /* Set the Prescaler, the Filter value and the Polarity */
  tmpsmcr |= (uint16_t)(TIM_ExtTRGPrescaler | (uint16_t)(TIM_ExtTRGPolarity | (uint16_t)(ExtTRGFilter << (uint16_t)8)));
 80035f6:	88fb      	ldrh	r3, [r7, #6]
 80035f8:	021b      	lsls	r3, r3, #8
 80035fa:	b29a      	uxth	r2, r3
 80035fc:	893b      	ldrh	r3, [r7, #8]
 80035fe:	4313      	orrs	r3, r2
 8003600:	b29a      	uxth	r2, r3
 8003602:	897b      	ldrh	r3, [r7, #10]
 8003604:	4313      	orrs	r3, r2
 8003606:	b29a      	uxth	r2, r3
 8003608:	8afb      	ldrh	r3, [r7, #22]
 800360a:	4313      	orrs	r3, r2
 800360c:	82fb      	strh	r3, [r7, #22]

  /* Write to TIMx SMCR */
  TIMx->SMCR = tmpsmcr;
 800360e:	68fb      	ldr	r3, [r7, #12]
 8003610:	8afa      	ldrh	r2, [r7, #22]
 8003612:	811a      	strh	r2, [r3, #8]
}
 8003614:	371c      	adds	r7, #28
 8003616:	46bd      	mov	sp, r7
 8003618:	f85d 7b04 	ldr.w	r7, [sp], #4
 800361c:	4770      	bx	lr
 800361e:	bf00      	nop

08003620 <TIM_EncoderInterfaceConfig>:
  *            @arg TIM_ICPolarity_Rising: IC Rising edge.
  * @retval None
  */
void TIM_EncoderInterfaceConfig(TIM_TypeDef* TIMx, uint16_t TIM_EncoderMode,
                                uint16_t TIM_IC1Polarity, uint16_t TIM_IC2Polarity)
{
 8003620:	b480      	push	{r7}
 8003622:	b087      	sub	sp, #28
 8003624:	af00      	add	r7, sp, #0
 8003626:	60f8      	str	r0, [r7, #12]
 8003628:	4608      	mov	r0, r1
 800362a:	4611      	mov	r1, r2
 800362c:	461a      	mov	r2, r3
 800362e:	4603      	mov	r3, r0
 8003630:	817b      	strh	r3, [r7, #10]
 8003632:	460b      	mov	r3, r1
 8003634:	813b      	strh	r3, [r7, #8]
 8003636:	4613      	mov	r3, r2
 8003638:	80fb      	strh	r3, [r7, #6]
  uint16_t tmpsmcr = 0;
 800363a:	2300      	movs	r3, #0
 800363c:	82fb      	strh	r3, [r7, #22]
  uint16_t tmpccmr1 = 0;
 800363e:	2300      	movs	r3, #0
 8003640:	82bb      	strh	r3, [r7, #20]
  uint16_t tmpccer = 0;
 8003642:	2300      	movs	r3, #0
 8003644:	827b      	strh	r3, [r7, #18]
  assert_param(IS_TIM_ENCODER_MODE(TIM_EncoderMode));
  assert_param(IS_TIM_IC_POLARITY(TIM_IC1Polarity));
  assert_param(IS_TIM_IC_POLARITY(TIM_IC2Polarity));

  /* Get the TIMx SMCR register value */
  tmpsmcr = TIMx->SMCR;
 8003646:	68fb      	ldr	r3, [r7, #12]
 8003648:	891b      	ldrh	r3, [r3, #8]
 800364a:	82fb      	strh	r3, [r7, #22]

  /* Get the TIMx CCMR1 register value */
  tmpccmr1 = TIMx->CCMR1;
 800364c:	68fb      	ldr	r3, [r7, #12]
 800364e:	8b1b      	ldrh	r3, [r3, #24]
 8003650:	82bb      	strh	r3, [r7, #20]

  /* Get the TIMx CCER register value */
  tmpccer = TIMx->CCER;
 8003652:	68fb      	ldr	r3, [r7, #12]
 8003654:	8c1b      	ldrh	r3, [r3, #32]
 8003656:	827b      	strh	r3, [r7, #18]

  /* Set the encoder Mode */
  tmpsmcr &= (uint16_t)~TIM_SMCR_SMS;
 8003658:	8afb      	ldrh	r3, [r7, #22]
 800365a:	f023 0307 	bic.w	r3, r3, #7
 800365e:	82fb      	strh	r3, [r7, #22]
  tmpsmcr |= TIM_EncoderMode;
 8003660:	8afa      	ldrh	r2, [r7, #22]
 8003662:	897b      	ldrh	r3, [r7, #10]
 8003664:	4313      	orrs	r3, r2
 8003666:	82fb      	strh	r3, [r7, #22]

  /* Select the Capture Compare 1 and the Capture Compare 2 as input */
  tmpccmr1 &= ((uint16_t)~TIM_CCMR1_CC1S) & ((uint16_t)~TIM_CCMR1_CC2S);
 8003668:	8abb      	ldrh	r3, [r7, #20]
 800366a:	f423 7340 	bic.w	r3, r3, #768	; 0x300
 800366e:	f023 0303 	bic.w	r3, r3, #3
 8003672:	82bb      	strh	r3, [r7, #20]
  tmpccmr1 |= TIM_CCMR1_CC1S_0 | TIM_CCMR1_CC2S_0;
 8003674:	8abb      	ldrh	r3, [r7, #20]
 8003676:	f443 7380 	orr.w	r3, r3, #256	; 0x100
 800367a:	f043 0301 	orr.w	r3, r3, #1
 800367e:	82bb      	strh	r3, [r7, #20]

  /* Set the TI1 and the TI2 Polarities */
  tmpccer &= ((uint16_t)~TIM_CCER_CC1P) & ((uint16_t)~TIM_CCER_CC2P);
 8003680:	8a7b      	ldrh	r3, [r7, #18]
 8003682:	f023 0322 	bic.w	r3, r3, #34	; 0x22
 8003686:	827b      	strh	r3, [r7, #18]
  tmpccer |= (uint16_t)(TIM_IC1Polarity | (uint16_t)(TIM_IC2Polarity << (uint16_t)4));
 8003688:	88fb      	ldrh	r3, [r7, #6]
 800368a:	011b      	lsls	r3, r3, #4
 800368c:	b29a      	uxth	r2, r3
 800368e:	893b      	ldrh	r3, [r7, #8]
 8003690:	4313      	orrs	r3, r2
 8003692:	b29a      	uxth	r2, r3
 8003694:	8a7b      	ldrh	r3, [r7, #18]
 8003696:	4313      	orrs	r3, r2
 8003698:	827b      	strh	r3, [r7, #18]

  /* Write to TIMx SMCR */
  TIMx->SMCR = tmpsmcr;
 800369a:	68fb      	ldr	r3, [r7, #12]
 800369c:	8afa      	ldrh	r2, [r7, #22]
 800369e:	811a      	strh	r2, [r3, #8]

  /* Write to TIMx CCMR1 */
  TIMx->CCMR1 = tmpccmr1;
 80036a0:	68fb      	ldr	r3, [r7, #12]
 80036a2:	8aba      	ldrh	r2, [r7, #20]
 80036a4:	831a      	strh	r2, [r3, #24]

  /* Write to TIMx CCER */
  TIMx->CCER = tmpccer;
 80036a6:	68fb      	ldr	r3, [r7, #12]
 80036a8:	8a7a      	ldrh	r2, [r7, #18]
 80036aa:	841a      	strh	r2, [r3, #32]
}
 80036ac:	371c      	adds	r7, #28
 80036ae:	46bd      	mov	sp, r7
 80036b0:	f85d 7b04 	ldr.w	r7, [sp], #4
 80036b4:	4770      	bx	lr
 80036b6:	bf00      	nop

080036b8 <TIM_SelectHallSensor>:
  * @param  NewState: new state of the TIMx Hall sensor interface.
  *          This parameter can be: ENABLE or DISABLE.
  * @retval None
  */
void TIM_SelectHallSensor(TIM_TypeDef* TIMx, FunctionalState NewState)
{
 80036b8:	b480      	push	{r7}
 80036ba:	b083      	sub	sp, #12
 80036bc:	af00      	add	r7, sp, #0
 80036be:	6078      	str	r0, [r7, #4]
 80036c0:	460b      	mov	r3, r1
 80036c2:	70fb      	strb	r3, [r7, #3]
  /* Check the parameters */
  assert_param(IS_TIM_LIST2_PERIPH(TIMx));
  assert_param(IS_FUNCTIONAL_STATE(NewState));

  if (NewState != DISABLE)
 80036c4:	78fb      	ldrb	r3, [r7, #3]
 80036c6:	2b00      	cmp	r3, #0
 80036c8:	d008      	beq.n	80036dc <TIM_SelectHallSensor+0x24>
  {
    /* Set the TI1S Bit */
    TIMx->CR2 |= TIM_CR2_TI1S;
 80036ca:	687b      	ldr	r3, [r7, #4]
 80036cc:	889b      	ldrh	r3, [r3, #4]
 80036ce:	b29b      	uxth	r3, r3
 80036d0:	f043 0380 	orr.w	r3, r3, #128	; 0x80
 80036d4:	b29a      	uxth	r2, r3
 80036d6:	687b      	ldr	r3, [r7, #4]
 80036d8:	809a      	strh	r2, [r3, #4]
 80036da:	e007      	b.n	80036ec <TIM_SelectHallSensor+0x34>
  }
  else
  {
    /* Reset the TI1S Bit */
    TIMx->CR2 &= (uint16_t)~TIM_CR2_TI1S;
 80036dc:	687b      	ldr	r3, [r7, #4]
 80036de:	889b      	ldrh	r3, [r3, #4]
 80036e0:	b29b      	uxth	r3, r3
 80036e2:	f023 0380 	bic.w	r3, r3, #128	; 0x80
 80036e6:	b29a      	uxth	r2, r3
 80036e8:	687b      	ldr	r3, [r7, #4]
 80036ea:	809a      	strh	r2, [r3, #4]
  }
}
 80036ec:	370c      	adds	r7, #12
 80036ee:	46bd      	mov	sp, r7
 80036f0:	f85d 7b04 	ldr.w	r7, [sp], #4
 80036f4:	4770      	bx	lr
 80036f6:	bf00      	nop

080036f8 <TIM_RemapConfig>:
  *            @arg TIM11_HSE:      TIM11 CH4 input is connected to HSE_RTC clock
  *                                 (HSE divided by a programmable prescaler)  
  * @retval None
  */
void TIM_RemapConfig(TIM_TypeDef* TIMx, uint16_t TIM_Remap)
{
 80036f8:	b480      	push	{r7}
 80036fa:	b083      	sub	sp, #12
 80036fc:	af00      	add	r7, sp, #0
 80036fe:	6078      	str	r0, [r7, #4]
 8003700:	460b      	mov	r3, r1
 8003702:	807b      	strh	r3, [r7, #2]
 /* Check the parameters */
  assert_param(IS_TIM_LIST6_PERIPH(TIMx));
  assert_param(IS_TIM_REMAP(TIM_Remap));

  /* Set the Timer remapping configuration */
  TIMx->OR =  TIM_Remap;
 8003704:	687b      	ldr	r3, [r7, #4]
 8003706:	887a      	ldrh	r2, [r7, #2]
 8003708:	f8a3 2050 	strh.w	r2, [r3, #80]	; 0x50
}
 800370c:	370c      	adds	r7, #12
 800370e:	46bd      	mov	sp, r7
 8003710:	f85d 7b04 	ldr.w	r7, [sp], #4
 8003714:	4770      	bx	lr
 8003716:	bf00      	nop

08003718 <TI1_Config>:
  *          This parameter must be a value between 0x00 and 0x0F.
  * @retval None
  */
static void TI1_Config(TIM_TypeDef* TIMx, uint16_t TIM_ICPolarity, uint16_t TIM_ICSelection,
                       uint16_t TIM_ICFilter)
{
 8003718:	b480      	push	{r7}
 800371a:	b087      	sub	sp, #28
 800371c:	af00      	add	r7, sp, #0
 800371e:	60f8      	str	r0, [r7, #12]
 8003720:	4608      	mov	r0, r1
 8003722:	4611      	mov	r1, r2
 8003724:	461a      	mov	r2, r3
 8003726:	4603      	mov	r3, r0
 8003728:	817b      	strh	r3, [r7, #10]
 800372a:	460b      	mov	r3, r1
 800372c:	813b      	strh	r3, [r7, #8]
 800372e:	4613      	mov	r3, r2
 8003730:	80fb      	strh	r3, [r7, #6]
  uint16_t tmpccmr1 = 0, tmpccer = 0;
 8003732:	2300      	movs	r3, #0
 8003734:	82fb      	strh	r3, [r7, #22]
 8003736:	2300      	movs	r3, #0
 8003738:	82bb      	strh	r3, [r7, #20]

  /* Disable the Channel 1: Reset the CC1E Bit */
  TIMx->CCER &= (uint16_t)~TIM_CCER_CC1E;
 800373a:	68fb      	ldr	r3, [r7, #12]
 800373c:	8c1b      	ldrh	r3, [r3, #32]
 800373e:	b29b      	uxth	r3, r3
 8003740:	f023 0301 	bic.w	r3, r3, #1
 8003744:	b29a      	uxth	r2, r3
 8003746:	68fb      	ldr	r3, [r7, #12]
 8003748:	841a      	strh	r2, [r3, #32]
  tmpccmr1 = TIMx->CCMR1;
 800374a:	68fb      	ldr	r3, [r7, #12]
 800374c:	8b1b      	ldrh	r3, [r3, #24]
 800374e:	82fb      	strh	r3, [r7, #22]
  tmpccer = TIMx->CCER;
 8003750:	68fb      	ldr	r3, [r7, #12]
 8003752:	8c1b      	ldrh	r3, [r3, #32]
 8003754:	82bb      	strh	r3, [r7, #20]

  /* Select the Input and set the filter */
  tmpccmr1 &= ((uint16_t)~TIM_CCMR1_CC1S) & ((uint16_t)~TIM_CCMR1_IC1F);
 8003756:	8afb      	ldrh	r3, [r7, #22]
 8003758:	f023 03f3 	bic.w	r3, r3, #243	; 0xf3
 800375c:	82fb      	strh	r3, [r7, #22]
  tmpccmr1 |= (uint16_t)(TIM_ICSelection | (uint16_t)(TIM_ICFilter << (uint16_t)4));
 800375e:	88fb      	ldrh	r3, [r7, #6]
 8003760:	011b      	lsls	r3, r3, #4
 8003762:	b29a      	uxth	r2, r3
 8003764:	893b      	ldrh	r3, [r7, #8]
 8003766:	4313      	orrs	r3, r2
 8003768:	b29a      	uxth	r2, r3
 800376a:	8afb      	ldrh	r3, [r7, #22]
 800376c:	4313      	orrs	r3, r2
 800376e:	82fb      	strh	r3, [r7, #22]

  /* Select the Polarity and set the CC1E Bit */
  tmpccer &= (uint16_t)~(TIM_CCER_CC1P | TIM_CCER_CC1NP);
 8003770:	8abb      	ldrh	r3, [r7, #20]
 8003772:	f023 030a 	bic.w	r3, r3, #10
 8003776:	82bb      	strh	r3, [r7, #20]
  tmpccer |= (uint16_t)(TIM_ICPolarity | (uint16_t)TIM_CCER_CC1E);
 8003778:	897a      	ldrh	r2, [r7, #10]
 800377a:	8abb      	ldrh	r3, [r7, #20]
 800377c:	4313      	orrs	r3, r2
 800377e:	b29b      	uxth	r3, r3
 8003780:	f043 0301 	orr.w	r3, r3, #1
 8003784:	82bb      	strh	r3, [r7, #20]

  /* Write to TIMx CCMR1 and CCER registers */
  TIMx->CCMR1 = tmpccmr1;
 8003786:	68fb      	ldr	r3, [r7, #12]
 8003788:	8afa      	ldrh	r2, [r7, #22]
 800378a:	831a      	strh	r2, [r3, #24]
  TIMx->CCER = tmpccer;
 800378c:	68fb      	ldr	r3, [r7, #12]
 800378e:	8aba      	ldrh	r2, [r7, #20]
 8003790:	841a      	strh	r2, [r3, #32]
}
 8003792:	371c      	adds	r7, #28
 8003794:	46bd      	mov	sp, r7
 8003796:	f85d 7b04 	ldr.w	r7, [sp], #4
 800379a:	4770      	bx	lr

0800379c <TI2_Config>:
  *          This parameter must be a value between 0x00 and 0x0F.
  * @retval None
  */
static void TI2_Config(TIM_TypeDef* TIMx, uint16_t TIM_ICPolarity, uint16_t TIM_ICSelection,
                       uint16_t TIM_ICFilter)
{
 800379c:	b480      	push	{r7}
 800379e:	b087      	sub	sp, #28
 80037a0:	af00      	add	r7, sp, #0
 80037a2:	60f8      	str	r0, [r7, #12]
 80037a4:	4608      	mov	r0, r1
 80037a6:	4611      	mov	r1, r2
 80037a8:	461a      	mov	r2, r3
 80037aa:	4603      	mov	r3, r0
 80037ac:	817b      	strh	r3, [r7, #10]
 80037ae:	460b      	mov	r3, r1
 80037b0:	813b      	strh	r3, [r7, #8]
 80037b2:	4613      	mov	r3, r2
 80037b4:	80fb      	strh	r3, [r7, #6]
  uint16_t tmpccmr1 = 0, tmpccer = 0, tmp = 0;
 80037b6:	2300      	movs	r3, #0
 80037b8:	82fb      	strh	r3, [r7, #22]
 80037ba:	2300      	movs	r3, #0
 80037bc:	82bb      	strh	r3, [r7, #20]
 80037be:	2300      	movs	r3, #0
 80037c0:	827b      	strh	r3, [r7, #18]

  /* Disable the Channel 2: Reset the CC2E Bit */
  TIMx->CCER &= (uint16_t)~TIM_CCER_CC2E;
 80037c2:	68fb      	ldr	r3, [r7, #12]
 80037c4:	8c1b      	ldrh	r3, [r3, #32]
 80037c6:	b29b      	uxth	r3, r3
 80037c8:	f023 0310 	bic.w	r3, r3, #16
 80037cc:	b29a      	uxth	r2, r3
 80037ce:	68fb      	ldr	r3, [r7, #12]
 80037d0:	841a      	strh	r2, [r3, #32]
  tmpccmr1 = TIMx->CCMR1;
 80037d2:	68fb      	ldr	r3, [r7, #12]
 80037d4:	8b1b      	ldrh	r3, [r3, #24]
 80037d6:	82fb      	strh	r3, [r7, #22]
  tmpccer = TIMx->CCER;
 80037d8:	68fb      	ldr	r3, [r7, #12]
 80037da:	8c1b      	ldrh	r3, [r3, #32]
 80037dc:	82bb      	strh	r3, [r7, #20]
  tmp = (uint16_t)(TIM_ICPolarity << 4);
 80037de:	897b      	ldrh	r3, [r7, #10]
 80037e0:	011b      	lsls	r3, r3, #4
 80037e2:	827b      	strh	r3, [r7, #18]

  /* Select the Input and set the filter */
  tmpccmr1 &= ((uint16_t)~TIM_CCMR1_CC2S) & ((uint16_t)~TIM_CCMR1_IC2F);
 80037e4:	8afb      	ldrh	r3, [r7, #22]
 80037e6:	f423 7340 	bic.w	r3, r3, #768	; 0x300
 80037ea:	051b      	lsls	r3, r3, #20
 80037ec:	0d1b      	lsrs	r3, r3, #20
 80037ee:	82fb      	strh	r3, [r7, #22]
  tmpccmr1 |= (uint16_t)(TIM_ICFilter << 12);
 80037f0:	88fb      	ldrh	r3, [r7, #6]
 80037f2:	031b      	lsls	r3, r3, #12
 80037f4:	b29a      	uxth	r2, r3
 80037f6:	8afb      	ldrh	r3, [r7, #22]
 80037f8:	4313      	orrs	r3, r2
 80037fa:	82fb      	strh	r3, [r7, #22]
  tmpccmr1 |= (uint16_t)(TIM_ICSelection << 8);
 80037fc:	893b      	ldrh	r3, [r7, #8]
 80037fe:	021b      	lsls	r3, r3, #8
 8003800:	b29a      	uxth	r2, r3
 8003802:	8afb      	ldrh	r3, [r7, #22]
 8003804:	4313      	orrs	r3, r2
 8003806:	82fb      	strh	r3, [r7, #22]

  /* Select the Polarity and set the CC2E Bit */
  tmpccer &= (uint16_t)~(TIM_CCER_CC2P | TIM_CCER_CC2NP);
 8003808:	8abb      	ldrh	r3, [r7, #20]
 800380a:	f023 03a0 	bic.w	r3, r3, #160	; 0xa0
 800380e:	82bb      	strh	r3, [r7, #20]
  tmpccer |=  (uint16_t)(tmp | (uint16_t)TIM_CCER_CC2E);
 8003810:	8a7a      	ldrh	r2, [r7, #18]
 8003812:	8abb      	ldrh	r3, [r7, #20]
 8003814:	4313      	orrs	r3, r2
 8003816:	b29b      	uxth	r3, r3
 8003818:	f043 0310 	orr.w	r3, r3, #16
 800381c:	82bb      	strh	r3, [r7, #20]

  /* Write to TIMx CCMR1 and CCER registers */
  TIMx->CCMR1 = tmpccmr1 ;
 800381e:	68fb      	ldr	r3, [r7, #12]
 8003820:	8afa      	ldrh	r2, [r7, #22]
 8003822:	831a      	strh	r2, [r3, #24]
  TIMx->CCER = tmpccer;
 8003824:	68fb      	ldr	r3, [r7, #12]
 8003826:	8aba      	ldrh	r2, [r7, #20]
 8003828:	841a      	strh	r2, [r3, #32]
}
 800382a:	371c      	adds	r7, #28
 800382c:	46bd      	mov	sp, r7
 800382e:	f85d 7b04 	ldr.w	r7, [sp], #4
 8003832:	4770      	bx	lr

08003834 <TI3_Config>:
  *          This parameter must be a value between 0x00 and 0x0F.
  * @retval None
  */
static void TI3_Config(TIM_TypeDef* TIMx, uint16_t TIM_ICPolarity, uint16_t TIM_ICSelection,
                       uint16_t TIM_ICFilter)
{
 8003834:	b480      	push	{r7}
 8003836:	b087      	sub	sp, #28
 8003838:	af00      	add	r7, sp, #0
 800383a:	60f8      	str	r0, [r7, #12]
 800383c:	4608      	mov	r0, r1
 800383e:	4611      	mov	r1, r2
 8003840:	461a      	mov	r2, r3
 8003842:	4603      	mov	r3, r0
 8003844:	817b      	strh	r3, [r7, #10]
 8003846:	460b      	mov	r3, r1
 8003848:	813b      	strh	r3, [r7, #8]
 800384a:	4613      	mov	r3, r2
 800384c:	80fb      	strh	r3, [r7, #6]
  uint16_t tmpccmr2 = 0, tmpccer = 0, tmp = 0;
 800384e:	2300      	movs	r3, #0
 8003850:	82fb      	strh	r3, [r7, #22]
 8003852:	2300      	movs	r3, #0
 8003854:	82bb      	strh	r3, [r7, #20]
 8003856:	2300      	movs	r3, #0
 8003858:	827b      	strh	r3, [r7, #18]

  /* Disable the Channel 3: Reset the CC3E Bit */
  TIMx->CCER &= (uint16_t)~TIM_CCER_CC3E;
 800385a:	68fb      	ldr	r3, [r7, #12]
 800385c:	8c1b      	ldrh	r3, [r3, #32]
 800385e:	b29b      	uxth	r3, r3
 8003860:	f423 7380 	bic.w	r3, r3, #256	; 0x100
 8003864:	b29a      	uxth	r2, r3
 8003866:	68fb      	ldr	r3, [r7, #12]
 8003868:	841a      	strh	r2, [r3, #32]
  tmpccmr2 = TIMx->CCMR2;
 800386a:	68fb      	ldr	r3, [r7, #12]
 800386c:	8b9b      	ldrh	r3, [r3, #28]
 800386e:	82fb      	strh	r3, [r7, #22]
  tmpccer = TIMx->CCER;
 8003870:	68fb      	ldr	r3, [r7, #12]
 8003872:	8c1b      	ldrh	r3, [r3, #32]
 8003874:	82bb      	strh	r3, [r7, #20]
  tmp = (uint16_t)(TIM_ICPolarity << 8);
 8003876:	897b      	ldrh	r3, [r7, #10]
 8003878:	021b      	lsls	r3, r3, #8
 800387a:	827b      	strh	r3, [r7, #18]

  /* Select the Input and set the filter */
  tmpccmr2 &= ((uint16_t)~TIM_CCMR1_CC1S) & ((uint16_t)~TIM_CCMR2_IC3F);
 800387c:	8afb      	ldrh	r3, [r7, #22]
 800387e:	f023 03f3 	bic.w	r3, r3, #243	; 0xf3
 8003882:	82fb      	strh	r3, [r7, #22]
  tmpccmr2 |= (uint16_t)(TIM_ICSelection | (uint16_t)(TIM_ICFilter << (uint16_t)4));
 8003884:	88fb      	ldrh	r3, [r7, #6]
 8003886:	011b      	lsls	r3, r3, #4
 8003888:	b29a      	uxth	r2, r3
 800388a:	893b      	ldrh	r3, [r7, #8]
 800388c:	4313      	orrs	r3, r2
 800388e:	b29a      	uxth	r2, r3
 8003890:	8afb      	ldrh	r3, [r7, #22]
 8003892:	4313      	orrs	r3, r2
 8003894:	82fb      	strh	r3, [r7, #22]

  /* Select the Polarity and set the CC3E Bit */
  tmpccer &= (uint16_t)~(TIM_CCER_CC3P | TIM_CCER_CC3NP);
 8003896:	8abb      	ldrh	r3, [r7, #20]
 8003898:	f423 6320 	bic.w	r3, r3, #2560	; 0xa00
 800389c:	82bb      	strh	r3, [r7, #20]
  tmpccer |= (uint16_t)(tmp | (uint16_t)TIM_CCER_CC3E);
 800389e:	8a7a      	ldrh	r2, [r7, #18]
 80038a0:	8abb      	ldrh	r3, [r7, #20]
 80038a2:	4313      	orrs	r3, r2
 80038a4:	b29b      	uxth	r3, r3
 80038a6:	f443 7380 	orr.w	r3, r3, #256	; 0x100
 80038aa:	82bb      	strh	r3, [r7, #20]

  /* Write to TIMx CCMR2 and CCER registers */
  TIMx->CCMR2 = tmpccmr2;
 80038ac:	68fb      	ldr	r3, [r7, #12]
 80038ae:	8afa      	ldrh	r2, [r7, #22]
 80038b0:	839a      	strh	r2, [r3, #28]
  TIMx->CCER = tmpccer;
 80038b2:	68fb      	ldr	r3, [r7, #12]
 80038b4:	8aba      	ldrh	r2, [r7, #20]
 80038b6:	841a      	strh	r2, [r3, #32]
}
 80038b8:	371c      	adds	r7, #28
 80038ba:	46bd      	mov	sp, r7
 80038bc:	f85d 7b04 	ldr.w	r7, [sp], #4
 80038c0:	4770      	bx	lr
 80038c2:	bf00      	nop

080038c4 <TI4_Config>:
  *          This parameter must be a value between 0x00 and 0x0F.
  * @retval None
  */
static void TI4_Config(TIM_TypeDef* TIMx, uint16_t TIM_ICPolarity, uint16_t TIM_ICSelection,
                       uint16_t TIM_ICFilter)
{
 80038c4:	b480      	push	{r7}
 80038c6:	b087      	sub	sp, #28
 80038c8:	af00      	add	r7, sp, #0
 80038ca:	60f8      	str	r0, [r7, #12]
 80038cc:	4608      	mov	r0, r1
 80038ce:	4611      	mov	r1, r2
 80038d0:	461a      	mov	r2, r3
 80038d2:	4603      	mov	r3, r0
 80038d4:	817b      	strh	r3, [r7, #10]
 80038d6:	460b      	mov	r3, r1
 80038d8:	813b      	strh	r3, [r7, #8]
 80038da:	4613      	mov	r3, r2
 80038dc:	80fb      	strh	r3, [r7, #6]
  uint16_t tmpccmr2 = 0, tmpccer = 0, tmp = 0;
 80038de:	2300      	movs	r3, #0
 80038e0:	82fb      	strh	r3, [r7, #22]
 80038e2:	2300      	movs	r3, #0
 80038e4:	82bb      	strh	r3, [r7, #20]
 80038e6:	2300      	movs	r3, #0
 80038e8:	827b      	strh	r3, [r7, #18]

  /* Disable the Channel 4: Reset the CC4E Bit */
  TIMx->CCER &= (uint16_t)~TIM_CCER_CC4E;
 80038ea:	68fb      	ldr	r3, [r7, #12]
 80038ec:	8c1b      	ldrh	r3, [r3, #32]
 80038ee:	b29b      	uxth	r3, r3
 80038f0:	f423 5380 	bic.w	r3, r3, #4096	; 0x1000
 80038f4:	b29a      	uxth	r2, r3
 80038f6:	68fb      	ldr	r3, [r7, #12]
 80038f8:	841a      	strh	r2, [r3, #32]
  tmpccmr2 = TIMx->CCMR2;
 80038fa:	68fb      	ldr	r3, [r7, #12]
 80038fc:	8b9b      	ldrh	r3, [r3, #28]
 80038fe:	82fb      	strh	r3, [r7, #22]
  tmpccer = TIMx->CCER;
 8003900:	68fb      	ldr	r3, [r7, #12]
 8003902:	8c1b      	ldrh	r3, [r3, #32]
 8003904:	82bb      	strh	r3, [r7, #20]
  tmp = (uint16_t)(TIM_ICPolarity << 12);
 8003906:	897b      	ldrh	r3, [r7, #10]
 8003908:	031b      	lsls	r3, r3, #12
 800390a:	827b      	strh	r3, [r7, #18]

  /* Select the Input and set the filter */
  tmpccmr2 &= ((uint16_t)~TIM_CCMR1_CC2S) & ((uint16_t)~TIM_CCMR1_IC2F);
 800390c:	8afb      	ldrh	r3, [r7, #22]
 800390e:	f423 7340 	bic.w	r3, r3, #768	; 0x300
 8003912:	051b      	lsls	r3, r3, #20
 8003914:	0d1b      	lsrs	r3, r3, #20
 8003916:	82fb      	strh	r3, [r7, #22]
  tmpccmr2 |= (uint16_t)(TIM_ICSelection << 8);
 8003918:	893b      	ldrh	r3, [r7, #8]
 800391a:	021b      	lsls	r3, r3, #8
 800391c:	b29a      	uxth	r2, r3
 800391e:	8afb      	ldrh	r3, [r7, #22]
 8003920:	4313      	orrs	r3, r2
 8003922:	82fb      	strh	r3, [r7, #22]
  tmpccmr2 |= (uint16_t)(TIM_ICFilter << 12);
 8003924:	88fb      	ldrh	r3, [r7, #6]
 8003926:	031b      	lsls	r3, r3, #12
 8003928:	b29a      	uxth	r2, r3
 800392a:	8afb      	ldrh	r3, [r7, #22]
 800392c:	4313      	orrs	r3, r2
 800392e:	82fb      	strh	r3, [r7, #22]

  /* Select the Polarity and set the CC4E Bit */
  tmpccer &= (uint16_t)~(TIM_CCER_CC4P | TIM_CCER_CC4NP);
 8003930:	8abb      	ldrh	r3, [r7, #20]
 8003932:	f423 5300 	bic.w	r3, r3, #8192	; 0x2000
 8003936:	045b      	lsls	r3, r3, #17
 8003938:	0c5b      	lsrs	r3, r3, #17
 800393a:	82bb      	strh	r3, [r7, #20]
  tmpccer |= (uint16_t)(tmp | (uint16_t)TIM_CCER_CC4E);
 800393c:	8a7a      	ldrh	r2, [r7, #18]
 800393e:	8abb      	ldrh	r3, [r7, #20]
 8003940:	4313      	orrs	r3, r2
 8003942:	b29b      	uxth	r3, r3
 8003944:	f443 5380 	orr.w	r3, r3, #4096	; 0x1000
 8003948:	82bb      	strh	r3, [r7, #20]

  /* Write to TIMx CCMR2 and CCER registers */
  TIMx->CCMR2 = tmpccmr2;
 800394a:	68fb      	ldr	r3, [r7, #12]
 800394c:	8afa      	ldrh	r2, [r7, #22]
 800394e:	839a      	strh	r2, [r3, #28]
  TIMx->CCER = tmpccer ;
 8003950:	68fb      	ldr	r3, [r7, #12]
 8003952:	8aba      	ldrh	r2, [r7, #20]
 8003954:	841a      	strh	r2, [r3, #32]
}
 8003956:	371c      	adds	r7, #28
 8003958:	46bd      	mov	sp, r7
 800395a:	f85d 7b04 	ldr.w	r7, [sp], #4
 800395e:	4770      	bx	lr

08003960 <NVIC_PriorityGroupConfig>:
  * @note   When the NVIC_PriorityGroup_0 is selected, IRQ pre-emption is no more possible. 
  *         The pending IRQ priority will be managed only by the subpriority. 
  * @retval None
  */
void NVIC_PriorityGroupConfig(uint32_t NVIC_PriorityGroup)
{
 8003960:	b480      	push	{r7}
 8003962:	b083      	sub	sp, #12
 8003964:	af00      	add	r7, sp, #0
 8003966:	6078      	str	r0, [r7, #4]
  /* Check the parameters */
  assert_param(IS_NVIC_PRIORITY_GROUP(NVIC_PriorityGroup));
  
  /* Set the PRIGROUP[10:8] bits according to NVIC_PriorityGroup value */
  SCB->AIRCR = AIRCR_VECTKEY_MASK | NVIC_PriorityGroup;
 8003968:	4a05      	ldr	r2, [pc, #20]	; (8003980 <NVIC_PriorityGroupConfig+0x20>)
 800396a:	687b      	ldr	r3, [r7, #4]
 800396c:	f043 63bf 	orr.w	r3, r3, #100139008	; 0x5f80000
 8003970:	f443 3300 	orr.w	r3, r3, #131072	; 0x20000
 8003974:	60d3      	str	r3, [r2, #12]
}
 8003976:	370c      	adds	r7, #12
 8003978:	46bd      	mov	sp, r7
 800397a:	f85d 7b04 	ldr.w	r7, [sp], #4
 800397e:	4770      	bx	lr
 8003980:	e000ed00 	.word	0xe000ed00

08003984 <NVIC_Init>:
  * @param  NVIC_InitStruct: pointer to a NVIC_InitTypeDef structure that contains
  *         the configuration information for the specified NVIC peripheral.
  * @retval None
  */
void NVIC_Init(NVIC_InitTypeDef* NVIC_InitStruct)
{
 8003984:	b480      	push	{r7}
 8003986:	b085      	sub	sp, #20
 8003988:	af00      	add	r7, sp, #0
 800398a:	6078      	str	r0, [r7, #4]
  uint8_t tmppriority = 0x00, tmppre = 0x00, tmpsub = 0x0F;
 800398c:	2300      	movs	r3, #0
 800398e:	73fb      	strb	r3, [r7, #15]
 8003990:	2300      	movs	r3, #0
 8003992:	73bb      	strb	r3, [r7, #14]
 8003994:	230f      	movs	r3, #15
 8003996:	737b      	strb	r3, [r7, #13]
  /* Check the parameters */
  assert_param(IS_FUNCTIONAL_STATE(NVIC_InitStruct->NVIC_IRQChannelCmd));
  assert_param(IS_NVIC_PREEMPTION_PRIORITY(NVIC_InitStruct->NVIC_IRQChannelPreemptionPriority));  
  assert_param(IS_NVIC_SUB_PRIORITY(NVIC_InitStruct->NVIC_IRQChannelSubPriority));
    
  if (NVIC_InitStruct->NVIC_IRQChannelCmd != DISABLE)
 8003998:	687b      	ldr	r3, [r7, #4]
 800399a:	78db      	ldrb	r3, [r3, #3]
 800399c:	2b00      	cmp	r3, #0
 800399e:	d038      	beq.n	8003a12 <NVIC_Init+0x8e>
  {
    /* Compute the Corresponding IRQ Priority --------------------------------*/    
    tmppriority = (0x700 - ((SCB->AIRCR) & (uint32_t)0x700))>> 0x08;
 80039a0:	4b26      	ldr	r3, [pc, #152]	; (8003a3c <NVIC_Init+0xb8>)
 80039a2:	68db      	ldr	r3, [r3, #12]
 80039a4:	43db      	mvns	r3, r3
 80039a6:	f403 63e0 	and.w	r3, r3, #1792	; 0x700
 80039aa:	0a1b      	lsrs	r3, r3, #8
 80039ac:	73fb      	strb	r3, [r7, #15]
    tmppre = (0x4 - tmppriority);
 80039ae:	7bfb      	ldrb	r3, [r7, #15]
 80039b0:	f1c3 0304 	rsb	r3, r3, #4
 80039b4:	73bb      	strb	r3, [r7, #14]
    tmpsub = tmpsub >> tmppriority;
 80039b6:	7b7a      	ldrb	r2, [r7, #13]
 80039b8:	7bfb      	ldrb	r3, [r7, #15]
 80039ba:	fa42 f303 	asr.w	r3, r2, r3
 80039be:	737b      	strb	r3, [r7, #13]

    tmppriority = NVIC_InitStruct->NVIC_IRQChannelPreemptionPriority << tmppre;
 80039c0:	687b      	ldr	r3, [r7, #4]
 80039c2:	785b      	ldrb	r3, [r3, #1]
 80039c4:	461a      	mov	r2, r3
 80039c6:	7bbb      	ldrb	r3, [r7, #14]
 80039c8:	fa02 f303 	lsl.w	r3, r2, r3
 80039cc:	73fb      	strb	r3, [r7, #15]
    tmppriority |=  (uint8_t)(NVIC_InitStruct->NVIC_IRQChannelSubPriority & tmpsub);
 80039ce:	687b      	ldr	r3, [r7, #4]
 80039d0:	789a      	ldrb	r2, [r3, #2]
 80039d2:	7b7b      	ldrb	r3, [r7, #13]
 80039d4:	4013      	ands	r3, r2
 80039d6:	b2da      	uxtb	r2, r3
 80039d8:	7bfb      	ldrb	r3, [r7, #15]
 80039da:	4313      	orrs	r3, r2
 80039dc:	73fb      	strb	r3, [r7, #15]
        
    tmppriority = tmppriority << 0x04;
 80039de:	7bfb      	ldrb	r3, [r7, #15]
 80039e0:	011b      	lsls	r3, r3, #4
 80039e2:	73fb      	strb	r3, [r7, #15]
        
    NVIC->IP[NVIC_InitStruct->NVIC_IRQChannel] = tmppriority;
 80039e4:	4a16      	ldr	r2, [pc, #88]	; (8003a40 <NVIC_Init+0xbc>)
 80039e6:	687b      	ldr	r3, [r7, #4]
 80039e8:	781b      	ldrb	r3, [r3, #0]
 80039ea:	4413      	add	r3, r2
 80039ec:	7bfa      	ldrb	r2, [r7, #15]
 80039ee:	f883 2300 	strb.w	r2, [r3, #768]	; 0x300
    
    /* Enable the Selected IRQ Channels --------------------------------------*/
    NVIC->ISER[NVIC_InitStruct->NVIC_IRQChannel >> 0x05] =
 80039f2:	4a13      	ldr	r2, [pc, #76]	; (8003a40 <NVIC_Init+0xbc>)
 80039f4:	687b      	ldr	r3, [r7, #4]
 80039f6:	781b      	ldrb	r3, [r3, #0]
 80039f8:	095b      	lsrs	r3, r3, #5
 80039fa:	b2db      	uxtb	r3, r3
 80039fc:	4618      	mov	r0, r3
      (uint32_t)0x01 << (NVIC_InitStruct->NVIC_IRQChannel & (uint8_t)0x1F);
 80039fe:	687b      	ldr	r3, [r7, #4]
 8003a00:	781b      	ldrb	r3, [r3, #0]
 8003a02:	f003 031f 	and.w	r3, r3, #31
 8003a06:	2101      	movs	r1, #1
 8003a08:	fa01 f303 	lsl.w	r3, r1, r3
    tmppriority = tmppriority << 0x04;
        
    NVIC->IP[NVIC_InitStruct->NVIC_IRQChannel] = tmppriority;
    
    /* Enable the Selected IRQ Channels --------------------------------------*/
    NVIC->ISER[NVIC_InitStruct->NVIC_IRQChannel >> 0x05] =
 8003a0c:	f842 3020 	str.w	r3, [r2, r0, lsl #2]
 8003a10:	e00f      	b.n	8003a32 <NVIC_Init+0xae>
      (uint32_t)0x01 << (NVIC_InitStruct->NVIC_IRQChannel & (uint8_t)0x1F);
  }
  else
  {
    /* Disable the Selected IRQ Channels -------------------------------------*/
    NVIC->ICER[NVIC_InitStruct->NVIC_IRQChannel >> 0x05] =
 8003a12:	490b      	ldr	r1, [pc, #44]	; (8003a40 <NVIC_Init+0xbc>)
 8003a14:	687b      	ldr	r3, [r7, #4]
 8003a16:	781b      	ldrb	r3, [r3, #0]
 8003a18:	095b      	lsrs	r3, r3, #5
 8003a1a:	b2db      	uxtb	r3, r3
 8003a1c:	4618      	mov	r0, r3
      (uint32_t)0x01 << (NVIC_InitStruct->NVIC_IRQChannel & (uint8_t)0x1F);
 8003a1e:	687b      	ldr	r3, [r7, #4]
 8003a20:	781b      	ldrb	r3, [r3, #0]
 8003a22:	f003 031f 	and.w	r3, r3, #31
 8003a26:	2201      	movs	r2, #1
 8003a28:	409a      	lsls	r2, r3
      (uint32_t)0x01 << (NVIC_InitStruct->NVIC_IRQChannel & (uint8_t)0x1F);
  }
  else
  {
    /* Disable the Selected IRQ Channels -------------------------------------*/
    NVIC->ICER[NVIC_InitStruct->NVIC_IRQChannel >> 0x05] =
 8003a2a:	f100 0320 	add.w	r3, r0, #32
 8003a2e:	f841 2023 	str.w	r2, [r1, r3, lsl #2]
      (uint32_t)0x01 << (NVIC_InitStruct->NVIC_IRQChannel & (uint8_t)0x1F);
  }
}
 8003a32:	3714      	adds	r7, #20
 8003a34:	46bd      	mov	sp, r7
 8003a36:	f85d 7b04 	ldr.w	r7, [sp], #4
 8003a3a:	4770      	bx	lr
 8003a3c:	e000ed00 	.word	0xe000ed00
 8003a40:	e000e100 	.word	0xe000e100

08003a44 <NVIC_SetVectorTable>:
  *     @arg NVIC_VectTab_FLASH: Vector Table in internal FLASH.
  * @param  Offset: Vector Table base offset field. This value must be a multiple of 0x200.
  * @retval None
  */
void NVIC_SetVectorTable(uint32_t NVIC_VectTab, uint32_t Offset)
{ 
 8003a44:	b480      	push	{r7}
 8003a46:	b083      	sub	sp, #12
 8003a48:	af00      	add	r7, sp, #0
 8003a4a:	6078      	str	r0, [r7, #4]
 8003a4c:	6039      	str	r1, [r7, #0]
  /* Check the parameters */
  assert_param(IS_NVIC_VECTTAB(NVIC_VectTab));
  assert_param(IS_NVIC_OFFSET(Offset));  
   
  SCB->VTOR = NVIC_VectTab | (Offset & (uint32_t)0x1FFFFF80);
 8003a4e:	4907      	ldr	r1, [pc, #28]	; (8003a6c <NVIC_SetVectorTable+0x28>)
 8003a50:	683b      	ldr	r3, [r7, #0]
 8003a52:	f023 4360 	bic.w	r3, r3, #3758096384	; 0xe0000000
 8003a56:	f023 037f 	bic.w	r3, r3, #127	; 0x7f
 8003a5a:	687a      	ldr	r2, [r7, #4]
 8003a5c:	4313      	orrs	r3, r2
 8003a5e:	608b      	str	r3, [r1, #8]
}
 8003a60:	370c      	adds	r7, #12
 8003a62:	46bd      	mov	sp, r7
 8003a64:	f85d 7b04 	ldr.w	r7, [sp], #4
 8003a68:	4770      	bx	lr
 8003a6a:	bf00      	nop
 8003a6c:	e000ed00 	.word	0xe000ed00

08003a70 <NVIC_SystemLPConfig>:
  *     @arg NVIC_LP_SLEEPONEXIT: Low Power Sleep on Exit.
  * @param  NewState: new state of LP condition. This parameter can be: ENABLE or DISABLE.
  * @retval None
  */
void NVIC_SystemLPConfig(uint8_t LowPowerMode, FunctionalState NewState)
{
 8003a70:	b480      	push	{r7}
 8003a72:	b083      	sub	sp, #12
 8003a74:	af00      	add	r7, sp, #0
 8003a76:	4603      	mov	r3, r0
 8003a78:	460a      	mov	r2, r1
 8003a7a:	71fb      	strb	r3, [r7, #7]
 8003a7c:	4613      	mov	r3, r2
 8003a7e:	71bb      	strb	r3, [r7, #6]
  /* Check the parameters */
  assert_param(IS_NVIC_LP(LowPowerMode));
  assert_param(IS_FUNCTIONAL_STATE(NewState));  
  
  if (NewState != DISABLE)
 8003a80:	79bb      	ldrb	r3, [r7, #6]
 8003a82:	2b00      	cmp	r3, #0
 8003a84:	d006      	beq.n	8003a94 <NVIC_SystemLPConfig+0x24>
  {
    SCB->SCR |= LowPowerMode;
 8003a86:	4909      	ldr	r1, [pc, #36]	; (8003aac <NVIC_SystemLPConfig+0x3c>)
 8003a88:	4b08      	ldr	r3, [pc, #32]	; (8003aac <NVIC_SystemLPConfig+0x3c>)
 8003a8a:	691a      	ldr	r2, [r3, #16]
 8003a8c:	79fb      	ldrb	r3, [r7, #7]
 8003a8e:	4313      	orrs	r3, r2
 8003a90:	610b      	str	r3, [r1, #16]
 8003a92:	e006      	b.n	8003aa2 <NVIC_SystemLPConfig+0x32>
  }
  else
  {
    SCB->SCR &= (uint32_t)(~(uint32_t)LowPowerMode);
 8003a94:	4905      	ldr	r1, [pc, #20]	; (8003aac <NVIC_SystemLPConfig+0x3c>)
 8003a96:	4b05      	ldr	r3, [pc, #20]	; (8003aac <NVIC_SystemLPConfig+0x3c>)
 8003a98:	691a      	ldr	r2, [r3, #16]
 8003a9a:	79fb      	ldrb	r3, [r7, #7]
 8003a9c:	43db      	mvns	r3, r3
 8003a9e:	4013      	ands	r3, r2
 8003aa0:	610b      	str	r3, [r1, #16]
  }
}
 8003aa2:	370c      	adds	r7, #12
 8003aa4:	46bd      	mov	sp, r7
 8003aa6:	f85d 7b04 	ldr.w	r7, [sp], #4
 8003aaa:	4770      	bx	lr
 8003aac:	e000ed00 	.word	0xe000ed00

08003ab0 <SysTick_CLKSourceConfig>:
  *     @arg SysTick_CLKSource_HCLK_Div8: AHB clock divided by 8 selected as SysTick clock source.
  *     @arg SysTick_CLKSource_HCLK: AHB clock selected as SysTick clock source.
  * @retval None
  */
void SysTick_CLKSourceConfig(uint32_t SysTick_CLKSource)
{
 8003ab0:	b480      	push	{r7}
 8003ab2:	b083      	sub	sp, #12
 8003ab4:	af00      	add	r7, sp, #0
 8003ab6:	6078      	str	r0, [r7, #4]
  /* Check the parameters */
  assert_param(IS_SYSTICK_CLK_SOURCE(SysTick_CLKSource));
  if (SysTick_CLKSource == SysTick_CLKSource_HCLK)
 8003ab8:	687b      	ldr	r3, [r7, #4]
 8003aba:	2b04      	cmp	r3, #4
 8003abc:	d106      	bne.n	8003acc <SysTick_CLKSourceConfig+0x1c>
  {
    SysTick->CTRL |= SysTick_CLKSource_HCLK;
 8003abe:	4a09      	ldr	r2, [pc, #36]	; (8003ae4 <SysTick_CLKSourceConfig+0x34>)
 8003ac0:	4b08      	ldr	r3, [pc, #32]	; (8003ae4 <SysTick_CLKSourceConfig+0x34>)
 8003ac2:	681b      	ldr	r3, [r3, #0]
 8003ac4:	f043 0304 	orr.w	r3, r3, #4
 8003ac8:	6013      	str	r3, [r2, #0]
 8003aca:	e005      	b.n	8003ad8 <SysTick_CLKSourceConfig+0x28>
  }
  else
  {
    SysTick->CTRL &= SysTick_CLKSource_HCLK_Div8;
 8003acc:	4a05      	ldr	r2, [pc, #20]	; (8003ae4 <SysTick_CLKSourceConfig+0x34>)
 8003ace:	4b05      	ldr	r3, [pc, #20]	; (8003ae4 <SysTick_CLKSourceConfig+0x34>)
 8003ad0:	681b      	ldr	r3, [r3, #0]
 8003ad2:	f023 0304 	bic.w	r3, r3, #4
 8003ad6:	6013      	str	r3, [r2, #0]
  }
}
 8003ad8:	370c      	adds	r7, #12
 8003ada:	46bd      	mov	sp, r7
 8003adc:	f85d 7b04 	ldr.w	r7, [sp], #4
 8003ae0:	4770      	bx	lr
 8003ae2:	bf00      	nop
 8003ae4:	e000e010 	.word	0xe000e010
 8003ae8:	080046ac 	.word	0x080046ac
 8003aec:	20000000 	.word	0x20000000
 8003af0:	20000874 	.word	0x20000874
 8003af4:	20000878 	.word	0x20000878
 8003af8:	200008d4 	.word	0x200008d4

08003afc <exit>:
 8003afc:	b508      	push	{r3, lr}
 8003afe:	2100      	movs	r1, #0
 8003b00:	4604      	mov	r4, r0
 8003b02:	f000 f88b 	bl	8003c1c <__call_exitprocs>
 8003b06:	4b04      	ldr	r3, [pc, #16]	; (8003b18 <exit+0x1c>)
 8003b08:	6818      	ldr	r0, [r3, #0]
 8003b0a:	6bc3      	ldr	r3, [r0, #60]	; 0x3c
 8003b0c:	b103      	cbz	r3, 8003b10 <exit+0x14>
 8003b0e:	4798      	blx	r3
 8003b10:	4620      	mov	r0, r4
 8003b12:	f7fc fe01 	bl	8000718 <_exit>
 8003b16:	bf00      	nop
 8003b18:	08004678 	.word	0x08004678

08003b1c <__libc_init_array>:
 8003b1c:	b570      	push	{r4, r5, r6, lr}
 8003b1e:	4e0f      	ldr	r6, [pc, #60]	; (8003b5c <__libc_init_array+0x40>)
 8003b20:	4d0f      	ldr	r5, [pc, #60]	; (8003b60 <__libc_init_array+0x44>)
 8003b22:	1b76      	subs	r6, r6, r5
 8003b24:	10b6      	asrs	r6, r6, #2
 8003b26:	bf18      	it	ne
 8003b28:	2400      	movne	r4, #0
 8003b2a:	d005      	beq.n	8003b38 <__libc_init_array+0x1c>
 8003b2c:	3401      	adds	r4, #1
 8003b2e:	f855 3b04 	ldr.w	r3, [r5], #4
 8003b32:	4798      	blx	r3
 8003b34:	42a6      	cmp	r6, r4
 8003b36:	d1f9      	bne.n	8003b2c <__libc_init_array+0x10>
 8003b38:	4e0a      	ldr	r6, [pc, #40]	; (8003b64 <__libc_init_array+0x48>)
 8003b3a:	4d0b      	ldr	r5, [pc, #44]	; (8003b68 <__libc_init_array+0x4c>)
 8003b3c:	1b76      	subs	r6, r6, r5
 8003b3e:	f000 fd9f 	bl	8004680 <_init>
 8003b42:	10b6      	asrs	r6, r6, #2
 8003b44:	bf18      	it	ne
 8003b46:	2400      	movne	r4, #0
 8003b48:	d006      	beq.n	8003b58 <__libc_init_array+0x3c>
 8003b4a:	3401      	adds	r4, #1
 8003b4c:	f855 3b04 	ldr.w	r3, [r5], #4
 8003b50:	4798      	blx	r3
 8003b52:	42a6      	cmp	r6, r4
 8003b54:	d1f9      	bne.n	8003b4a <__libc_init_array+0x2e>
 8003b56:	bd70      	pop	{r4, r5, r6, pc}
 8003b58:	bd70      	pop	{r4, r5, r6, pc}
 8003b5a:	bf00      	nop
 8003b5c:	080046a0 	.word	0x080046a0
 8003b60:	080046a0 	.word	0x080046a0
 8003b64:	080046a8 	.word	0x080046a8
 8003b68:	080046a0 	.word	0x080046a0

08003b6c <memset>:
 8003b6c:	b470      	push	{r4, r5, r6}
 8003b6e:	0784      	lsls	r4, r0, #30
 8003b70:	d046      	beq.n	8003c00 <memset+0x94>
 8003b72:	1e54      	subs	r4, r2, #1
 8003b74:	2a00      	cmp	r2, #0
 8003b76:	d041      	beq.n	8003bfc <memset+0x90>
 8003b78:	b2cd      	uxtb	r5, r1
 8003b7a:	4603      	mov	r3, r0
 8003b7c:	e002      	b.n	8003b84 <memset+0x18>
 8003b7e:	1e62      	subs	r2, r4, #1
 8003b80:	b3e4      	cbz	r4, 8003bfc <memset+0x90>
 8003b82:	4614      	mov	r4, r2
 8003b84:	f803 5b01 	strb.w	r5, [r3], #1
 8003b88:	079a      	lsls	r2, r3, #30
 8003b8a:	d1f8      	bne.n	8003b7e <memset+0x12>
 8003b8c:	2c03      	cmp	r4, #3
 8003b8e:	d92e      	bls.n	8003bee <memset+0x82>
 8003b90:	b2cd      	uxtb	r5, r1
 8003b92:	ea45 2505 	orr.w	r5, r5, r5, lsl #8
 8003b96:	2c0f      	cmp	r4, #15
 8003b98:	ea45 4505 	orr.w	r5, r5, r5, lsl #16
 8003b9c:	d919      	bls.n	8003bd2 <memset+0x66>
 8003b9e:	f103 0210 	add.w	r2, r3, #16
 8003ba2:	4626      	mov	r6, r4
 8003ba4:	3e10      	subs	r6, #16
 8003ba6:	2e0f      	cmp	r6, #15
 8003ba8:	f842 5c10 	str.w	r5, [r2, #-16]
 8003bac:	f842 5c0c 	str.w	r5, [r2, #-12]
 8003bb0:	f842 5c08 	str.w	r5, [r2, #-8]
 8003bb4:	f842 5c04 	str.w	r5, [r2, #-4]
 8003bb8:	f102 0210 	add.w	r2, r2, #16
 8003bbc:	d8f2      	bhi.n	8003ba4 <memset+0x38>
 8003bbe:	f1a4 0210 	sub.w	r2, r4, #16
 8003bc2:	f022 020f 	bic.w	r2, r2, #15
 8003bc6:	f004 040f 	and.w	r4, r4, #15
 8003bca:	3210      	adds	r2, #16
 8003bcc:	2c03      	cmp	r4, #3
 8003bce:	4413      	add	r3, r2
 8003bd0:	d90d      	bls.n	8003bee <memset+0x82>
 8003bd2:	461e      	mov	r6, r3
 8003bd4:	4622      	mov	r2, r4
 8003bd6:	3a04      	subs	r2, #4
 8003bd8:	2a03      	cmp	r2, #3
 8003bda:	f846 5b04 	str.w	r5, [r6], #4
 8003bde:	d8fa      	bhi.n	8003bd6 <memset+0x6a>
 8003be0:	1f22      	subs	r2, r4, #4
 8003be2:	f022 0203 	bic.w	r2, r2, #3
 8003be6:	3204      	adds	r2, #4
 8003be8:	4413      	add	r3, r2
 8003bea:	f004 0403 	and.w	r4, r4, #3
 8003bee:	b12c      	cbz	r4, 8003bfc <memset+0x90>
 8003bf0:	b2c9      	uxtb	r1, r1
 8003bf2:	441c      	add	r4, r3
 8003bf4:	f803 1b01 	strb.w	r1, [r3], #1
 8003bf8:	42a3      	cmp	r3, r4
 8003bfa:	d1fb      	bne.n	8003bf4 <memset+0x88>
 8003bfc:	bc70      	pop	{r4, r5, r6}
 8003bfe:	4770      	bx	lr
 8003c00:	4614      	mov	r4, r2
 8003c02:	4603      	mov	r3, r0
 8003c04:	e7c2      	b.n	8003b8c <memset+0x20>
 8003c06:	bf00      	nop

08003c08 <register_fini>:
 8003c08:	4b02      	ldr	r3, [pc, #8]	; (8003c14 <register_fini+0xc>)
 8003c0a:	b113      	cbz	r3, 8003c12 <register_fini+0xa>
 8003c0c:	4802      	ldr	r0, [pc, #8]	; (8003c18 <register_fini+0x10>)
 8003c0e:	f000 b86f 	b.w	8003cf0 <atexit>
 8003c12:	4770      	bx	lr
 8003c14:	00000000 	.word	0x00000000
 8003c18:	08003cfd 	.word	0x08003cfd

08003c1c <__call_exitprocs>:
 8003c1c:	e92d 4ff0 	stmdb	sp!, {r4, r5, r6, r7, r8, r9, sl, fp, lr}
 8003c20:	4b31      	ldr	r3, [pc, #196]	; (8003ce8 <__call_exitprocs+0xcc>)
 8003c22:	b083      	sub	sp, #12
 8003c24:	681b      	ldr	r3, [r3, #0]
 8003c26:	9300      	str	r3, [sp, #0]
 8003c28:	f503 73a4 	add.w	r3, r3, #328	; 0x148
 8003c2c:	4681      	mov	r9, r0
 8003c2e:	460e      	mov	r6, r1
 8003c30:	9301      	str	r3, [sp, #4]
 8003c32:	9b00      	ldr	r3, [sp, #0]
 8003c34:	f8d3 7148 	ldr.w	r7, [r3, #328]	; 0x148
 8003c38:	b327      	cbz	r7, 8003c84 <__call_exitprocs+0x68>
 8003c3a:	f8dd a004 	ldr.w	sl, [sp, #4]
 8003c3e:	687c      	ldr	r4, [r7, #4]
 8003c40:	1e65      	subs	r5, r4, #1
 8003c42:	d40e      	bmi.n	8003c62 <__call_exitprocs+0x46>
 8003c44:	3401      	adds	r4, #1
 8003c46:	eb07 0484 	add.w	r4, r7, r4, lsl #2
 8003c4a:	f04f 0800 	mov.w	r8, #0
 8003c4e:	b1e6      	cbz	r6, 8003c8a <__call_exitprocs+0x6e>
 8003c50:	f8d4 3100 	ldr.w	r3, [r4, #256]	; 0x100
 8003c54:	42b3      	cmp	r3, r6
 8003c56:	d018      	beq.n	8003c8a <__call_exitprocs+0x6e>
 8003c58:	3d01      	subs	r5, #1
 8003c5a:	1c6b      	adds	r3, r5, #1
 8003c5c:	f1a4 0404 	sub.w	r4, r4, #4
 8003c60:	d1f5      	bne.n	8003c4e <__call_exitprocs+0x32>
 8003c62:	4b22      	ldr	r3, [pc, #136]	; (8003cec <__call_exitprocs+0xd0>)
 8003c64:	b173      	cbz	r3, 8003c84 <__call_exitprocs+0x68>
 8003c66:	687b      	ldr	r3, [r7, #4]
 8003c68:	2b00      	cmp	r3, #0
 8003c6a:	d136      	bne.n	8003cda <__call_exitprocs+0xbe>
 8003c6c:	683b      	ldr	r3, [r7, #0]
 8003c6e:	2b00      	cmp	r3, #0
 8003c70:	d034      	beq.n	8003cdc <__call_exitprocs+0xc0>
 8003c72:	4638      	mov	r0, r7
 8003c74:	f8ca 3000 	str.w	r3, [sl]
 8003c78:	f3af 8000 	nop.w
 8003c7c:	f8da 7000 	ldr.w	r7, [sl]
 8003c80:	2f00      	cmp	r7, #0
 8003c82:	d1dc      	bne.n	8003c3e <__call_exitprocs+0x22>
 8003c84:	b003      	add	sp, #12
 8003c86:	e8bd 8ff0 	ldmia.w	sp!, {r4, r5, r6, r7, r8, r9, sl, fp, pc}
 8003c8a:	687b      	ldr	r3, [r7, #4]
 8003c8c:	6822      	ldr	r2, [r4, #0]
 8003c8e:	3b01      	subs	r3, #1
 8003c90:	42ab      	cmp	r3, r5
 8003c92:	bf0c      	ite	eq
 8003c94:	607d      	streq	r5, [r7, #4]
 8003c96:	f8c4 8000 	strne.w	r8, [r4]
 8003c9a:	2a00      	cmp	r2, #0
 8003c9c:	d0dc      	beq.n	8003c58 <__call_exitprocs+0x3c>
 8003c9e:	f8d7 3188 	ldr.w	r3, [r7, #392]	; 0x188
 8003ca2:	f8d7 b004 	ldr.w	fp, [r7, #4]
 8003ca6:	2101      	movs	r1, #1
 8003ca8:	40a9      	lsls	r1, r5
 8003caa:	4219      	tst	r1, r3
 8003cac:	d108      	bne.n	8003cc0 <__call_exitprocs+0xa4>
 8003cae:	4790      	blx	r2
 8003cb0:	687b      	ldr	r3, [r7, #4]
 8003cb2:	455b      	cmp	r3, fp
 8003cb4:	d1bd      	bne.n	8003c32 <__call_exitprocs+0x16>
 8003cb6:	f8da 3000 	ldr.w	r3, [sl]
 8003cba:	42bb      	cmp	r3, r7
 8003cbc:	d0cc      	beq.n	8003c58 <__call_exitprocs+0x3c>
 8003cbe:	e7b8      	b.n	8003c32 <__call_exitprocs+0x16>
 8003cc0:	f8d7 318c 	ldr.w	r3, [r7, #396]	; 0x18c
 8003cc4:	4219      	tst	r1, r3
 8003cc6:	d104      	bne.n	8003cd2 <__call_exitprocs+0xb6>
 8003cc8:	4648      	mov	r0, r9
 8003cca:	f8d4 1080 	ldr.w	r1, [r4, #128]	; 0x80
 8003cce:	4790      	blx	r2
 8003cd0:	e7ee      	b.n	8003cb0 <__call_exitprocs+0x94>
 8003cd2:	f8d4 0080 	ldr.w	r0, [r4, #128]	; 0x80
 8003cd6:	4790      	blx	r2
 8003cd8:	e7ea      	b.n	8003cb0 <__call_exitprocs+0x94>
 8003cda:	683b      	ldr	r3, [r7, #0]
 8003cdc:	46ba      	mov	sl, r7
 8003cde:	461f      	mov	r7, r3
 8003ce0:	2f00      	cmp	r7, #0
 8003ce2:	d1ac      	bne.n	8003c3e <__call_exitprocs+0x22>
 8003ce4:	e7ce      	b.n	8003c84 <__call_exitprocs+0x68>
 8003ce6:	bf00      	nop
 8003ce8:	08004678 	.word	0x08004678
 8003cec:	00000000 	.word	0x00000000

08003cf0 <atexit>:
 8003cf0:	4601      	mov	r1, r0
 8003cf2:	2000      	movs	r0, #0
 8003cf4:	4602      	mov	r2, r0
 8003cf6:	4603      	mov	r3, r0
 8003cf8:	f000 b816 	b.w	8003d28 <__register_exitproc>

08003cfc <__libc_fini_array>:
 8003cfc:	b538      	push	{r3, r4, r5, lr}
 8003cfe:	4b08      	ldr	r3, [pc, #32]	; (8003d20 <__libc_fini_array+0x24>)
 8003d00:	4d08      	ldr	r5, [pc, #32]	; (8003d24 <__libc_fini_array+0x28>)
 8003d02:	1aed      	subs	r5, r5, r3
 8003d04:	10ac      	asrs	r4, r5, #2
 8003d06:	bf18      	it	ne
 8003d08:	18ed      	addne	r5, r5, r3
 8003d0a:	d005      	beq.n	8003d18 <__libc_fini_array+0x1c>
 8003d0c:	3c01      	subs	r4, #1
 8003d0e:	f855 3d04 	ldr.w	r3, [r5, #-4]!
 8003d12:	4798      	blx	r3
 8003d14:	2c00      	cmp	r4, #0
 8003d16:	d1f9      	bne.n	8003d0c <__libc_fini_array+0x10>
 8003d18:	e8bd 4038 	ldmia.w	sp!, {r3, r4, r5, lr}
 8003d1c:	f000 bcb6 	b.w	800468c <_fini>
 8003d20:	080046a8 	.word	0x080046a8
 8003d24:	080046ac 	.word	0x080046ac

08003d28 <__register_exitproc>:
 8003d28:	e92d 47f0 	stmdb	sp!, {r4, r5, r6, r7, r8, r9, sl, lr}
 8003d2c:	4c25      	ldr	r4, [pc, #148]	; (8003dc4 <__register_exitproc+0x9c>)
 8003d2e:	6825      	ldr	r5, [r4, #0]
 8003d30:	f8d5 4148 	ldr.w	r4, [r5, #328]	; 0x148
 8003d34:	4606      	mov	r6, r0
 8003d36:	4688      	mov	r8, r1
 8003d38:	4692      	mov	sl, r2
 8003d3a:	4699      	mov	r9, r3
 8003d3c:	b3cc      	cbz	r4, 8003db2 <__register_exitproc+0x8a>
 8003d3e:	6860      	ldr	r0, [r4, #4]
 8003d40:	281f      	cmp	r0, #31
 8003d42:	dc18      	bgt.n	8003d76 <__register_exitproc+0x4e>
 8003d44:	1c43      	adds	r3, r0, #1
 8003d46:	b17e      	cbz	r6, 8003d68 <__register_exitproc+0x40>
 8003d48:	eb04 0580 	add.w	r5, r4, r0, lsl #2
 8003d4c:	2101      	movs	r1, #1
 8003d4e:	f8c5 a088 	str.w	sl, [r5, #136]	; 0x88
 8003d52:	f8d4 7188 	ldr.w	r7, [r4, #392]	; 0x188
 8003d56:	fa01 f200 	lsl.w	r2, r1, r0
 8003d5a:	4317      	orrs	r7, r2
 8003d5c:	2e02      	cmp	r6, #2
 8003d5e:	f8c4 7188 	str.w	r7, [r4, #392]	; 0x188
 8003d62:	f8c5 9108 	str.w	r9, [r5, #264]	; 0x108
 8003d66:	d01e      	beq.n	8003da6 <__register_exitproc+0x7e>
 8003d68:	3002      	adds	r0, #2
 8003d6a:	6063      	str	r3, [r4, #4]
 8003d6c:	f844 8020 	str.w	r8, [r4, r0, lsl #2]
 8003d70:	2000      	movs	r0, #0
 8003d72:	e8bd 87f0 	ldmia.w	sp!, {r4, r5, r6, r7, r8, r9, sl, pc}
 8003d76:	4b14      	ldr	r3, [pc, #80]	; (8003dc8 <__register_exitproc+0xa0>)
 8003d78:	b303      	cbz	r3, 8003dbc <__register_exitproc+0x94>
 8003d7a:	f44f 70c8 	mov.w	r0, #400	; 0x190
 8003d7e:	f3af 8000 	nop.w
 8003d82:	4604      	mov	r4, r0
 8003d84:	b1d0      	cbz	r0, 8003dbc <__register_exitproc+0x94>
 8003d86:	f8d5 3148 	ldr.w	r3, [r5, #328]	; 0x148
 8003d8a:	2700      	movs	r7, #0
 8003d8c:	e880 0088 	stmia.w	r0, {r3, r7}
 8003d90:	f8c5 4148 	str.w	r4, [r5, #328]	; 0x148
 8003d94:	4638      	mov	r0, r7
 8003d96:	2301      	movs	r3, #1
 8003d98:	f8c4 7188 	str.w	r7, [r4, #392]	; 0x188
 8003d9c:	f8c4 718c 	str.w	r7, [r4, #396]	; 0x18c
 8003da0:	2e00      	cmp	r6, #0
 8003da2:	d0e1      	beq.n	8003d68 <__register_exitproc+0x40>
 8003da4:	e7d0      	b.n	8003d48 <__register_exitproc+0x20>
 8003da6:	f8d4 118c 	ldr.w	r1, [r4, #396]	; 0x18c
 8003daa:	430a      	orrs	r2, r1
 8003dac:	f8c4 218c 	str.w	r2, [r4, #396]	; 0x18c
 8003db0:	e7da      	b.n	8003d68 <__register_exitproc+0x40>
 8003db2:	f505 74a6 	add.w	r4, r5, #332	; 0x14c
 8003db6:	f8c5 4148 	str.w	r4, [r5, #328]	; 0x148
 8003dba:	e7c0      	b.n	8003d3e <__register_exitproc+0x16>
 8003dbc:	f04f 30ff 	mov.w	r0, #4294967295	; 0xffffffff
 8003dc0:	e8bd 87f0 	ldmia.w	sp!, {r4, r5, r6, r7, r8, r9, sl, pc}
 8003dc4:	08004678 	.word	0x08004678
 8003dc8:	00000000 	.word	0x00000000

08003dcc <Reset_Handler>:
  .weak  Reset_Handler
  .type  Reset_Handler, %function
Reset_Handler:  

/* Copy the data segment initializers from flash to SRAM */  
  movs  r1, #0
 8003dcc:	2100      	movs	r1, #0
  b  LoopCopyDataInit
 8003dce:	e003      	b.n	8003dd8 <LoopCopyDataInit>

08003dd0 <CopyDataInit>:

CopyDataInit:
  ldr  r3, =_sidata
 8003dd0:	4b0b      	ldr	r3, [pc, #44]	; (8003e00 <LoopFillZerobss+0x14>)
  ldr  r3, [r3, r1]
 8003dd2:	585b      	ldr	r3, [r3, r1]
  str  r3, [r0, r1]
 8003dd4:	5043      	str	r3, [r0, r1]
  adds  r1, r1, #4
 8003dd6:	3104      	adds	r1, #4

08003dd8 <LoopCopyDataInit>:
    
LoopCopyDataInit:
  ldr  r0, =_sdata
 8003dd8:	480a      	ldr	r0, [pc, #40]	; (8003e04 <LoopFillZerobss+0x18>)
  ldr  r3, =_edata
 8003dda:	4b0b      	ldr	r3, [pc, #44]	; (8003e08 <LoopFillZerobss+0x1c>)
  adds  r2, r0, r1
 8003ddc:	1842      	adds	r2, r0, r1
  cmp  r2, r3
 8003dde:	429a      	cmp	r2, r3
  bcc  CopyDataInit
 8003de0:	d3f6      	bcc.n	8003dd0 <CopyDataInit>
  ldr  r2, =_sbss
 8003de2:	4a0a      	ldr	r2, [pc, #40]	; (8003e0c <LoopFillZerobss+0x20>)
  b  LoopFillZerobss
 8003de4:	e002      	b.n	8003dec <LoopFillZerobss>

08003de6 <FillZerobss>:
/* Zero fill the bss segment. */  
FillZerobss:
  movs  r3, #0
 8003de6:	2300      	movs	r3, #0
  str  r3, [r2], #4
 8003de8:	f842 3b04 	str.w	r3, [r2], #4

08003dec <LoopFillZerobss>:
    
LoopFillZerobss:
  ldr  r3, = _ebss
 8003dec:	4b08      	ldr	r3, [pc, #32]	; (8003e10 <LoopFillZerobss+0x24>)
  cmp  r2, r3
 8003dee:	429a      	cmp	r2, r3
  bcc  FillZerobss
 8003df0:	d3f9      	bcc.n	8003de6 <FillZerobss>

/* Call the clock system intitialization function.*/
  bl  SystemInit   
 8003df2:	f7fc fdd7 	bl	80009a4 <SystemInit>
/* Call static constructors */
    bl __libc_init_array
 8003df6:	f7ff fe91 	bl	8003b1c <__libc_init_array>
/* Call the application's entry point.*/
  bl  main
 8003dfa:	f7fc fa2d 	bl	8000258 <main>
  bx  lr    
 8003dfe:	4770      	bx	lr
/* Copy the data segment initializers from flash to SRAM */  
  movs  r1, #0
  b  LoopCopyDataInit

CopyDataInit:
  ldr  r3, =_sidata
 8003e00:	080046ac 	.word	0x080046ac
  ldr  r3, [r3, r1]
  str  r3, [r0, r1]
  adds  r1, r1, #4
    
LoopCopyDataInit:
  ldr  r0, =_sdata
 8003e04:	20000000 	.word	0x20000000
  ldr  r3, =_edata
 8003e08:	20000874 	.word	0x20000874
  adds  r2, r0, r1
  cmp  r2, r3
  bcc  CopyDataInit
  ldr  r2, =_sbss
 8003e0c:	20000878 	.word	0x20000878
FillZerobss:
  movs  r3, #0
  str  r3, [r2], #4
    
LoopFillZerobss:
  ldr  r3, = _ebss
 8003e10:	200008d4 	.word	0x200008d4

08003e14 <ADC_IRQHandler>:
 * @retval None       
*/
    .section  .text.Default_Handler,"ax",%progbits
Default_Handler:
Infinite_Loop:
  b  Infinite_Loop
 8003e14:	e7fe      	b.n	8003e14 <ADC_IRQHandler>
	...

08003e18 <cleanup_glue>:
 8003e18:	b538      	push	{r3, r4, r5, lr}
 8003e1a:	460c      	mov	r4, r1
 8003e1c:	6809      	ldr	r1, [r1, #0]
 8003e1e:	4605      	mov	r5, r0
 8003e20:	b109      	cbz	r1, 8003e26 <cleanup_glue+0xe>
 8003e22:	f7ff fff9 	bl	8003e18 <cleanup_glue>
 8003e26:	4628      	mov	r0, r5
 8003e28:	4621      	mov	r1, r4
 8003e2a:	e8bd 4038 	ldmia.w	sp!, {r3, r4, r5, lr}
 8003e2e:	f000 b893 	b.w	8003f58 <_free_r>
 8003e32:	bf00      	nop

08003e34 <_reclaim_reent>:
 8003e34:	4b20      	ldr	r3, [pc, #128]	; (8003eb8 <_reclaim_reent+0x84>)
 8003e36:	681b      	ldr	r3, [r3, #0]
 8003e38:	4298      	cmp	r0, r3
 8003e3a:	d03c      	beq.n	8003eb6 <_reclaim_reent+0x82>
 8003e3c:	6cc3      	ldr	r3, [r0, #76]	; 0x4c
 8003e3e:	b570      	push	{r4, r5, r6, lr}
 8003e40:	4605      	mov	r5, r0
 8003e42:	b18b      	cbz	r3, 8003e68 <_reclaim_reent+0x34>
 8003e44:	2600      	movs	r6, #0
 8003e46:	5999      	ldr	r1, [r3, r6]
 8003e48:	b139      	cbz	r1, 8003e5a <_reclaim_reent+0x26>
 8003e4a:	680c      	ldr	r4, [r1, #0]
 8003e4c:	4628      	mov	r0, r5
 8003e4e:	f000 f883 	bl	8003f58 <_free_r>
 8003e52:	4621      	mov	r1, r4
 8003e54:	2c00      	cmp	r4, #0
 8003e56:	d1f8      	bne.n	8003e4a <_reclaim_reent+0x16>
 8003e58:	6ceb      	ldr	r3, [r5, #76]	; 0x4c
 8003e5a:	3604      	adds	r6, #4
 8003e5c:	2e80      	cmp	r6, #128	; 0x80
 8003e5e:	d1f2      	bne.n	8003e46 <_reclaim_reent+0x12>
 8003e60:	4619      	mov	r1, r3
 8003e62:	4628      	mov	r0, r5
 8003e64:	f000 f878 	bl	8003f58 <_free_r>
 8003e68:	6c29      	ldr	r1, [r5, #64]	; 0x40
 8003e6a:	b111      	cbz	r1, 8003e72 <_reclaim_reent+0x3e>
 8003e6c:	4628      	mov	r0, r5
 8003e6e:	f000 f873 	bl	8003f58 <_free_r>
 8003e72:	f8d5 1148 	ldr.w	r1, [r5, #328]	; 0x148
 8003e76:	b151      	cbz	r1, 8003e8e <_reclaim_reent+0x5a>
 8003e78:	f505 76a6 	add.w	r6, r5, #332	; 0x14c
 8003e7c:	42b1      	cmp	r1, r6
 8003e7e:	d006      	beq.n	8003e8e <_reclaim_reent+0x5a>
 8003e80:	680c      	ldr	r4, [r1, #0]
 8003e82:	4628      	mov	r0, r5
 8003e84:	f000 f868 	bl	8003f58 <_free_r>
 8003e88:	42a6      	cmp	r6, r4
 8003e8a:	4621      	mov	r1, r4
 8003e8c:	d1f8      	bne.n	8003e80 <_reclaim_reent+0x4c>
 8003e8e:	6d69      	ldr	r1, [r5, #84]	; 0x54
 8003e90:	b111      	cbz	r1, 8003e98 <_reclaim_reent+0x64>
 8003e92:	4628      	mov	r0, r5
 8003e94:	f000 f860 	bl	8003f58 <_free_r>
 8003e98:	6bab      	ldr	r3, [r5, #56]	; 0x38
 8003e9a:	b903      	cbnz	r3, 8003e9e <_reclaim_reent+0x6a>
 8003e9c:	bd70      	pop	{r4, r5, r6, pc}
 8003e9e:	6beb      	ldr	r3, [r5, #60]	; 0x3c
 8003ea0:	4628      	mov	r0, r5
 8003ea2:	4798      	blx	r3
 8003ea4:	f8d5 12e0 	ldr.w	r1, [r5, #736]	; 0x2e0
 8003ea8:	2900      	cmp	r1, #0
 8003eaa:	d0f7      	beq.n	8003e9c <_reclaim_reent+0x68>
 8003eac:	4628      	mov	r0, r5
 8003eae:	e8bd 4070 	ldmia.w	sp!, {r4, r5, r6, lr}
 8003eb2:	f7ff bfb1 	b.w	8003e18 <cleanup_glue>
 8003eb6:	4770      	bx	lr
 8003eb8:	20000460 	.word	0x20000460

08003ebc <_malloc_trim_r>:
 8003ebc:	b5f8      	push	{r3, r4, r5, r6, r7, lr}
 8003ebe:	4f23      	ldr	r7, [pc, #140]	; (8003f4c <_malloc_trim_r+0x90>)
 8003ec0:	460c      	mov	r4, r1
 8003ec2:	4606      	mov	r6, r0
 8003ec4:	f000 fbae 	bl	8004624 <__malloc_lock>
 8003ec8:	68bb      	ldr	r3, [r7, #8]
 8003eca:	685d      	ldr	r5, [r3, #4]
 8003ecc:	f025 0503 	bic.w	r5, r5, #3
 8003ed0:	1b29      	subs	r1, r5, r4
 8003ed2:	f601 71ef 	addw	r1, r1, #4079	; 0xfef
 8003ed6:	f421 617f 	bic.w	r1, r1, #4080	; 0xff0
 8003eda:	f021 010f 	bic.w	r1, r1, #15
 8003ede:	f5a1 5480 	sub.w	r4, r1, #4096	; 0x1000
 8003ee2:	f5b4 5f80 	cmp.w	r4, #4096	; 0x1000
 8003ee6:	db07      	blt.n	8003ef8 <_malloc_trim_r+0x3c>
 8003ee8:	4630      	mov	r0, r6
 8003eea:	2100      	movs	r1, #0
 8003eec:	f000 fb9e 	bl	800462c <_sbrk_r>
 8003ef0:	68bb      	ldr	r3, [r7, #8]
 8003ef2:	442b      	add	r3, r5
 8003ef4:	4298      	cmp	r0, r3
 8003ef6:	d004      	beq.n	8003f02 <_malloc_trim_r+0x46>
 8003ef8:	4630      	mov	r0, r6
 8003efa:	f000 fb95 	bl	8004628 <__malloc_unlock>
 8003efe:	2000      	movs	r0, #0
 8003f00:	bdf8      	pop	{r3, r4, r5, r6, r7, pc}
 8003f02:	4630      	mov	r0, r6
 8003f04:	4261      	negs	r1, r4
 8003f06:	f000 fb91 	bl	800462c <_sbrk_r>
 8003f0a:	3001      	adds	r0, #1
 8003f0c:	d00d      	beq.n	8003f2a <_malloc_trim_r+0x6e>
 8003f0e:	4b10      	ldr	r3, [pc, #64]	; (8003f50 <_malloc_trim_r+0x94>)
 8003f10:	68ba      	ldr	r2, [r7, #8]
 8003f12:	6819      	ldr	r1, [r3, #0]
 8003f14:	1b2d      	subs	r5, r5, r4
 8003f16:	f045 0501 	orr.w	r5, r5, #1
 8003f1a:	4630      	mov	r0, r6
 8003f1c:	1b09      	subs	r1, r1, r4
 8003f1e:	6055      	str	r5, [r2, #4]
 8003f20:	6019      	str	r1, [r3, #0]
 8003f22:	f000 fb81 	bl	8004628 <__malloc_unlock>
 8003f26:	2001      	movs	r0, #1
 8003f28:	bdf8      	pop	{r3, r4, r5, r6, r7, pc}
 8003f2a:	4630      	mov	r0, r6
 8003f2c:	2100      	movs	r1, #0
 8003f2e:	f000 fb7d 	bl	800462c <_sbrk_r>
 8003f32:	68ba      	ldr	r2, [r7, #8]
 8003f34:	1a83      	subs	r3, r0, r2
 8003f36:	2b0f      	cmp	r3, #15
 8003f38:	ddde      	ble.n	8003ef8 <_malloc_trim_r+0x3c>
 8003f3a:	4c06      	ldr	r4, [pc, #24]	; (8003f54 <_malloc_trim_r+0x98>)
 8003f3c:	4904      	ldr	r1, [pc, #16]	; (8003f50 <_malloc_trim_r+0x94>)
 8003f3e:	6824      	ldr	r4, [r4, #0]
 8003f40:	f043 0301 	orr.w	r3, r3, #1
 8003f44:	1b00      	subs	r0, r0, r4
 8003f46:	6053      	str	r3, [r2, #4]
 8003f48:	6008      	str	r0, [r1, #0]
 8003f4a:	e7d5      	b.n	8003ef8 <_malloc_trim_r+0x3c>
 8003f4c:	20000464 	.word	0x20000464
 8003f50:	200008a8 	.word	0x200008a8
 8003f54:	20000870 	.word	0x20000870

08003f58 <_free_r>:
 8003f58:	2900      	cmp	r1, #0
 8003f5a:	d04e      	beq.n	8003ffa <_free_r+0xa2>
 8003f5c:	e92d 41f0 	stmdb	sp!, {r4, r5, r6, r7, r8, lr}
 8003f60:	460c      	mov	r4, r1
 8003f62:	4680      	mov	r8, r0
 8003f64:	f000 fb5e 	bl	8004624 <__malloc_lock>
 8003f68:	f854 7c04 	ldr.w	r7, [r4, #-4]
 8003f6c:	4962      	ldr	r1, [pc, #392]	; (80040f8 <_free_r+0x1a0>)
 8003f6e:	f027 0201 	bic.w	r2, r7, #1
 8003f72:	f1a4 0508 	sub.w	r5, r4, #8
 8003f76:	18ab      	adds	r3, r5, r2
 8003f78:	688e      	ldr	r6, [r1, #8]
 8003f7a:	6858      	ldr	r0, [r3, #4]
 8003f7c:	429e      	cmp	r6, r3
 8003f7e:	f020 0003 	bic.w	r0, r0, #3
 8003f82:	d05a      	beq.n	800403a <_free_r+0xe2>
 8003f84:	07fe      	lsls	r6, r7, #31
 8003f86:	6058      	str	r0, [r3, #4]
 8003f88:	d40b      	bmi.n	8003fa2 <_free_r+0x4a>
 8003f8a:	f854 7c08 	ldr.w	r7, [r4, #-8]
 8003f8e:	1bed      	subs	r5, r5, r7
 8003f90:	f101 0e08 	add.w	lr, r1, #8
 8003f94:	68ac      	ldr	r4, [r5, #8]
 8003f96:	4574      	cmp	r4, lr
 8003f98:	443a      	add	r2, r7
 8003f9a:	d067      	beq.n	800406c <_free_r+0x114>
 8003f9c:	68ef      	ldr	r7, [r5, #12]
 8003f9e:	60e7      	str	r7, [r4, #12]
 8003fa0:	60bc      	str	r4, [r7, #8]
 8003fa2:	181c      	adds	r4, r3, r0
 8003fa4:	6864      	ldr	r4, [r4, #4]
 8003fa6:	07e4      	lsls	r4, r4, #31
 8003fa8:	d40c      	bmi.n	8003fc4 <_free_r+0x6c>
 8003faa:	4f54      	ldr	r7, [pc, #336]	; (80040fc <_free_r+0x1a4>)
 8003fac:	689c      	ldr	r4, [r3, #8]
 8003fae:	42bc      	cmp	r4, r7
 8003fb0:	4402      	add	r2, r0
 8003fb2:	d07c      	beq.n	80040ae <_free_r+0x156>
 8003fb4:	68d8      	ldr	r0, [r3, #12]
 8003fb6:	60e0      	str	r0, [r4, #12]
 8003fb8:	f042 0301 	orr.w	r3, r2, #1
 8003fbc:	6084      	str	r4, [r0, #8]
 8003fbe:	606b      	str	r3, [r5, #4]
 8003fc0:	50aa      	str	r2, [r5, r2]
 8003fc2:	e003      	b.n	8003fcc <_free_r+0x74>
 8003fc4:	f042 0301 	orr.w	r3, r2, #1
 8003fc8:	606b      	str	r3, [r5, #4]
 8003fca:	50aa      	str	r2, [r5, r2]
 8003fcc:	f5b2 7f00 	cmp.w	r2, #512	; 0x200
 8003fd0:	d214      	bcs.n	8003ffc <_free_r+0xa4>
 8003fd2:	08d2      	lsrs	r2, r2, #3
 8003fd4:	eb01 03c2 	add.w	r3, r1, r2, lsl #3
 8003fd8:	6848      	ldr	r0, [r1, #4]
 8003fda:	689f      	ldr	r7, [r3, #8]
 8003fdc:	60af      	str	r7, [r5, #8]
 8003fde:	1092      	asrs	r2, r2, #2
 8003fe0:	2401      	movs	r4, #1
 8003fe2:	fa04 f202 	lsl.w	r2, r4, r2
 8003fe6:	4310      	orrs	r0, r2
 8003fe8:	60eb      	str	r3, [r5, #12]
 8003fea:	6048      	str	r0, [r1, #4]
 8003fec:	609d      	str	r5, [r3, #8]
 8003fee:	60fd      	str	r5, [r7, #12]
 8003ff0:	4640      	mov	r0, r8
 8003ff2:	e8bd 41f0 	ldmia.w	sp!, {r4, r5, r6, r7, r8, lr}
 8003ff6:	f000 bb17 	b.w	8004628 <__malloc_unlock>
 8003ffa:	4770      	bx	lr
 8003ffc:	0a53      	lsrs	r3, r2, #9
 8003ffe:	2b04      	cmp	r3, #4
 8004000:	d847      	bhi.n	8004092 <_free_r+0x13a>
 8004002:	0993      	lsrs	r3, r2, #6
 8004004:	f103 0438 	add.w	r4, r3, #56	; 0x38
 8004008:	0060      	lsls	r0, r4, #1
 800400a:	eb01 0080 	add.w	r0, r1, r0, lsl #2
 800400e:	493a      	ldr	r1, [pc, #232]	; (80040f8 <_free_r+0x1a0>)
 8004010:	6883      	ldr	r3, [r0, #8]
 8004012:	4283      	cmp	r3, r0
 8004014:	d043      	beq.n	800409e <_free_r+0x146>
 8004016:	6859      	ldr	r1, [r3, #4]
 8004018:	f021 0103 	bic.w	r1, r1, #3
 800401c:	4291      	cmp	r1, r2
 800401e:	d902      	bls.n	8004026 <_free_r+0xce>
 8004020:	689b      	ldr	r3, [r3, #8]
 8004022:	4298      	cmp	r0, r3
 8004024:	d1f7      	bne.n	8004016 <_free_r+0xbe>
 8004026:	68da      	ldr	r2, [r3, #12]
 8004028:	60ea      	str	r2, [r5, #12]
 800402a:	60ab      	str	r3, [r5, #8]
 800402c:	4640      	mov	r0, r8
 800402e:	6095      	str	r5, [r2, #8]
 8004030:	60dd      	str	r5, [r3, #12]
 8004032:	e8bd 41f0 	ldmia.w	sp!, {r4, r5, r6, r7, r8, lr}
 8004036:	f000 baf7 	b.w	8004628 <__malloc_unlock>
 800403a:	07ff      	lsls	r7, r7, #31
 800403c:	4402      	add	r2, r0
 800403e:	d407      	bmi.n	8004050 <_free_r+0xf8>
 8004040:	f854 3c08 	ldr.w	r3, [r4, #-8]
 8004044:	1aed      	subs	r5, r5, r3
 8004046:	441a      	add	r2, r3
 8004048:	68a8      	ldr	r0, [r5, #8]
 800404a:	68eb      	ldr	r3, [r5, #12]
 800404c:	60c3      	str	r3, [r0, #12]
 800404e:	6098      	str	r0, [r3, #8]
 8004050:	4b2b      	ldr	r3, [pc, #172]	; (8004100 <_free_r+0x1a8>)
 8004052:	681b      	ldr	r3, [r3, #0]
 8004054:	f042 0001 	orr.w	r0, r2, #1
 8004058:	429a      	cmp	r2, r3
 800405a:	6068      	str	r0, [r5, #4]
 800405c:	608d      	str	r5, [r1, #8]
 800405e:	d3c7      	bcc.n	8003ff0 <_free_r+0x98>
 8004060:	4b28      	ldr	r3, [pc, #160]	; (8004104 <_free_r+0x1ac>)
 8004062:	4640      	mov	r0, r8
 8004064:	6819      	ldr	r1, [r3, #0]
 8004066:	f7ff ff29 	bl	8003ebc <_malloc_trim_r>
 800406a:	e7c1      	b.n	8003ff0 <_free_r+0x98>
 800406c:	1819      	adds	r1, r3, r0
 800406e:	6849      	ldr	r1, [r1, #4]
 8004070:	07c9      	lsls	r1, r1, #31
 8004072:	d409      	bmi.n	8004088 <_free_r+0x130>
 8004074:	68d9      	ldr	r1, [r3, #12]
 8004076:	689b      	ldr	r3, [r3, #8]
 8004078:	4402      	add	r2, r0
 800407a:	f042 0001 	orr.w	r0, r2, #1
 800407e:	60d9      	str	r1, [r3, #12]
 8004080:	608b      	str	r3, [r1, #8]
 8004082:	6068      	str	r0, [r5, #4]
 8004084:	50aa      	str	r2, [r5, r2]
 8004086:	e7b3      	b.n	8003ff0 <_free_r+0x98>
 8004088:	f042 0301 	orr.w	r3, r2, #1
 800408c:	606b      	str	r3, [r5, #4]
 800408e:	50aa      	str	r2, [r5, r2]
 8004090:	e7ae      	b.n	8003ff0 <_free_r+0x98>
 8004092:	2b14      	cmp	r3, #20
 8004094:	d814      	bhi.n	80040c0 <_free_r+0x168>
 8004096:	f103 045b 	add.w	r4, r3, #91	; 0x5b
 800409a:	0060      	lsls	r0, r4, #1
 800409c:	e7b5      	b.n	800400a <_free_r+0xb2>
 800409e:	684a      	ldr	r2, [r1, #4]
 80040a0:	10a4      	asrs	r4, r4, #2
 80040a2:	2001      	movs	r0, #1
 80040a4:	40a0      	lsls	r0, r4
 80040a6:	4302      	orrs	r2, r0
 80040a8:	604a      	str	r2, [r1, #4]
 80040aa:	461a      	mov	r2, r3
 80040ac:	e7bc      	b.n	8004028 <_free_r+0xd0>
 80040ae:	f042 0301 	orr.w	r3, r2, #1
 80040b2:	614d      	str	r5, [r1, #20]
 80040b4:	610d      	str	r5, [r1, #16]
 80040b6:	60ec      	str	r4, [r5, #12]
 80040b8:	60ac      	str	r4, [r5, #8]
 80040ba:	606b      	str	r3, [r5, #4]
 80040bc:	50aa      	str	r2, [r5, r2]
 80040be:	e797      	b.n	8003ff0 <_free_r+0x98>
 80040c0:	2b54      	cmp	r3, #84	; 0x54
 80040c2:	d804      	bhi.n	80040ce <_free_r+0x176>
 80040c4:	0b13      	lsrs	r3, r2, #12
 80040c6:	f103 046e 	add.w	r4, r3, #110	; 0x6e
 80040ca:	0060      	lsls	r0, r4, #1
 80040cc:	e79d      	b.n	800400a <_free_r+0xb2>
 80040ce:	f5b3 7faa 	cmp.w	r3, #340	; 0x154
 80040d2:	d804      	bhi.n	80040de <_free_r+0x186>
 80040d4:	0bd3      	lsrs	r3, r2, #15
 80040d6:	f103 0477 	add.w	r4, r3, #119	; 0x77
 80040da:	0060      	lsls	r0, r4, #1
 80040dc:	e795      	b.n	800400a <_free_r+0xb2>
 80040de:	f240 5054 	movw	r0, #1364	; 0x554
 80040e2:	4283      	cmp	r3, r0
 80040e4:	d804      	bhi.n	80040f0 <_free_r+0x198>
 80040e6:	0c93      	lsrs	r3, r2, #18
 80040e8:	f103 047c 	add.w	r4, r3, #124	; 0x7c
 80040ec:	0060      	lsls	r0, r4, #1
 80040ee:	e78c      	b.n	800400a <_free_r+0xb2>
 80040f0:	20fc      	movs	r0, #252	; 0xfc
 80040f2:	247e      	movs	r4, #126	; 0x7e
 80040f4:	e789      	b.n	800400a <_free_r+0xb2>
 80040f6:	bf00      	nop
 80040f8:	20000464 	.word	0x20000464
 80040fc:	2000046c 	.word	0x2000046c
 8004100:	2000086c 	.word	0x2000086c
 8004104:	200008a4 	.word	0x200008a4

08004108 <_malloc_r>:
 8004108:	e92d 4ff0 	stmdb	sp!, {r4, r5, r6, r7, r8, r9, sl, fp, lr}
 800410c:	f101 050b 	add.w	r5, r1, #11
 8004110:	2d16      	cmp	r5, #22
 8004112:	b083      	sub	sp, #12
 8004114:	4606      	mov	r6, r0
 8004116:	d927      	bls.n	8004168 <_malloc_r+0x60>
 8004118:	f035 0507 	bics.w	r5, r5, #7
 800411c:	f100 80b6 	bmi.w	800428c <_malloc_r+0x184>
 8004120:	42a9      	cmp	r1, r5
 8004122:	f200 80b3 	bhi.w	800428c <_malloc_r+0x184>
 8004126:	f000 fa7d 	bl	8004624 <__malloc_lock>
 800412a:	f5b5 7ffc 	cmp.w	r5, #504	; 0x1f8
 800412e:	d222      	bcs.n	8004176 <_malloc_r+0x6e>
 8004130:	4fc2      	ldr	r7, [pc, #776]	; (800443c <_malloc_r+0x334>)
 8004132:	08e8      	lsrs	r0, r5, #3
 8004134:	eb07 03c0 	add.w	r3, r7, r0, lsl #3
 8004138:	68dc      	ldr	r4, [r3, #12]
 800413a:	429c      	cmp	r4, r3
 800413c:	f000 81c9 	beq.w	80044d2 <_malloc_r+0x3ca>
 8004140:	6863      	ldr	r3, [r4, #4]
 8004142:	68e1      	ldr	r1, [r4, #12]
 8004144:	68a5      	ldr	r5, [r4, #8]
 8004146:	f023 0303 	bic.w	r3, r3, #3
 800414a:	4423      	add	r3, r4
 800414c:	4630      	mov	r0, r6
 800414e:	685a      	ldr	r2, [r3, #4]
 8004150:	60e9      	str	r1, [r5, #12]
 8004152:	f042 0201 	orr.w	r2, r2, #1
 8004156:	608d      	str	r5, [r1, #8]
 8004158:	605a      	str	r2, [r3, #4]
 800415a:	f000 fa65 	bl	8004628 <__malloc_unlock>
 800415e:	3408      	adds	r4, #8
 8004160:	4620      	mov	r0, r4
 8004162:	b003      	add	sp, #12
 8004164:	e8bd 8ff0 	ldmia.w	sp!, {r4, r5, r6, r7, r8, r9, sl, fp, pc}
 8004168:	2910      	cmp	r1, #16
 800416a:	f200 808f 	bhi.w	800428c <_malloc_r+0x184>
 800416e:	f000 fa59 	bl	8004624 <__malloc_lock>
 8004172:	2510      	movs	r5, #16
 8004174:	e7dc      	b.n	8004130 <_malloc_r+0x28>
 8004176:	0a68      	lsrs	r0, r5, #9
 8004178:	f000 808f 	beq.w	800429a <_malloc_r+0x192>
 800417c:	2804      	cmp	r0, #4
 800417e:	f200 8154 	bhi.w	800442a <_malloc_r+0x322>
 8004182:	09a8      	lsrs	r0, r5, #6
 8004184:	3038      	adds	r0, #56	; 0x38
 8004186:	0041      	lsls	r1, r0, #1
 8004188:	4fac      	ldr	r7, [pc, #688]	; (800443c <_malloc_r+0x334>)
 800418a:	eb07 0181 	add.w	r1, r7, r1, lsl #2
 800418e:	68cc      	ldr	r4, [r1, #12]
 8004190:	42a1      	cmp	r1, r4
 8004192:	d106      	bne.n	80041a2 <_malloc_r+0x9a>
 8004194:	e00c      	b.n	80041b0 <_malloc_r+0xa8>
 8004196:	2a00      	cmp	r2, #0
 8004198:	f280 8082 	bge.w	80042a0 <_malloc_r+0x198>
 800419c:	68e4      	ldr	r4, [r4, #12]
 800419e:	42a1      	cmp	r1, r4
 80041a0:	d006      	beq.n	80041b0 <_malloc_r+0xa8>
 80041a2:	6863      	ldr	r3, [r4, #4]
 80041a4:	f023 0303 	bic.w	r3, r3, #3
 80041a8:	1b5a      	subs	r2, r3, r5
 80041aa:	2a0f      	cmp	r2, #15
 80041ac:	ddf3      	ble.n	8004196 <_malloc_r+0x8e>
 80041ae:	3801      	subs	r0, #1
 80041b0:	3001      	adds	r0, #1
 80041b2:	49a2      	ldr	r1, [pc, #648]	; (800443c <_malloc_r+0x334>)
 80041b4:	693c      	ldr	r4, [r7, #16]
 80041b6:	f101 0e08 	add.w	lr, r1, #8
 80041ba:	4574      	cmp	r4, lr
 80041bc:	f000 817e 	beq.w	80044bc <_malloc_r+0x3b4>
 80041c0:	6863      	ldr	r3, [r4, #4]
 80041c2:	f023 0303 	bic.w	r3, r3, #3
 80041c6:	1b5a      	subs	r2, r3, r5
 80041c8:	2a0f      	cmp	r2, #15
 80041ca:	f300 8164 	bgt.w	8004496 <_malloc_r+0x38e>
 80041ce:	2a00      	cmp	r2, #0
 80041d0:	f8c1 e014 	str.w	lr, [r1, #20]
 80041d4:	f8c1 e010 	str.w	lr, [r1, #16]
 80041d8:	da73      	bge.n	80042c2 <_malloc_r+0x1ba>
 80041da:	f5b3 7f00 	cmp.w	r3, #512	; 0x200
 80041de:	f080 8139 	bcs.w	8004454 <_malloc_r+0x34c>
 80041e2:	08db      	lsrs	r3, r3, #3
 80041e4:	eb01 08c3 	add.w	r8, r1, r3, lsl #3
 80041e8:	ea4f 0ca3 	mov.w	ip, r3, asr #2
 80041ec:	684a      	ldr	r2, [r1, #4]
 80041ee:	f8d8 9008 	ldr.w	r9, [r8, #8]
 80041f2:	f8c4 9008 	str.w	r9, [r4, #8]
 80041f6:	2301      	movs	r3, #1
 80041f8:	fa03 f30c 	lsl.w	r3, r3, ip
 80041fc:	4313      	orrs	r3, r2
 80041fe:	f8c4 800c 	str.w	r8, [r4, #12]
 8004202:	604b      	str	r3, [r1, #4]
 8004204:	f8c8 4008 	str.w	r4, [r8, #8]
 8004208:	f8c9 400c 	str.w	r4, [r9, #12]
 800420c:	1082      	asrs	r2, r0, #2
 800420e:	2401      	movs	r4, #1
 8004210:	4094      	lsls	r4, r2
 8004212:	429c      	cmp	r4, r3
 8004214:	d862      	bhi.n	80042dc <_malloc_r+0x1d4>
 8004216:	4223      	tst	r3, r4
 8004218:	d106      	bne.n	8004228 <_malloc_r+0x120>
 800421a:	f020 0003 	bic.w	r0, r0, #3
 800421e:	0064      	lsls	r4, r4, #1
 8004220:	4223      	tst	r3, r4
 8004222:	f100 0004 	add.w	r0, r0, #4
 8004226:	d0fa      	beq.n	800421e <_malloc_r+0x116>
 8004228:	eb07 08c0 	add.w	r8, r7, r0, lsl #3
 800422c:	46c4      	mov	ip, r8
 800422e:	4681      	mov	r9, r0
 8004230:	f8dc 300c 	ldr.w	r3, [ip, #12]
 8004234:	459c      	cmp	ip, r3
 8004236:	d107      	bne.n	8004248 <_malloc_r+0x140>
 8004238:	e142      	b.n	80044c0 <_malloc_r+0x3b8>
 800423a:	2900      	cmp	r1, #0
 800423c:	f280 8152 	bge.w	80044e4 <_malloc_r+0x3dc>
 8004240:	68db      	ldr	r3, [r3, #12]
 8004242:	459c      	cmp	ip, r3
 8004244:	f000 813c 	beq.w	80044c0 <_malloc_r+0x3b8>
 8004248:	685a      	ldr	r2, [r3, #4]
 800424a:	f022 0203 	bic.w	r2, r2, #3
 800424e:	1b51      	subs	r1, r2, r5
 8004250:	290f      	cmp	r1, #15
 8004252:	ddf2      	ble.n	800423a <_malloc_r+0x132>
 8004254:	461c      	mov	r4, r3
 8004256:	f8d3 c00c 	ldr.w	ip, [r3, #12]
 800425a:	f854 8f08 	ldr.w	r8, [r4, #8]!
 800425e:	195a      	adds	r2, r3, r5
 8004260:	f045 0901 	orr.w	r9, r5, #1
 8004264:	f041 0501 	orr.w	r5, r1, #1
 8004268:	f8c3 9004 	str.w	r9, [r3, #4]
 800426c:	4630      	mov	r0, r6
 800426e:	f8c8 c00c 	str.w	ip, [r8, #12]
 8004272:	f8cc 8008 	str.w	r8, [ip, #8]
 8004276:	617a      	str	r2, [r7, #20]
 8004278:	613a      	str	r2, [r7, #16]
 800427a:	f8c2 e00c 	str.w	lr, [r2, #12]
 800427e:	f8c2 e008 	str.w	lr, [r2, #8]
 8004282:	6055      	str	r5, [r2, #4]
 8004284:	5051      	str	r1, [r2, r1]
 8004286:	f000 f9cf 	bl	8004628 <__malloc_unlock>
 800428a:	e769      	b.n	8004160 <_malloc_r+0x58>
 800428c:	2400      	movs	r4, #0
 800428e:	230c      	movs	r3, #12
 8004290:	4620      	mov	r0, r4
 8004292:	6033      	str	r3, [r6, #0]
 8004294:	b003      	add	sp, #12
 8004296:	e8bd 8ff0 	ldmia.w	sp!, {r4, r5, r6, r7, r8, r9, sl, fp, pc}
 800429a:	217e      	movs	r1, #126	; 0x7e
 800429c:	203f      	movs	r0, #63	; 0x3f
 800429e:	e773      	b.n	8004188 <_malloc_r+0x80>
 80042a0:	4423      	add	r3, r4
 80042a2:	68e1      	ldr	r1, [r4, #12]
 80042a4:	685a      	ldr	r2, [r3, #4]
 80042a6:	68a5      	ldr	r5, [r4, #8]
 80042a8:	f042 0201 	orr.w	r2, r2, #1
 80042ac:	60e9      	str	r1, [r5, #12]
 80042ae:	4630      	mov	r0, r6
 80042b0:	608d      	str	r5, [r1, #8]
 80042b2:	605a      	str	r2, [r3, #4]
 80042b4:	f000 f9b8 	bl	8004628 <__malloc_unlock>
 80042b8:	3408      	adds	r4, #8
 80042ba:	4620      	mov	r0, r4
 80042bc:	b003      	add	sp, #12
 80042be:	e8bd 8ff0 	ldmia.w	sp!, {r4, r5, r6, r7, r8, r9, sl, fp, pc}
 80042c2:	4423      	add	r3, r4
 80042c4:	4630      	mov	r0, r6
 80042c6:	685a      	ldr	r2, [r3, #4]
 80042c8:	f042 0201 	orr.w	r2, r2, #1
 80042cc:	605a      	str	r2, [r3, #4]
 80042ce:	f000 f9ab 	bl	8004628 <__malloc_unlock>
 80042d2:	3408      	adds	r4, #8
 80042d4:	4620      	mov	r0, r4
 80042d6:	b003      	add	sp, #12
 80042d8:	e8bd 8ff0 	ldmia.w	sp!, {r4, r5, r6, r7, r8, r9, sl, fp, pc}
 80042dc:	68bc      	ldr	r4, [r7, #8]
 80042de:	6863      	ldr	r3, [r4, #4]
 80042e0:	f023 0803 	bic.w	r8, r3, #3
 80042e4:	4545      	cmp	r5, r8
 80042e6:	d804      	bhi.n	80042f2 <_malloc_r+0x1ea>
 80042e8:	ebc5 0308 	rsb	r3, r5, r8
 80042ec:	2b0f      	cmp	r3, #15
 80042ee:	f300 808c 	bgt.w	800440a <_malloc_r+0x302>
 80042f2:	4b53      	ldr	r3, [pc, #332]	; (8004440 <_malloc_r+0x338>)
 80042f4:	f8df a158 	ldr.w	sl, [pc, #344]	; 8004450 <_malloc_r+0x348>
 80042f8:	681a      	ldr	r2, [r3, #0]
 80042fa:	f8da 3000 	ldr.w	r3, [sl]
 80042fe:	3301      	adds	r3, #1
 8004300:	442a      	add	r2, r5
 8004302:	eb04 0b08 	add.w	fp, r4, r8
 8004306:	f000 8150 	beq.w	80045aa <_malloc_r+0x4a2>
 800430a:	f502 5280 	add.w	r2, r2, #4096	; 0x1000
 800430e:	320f      	adds	r2, #15
 8004310:	f422 627f 	bic.w	r2, r2, #4080	; 0xff0
 8004314:	f022 020f 	bic.w	r2, r2, #15
 8004318:	4611      	mov	r1, r2
 800431a:	4630      	mov	r0, r6
 800431c:	9201      	str	r2, [sp, #4]
 800431e:	f000 f985 	bl	800462c <_sbrk_r>
 8004322:	f1b0 3fff 	cmp.w	r0, #4294967295	; 0xffffffff
 8004326:	4681      	mov	r9, r0
 8004328:	9a01      	ldr	r2, [sp, #4]
 800432a:	f000 80f5 	beq.w	8004518 <_malloc_r+0x410>
 800432e:	4583      	cmp	fp, r0
 8004330:	f200 80ef 	bhi.w	8004512 <_malloc_r+0x40a>
 8004334:	4b43      	ldr	r3, [pc, #268]	; (8004444 <_malloc_r+0x33c>)
 8004336:	6819      	ldr	r1, [r3, #0]
 8004338:	45cb      	cmp	fp, r9
 800433a:	4411      	add	r1, r2
 800433c:	6019      	str	r1, [r3, #0]
 800433e:	f000 813d 	beq.w	80045bc <_malloc_r+0x4b4>
 8004342:	f8da 0000 	ldr.w	r0, [sl]
 8004346:	f8df e108 	ldr.w	lr, [pc, #264]	; 8004450 <_malloc_r+0x348>
 800434a:	3001      	adds	r0, #1
 800434c:	bf1b      	ittet	ne
 800434e:	ebcb 0b09 	rsbne	fp, fp, r9
 8004352:	4459      	addne	r1, fp
 8004354:	f8ce 9000 	streq.w	r9, [lr]
 8004358:	6019      	strne	r1, [r3, #0]
 800435a:	f019 0107 	ands.w	r1, r9, #7
 800435e:	f000 8107 	beq.w	8004570 <_malloc_r+0x468>
 8004362:	f1c1 0008 	rsb	r0, r1, #8
 8004366:	f5c1 5180 	rsb	r1, r1, #4096	; 0x1000
 800436a:	4481      	add	r9, r0
 800436c:	3108      	adds	r1, #8
 800436e:	444a      	add	r2, r9
 8004370:	f3c2 020b 	ubfx	r2, r2, #0, #12
 8004374:	ebc2 0a01 	rsb	sl, r2, r1
 8004378:	4651      	mov	r1, sl
 800437a:	4630      	mov	r0, r6
 800437c:	9301      	str	r3, [sp, #4]
 800437e:	f000 f955 	bl	800462c <_sbrk_r>
 8004382:	1c43      	adds	r3, r0, #1
 8004384:	9b01      	ldr	r3, [sp, #4]
 8004386:	f000 8127 	beq.w	80045d8 <_malloc_r+0x4d0>
 800438a:	ebc9 0200 	rsb	r2, r9, r0
 800438e:	4452      	add	r2, sl
 8004390:	f042 0201 	orr.w	r2, r2, #1
 8004394:	6819      	ldr	r1, [r3, #0]
 8004396:	f8c7 9008 	str.w	r9, [r7, #8]
 800439a:	4451      	add	r1, sl
 800439c:	42bc      	cmp	r4, r7
 800439e:	f8c9 2004 	str.w	r2, [r9, #4]
 80043a2:	6019      	str	r1, [r3, #0]
 80043a4:	f8df a09c 	ldr.w	sl, [pc, #156]	; 8004444 <_malloc_r+0x33c>
 80043a8:	d016      	beq.n	80043d8 <_malloc_r+0x2d0>
 80043aa:	f1b8 0f0f 	cmp.w	r8, #15
 80043ae:	f240 80e2 	bls.w	8004576 <_malloc_r+0x46e>
 80043b2:	6862      	ldr	r2, [r4, #4]
 80043b4:	f1a8 030c 	sub.w	r3, r8, #12
 80043b8:	f023 0307 	bic.w	r3, r3, #7
 80043bc:	18e0      	adds	r0, r4, r3
 80043be:	f002 0201 	and.w	r2, r2, #1
 80043c2:	f04f 0e05 	mov.w	lr, #5
 80043c6:	431a      	orrs	r2, r3
 80043c8:	2b0f      	cmp	r3, #15
 80043ca:	6062      	str	r2, [r4, #4]
 80043cc:	f8c0 e004 	str.w	lr, [r0, #4]
 80043d0:	f8c0 e008 	str.w	lr, [r0, #8]
 80043d4:	f200 8104 	bhi.w	80045e0 <_malloc_r+0x4d8>
 80043d8:	4b1b      	ldr	r3, [pc, #108]	; (8004448 <_malloc_r+0x340>)
 80043da:	68bc      	ldr	r4, [r7, #8]
 80043dc:	681a      	ldr	r2, [r3, #0]
 80043de:	4291      	cmp	r1, r2
 80043e0:	bf88      	it	hi
 80043e2:	6019      	strhi	r1, [r3, #0]
 80043e4:	4b19      	ldr	r3, [pc, #100]	; (800444c <_malloc_r+0x344>)
 80043e6:	681a      	ldr	r2, [r3, #0]
 80043e8:	4291      	cmp	r1, r2
 80043ea:	6862      	ldr	r2, [r4, #4]
 80043ec:	bf88      	it	hi
 80043ee:	6019      	strhi	r1, [r3, #0]
 80043f0:	f022 0203 	bic.w	r2, r2, #3
 80043f4:	4295      	cmp	r5, r2
 80043f6:	eba2 0305 	sub.w	r3, r2, r5
 80043fa:	d801      	bhi.n	8004400 <_malloc_r+0x2f8>
 80043fc:	2b0f      	cmp	r3, #15
 80043fe:	dc04      	bgt.n	800440a <_malloc_r+0x302>
 8004400:	4630      	mov	r0, r6
 8004402:	f000 f911 	bl	8004628 <__malloc_unlock>
 8004406:	2400      	movs	r4, #0
 8004408:	e6aa      	b.n	8004160 <_malloc_r+0x58>
 800440a:	1962      	adds	r2, r4, r5
 800440c:	f043 0301 	orr.w	r3, r3, #1
 8004410:	f045 0501 	orr.w	r5, r5, #1
 8004414:	6065      	str	r5, [r4, #4]
 8004416:	4630      	mov	r0, r6
 8004418:	60ba      	str	r2, [r7, #8]
 800441a:	6053      	str	r3, [r2, #4]
 800441c:	f000 f904 	bl	8004628 <__malloc_unlock>
 8004420:	3408      	adds	r4, #8
 8004422:	4620      	mov	r0, r4
 8004424:	b003      	add	sp, #12
 8004426:	e8bd 8ff0 	ldmia.w	sp!, {r4, r5, r6, r7, r8, r9, sl, fp, pc}
 800442a:	2814      	cmp	r0, #20
 800442c:	d969      	bls.n	8004502 <_malloc_r+0x3fa>
 800442e:	2854      	cmp	r0, #84	; 0x54
 8004430:	f200 8097 	bhi.w	8004562 <_malloc_r+0x45a>
 8004434:	0b28      	lsrs	r0, r5, #12
 8004436:	306e      	adds	r0, #110	; 0x6e
 8004438:	0041      	lsls	r1, r0, #1
 800443a:	e6a5      	b.n	8004188 <_malloc_r+0x80>
 800443c:	20000464 	.word	0x20000464
 8004440:	200008a4 	.word	0x200008a4
 8004444:	200008a8 	.word	0x200008a8
 8004448:	200008a0 	.word	0x200008a0
 800444c:	2000089c 	.word	0x2000089c
 8004450:	20000870 	.word	0x20000870
 8004454:	0a5a      	lsrs	r2, r3, #9
 8004456:	2a04      	cmp	r2, #4
 8004458:	d956      	bls.n	8004508 <_malloc_r+0x400>
 800445a:	2a14      	cmp	r2, #20
 800445c:	f200 80a7 	bhi.w	80045ae <_malloc_r+0x4a6>
 8004460:	325b      	adds	r2, #91	; 0x5b
 8004462:	ea4f 0c42 	mov.w	ip, r2, lsl #1
 8004466:	eb07 0c8c 	add.w	ip, r7, ip, lsl #2
 800446a:	f8df 81b4 	ldr.w	r8, [pc, #436]	; 8004620 <_malloc_r+0x518>
 800446e:	f8dc 1008 	ldr.w	r1, [ip, #8]
 8004472:	4561      	cmp	r1, ip
 8004474:	f000 8085 	beq.w	8004582 <_malloc_r+0x47a>
 8004478:	684a      	ldr	r2, [r1, #4]
 800447a:	f022 0203 	bic.w	r2, r2, #3
 800447e:	4293      	cmp	r3, r2
 8004480:	d202      	bcs.n	8004488 <_malloc_r+0x380>
 8004482:	6889      	ldr	r1, [r1, #8]
 8004484:	458c      	cmp	ip, r1
 8004486:	d1f7      	bne.n	8004478 <_malloc_r+0x370>
 8004488:	68ca      	ldr	r2, [r1, #12]
 800448a:	687b      	ldr	r3, [r7, #4]
 800448c:	60e2      	str	r2, [r4, #12]
 800448e:	60a1      	str	r1, [r4, #8]
 8004490:	6094      	str	r4, [r2, #8]
 8004492:	60cc      	str	r4, [r1, #12]
 8004494:	e6ba      	b.n	800420c <_malloc_r+0x104>
 8004496:	1963      	adds	r3, r4, r5
 8004498:	f042 0701 	orr.w	r7, r2, #1
 800449c:	f045 0501 	orr.w	r5, r5, #1
 80044a0:	6065      	str	r5, [r4, #4]
 80044a2:	4630      	mov	r0, r6
 80044a4:	614b      	str	r3, [r1, #20]
 80044a6:	610b      	str	r3, [r1, #16]
 80044a8:	f8c3 e00c 	str.w	lr, [r3, #12]
 80044ac:	f8c3 e008 	str.w	lr, [r3, #8]
 80044b0:	605f      	str	r7, [r3, #4]
 80044b2:	509a      	str	r2, [r3, r2]
 80044b4:	3408      	adds	r4, #8
 80044b6:	f000 f8b7 	bl	8004628 <__malloc_unlock>
 80044ba:	e651      	b.n	8004160 <_malloc_r+0x58>
 80044bc:	684b      	ldr	r3, [r1, #4]
 80044be:	e6a5      	b.n	800420c <_malloc_r+0x104>
 80044c0:	f109 0901 	add.w	r9, r9, #1
 80044c4:	f019 0f03 	tst.w	r9, #3
 80044c8:	f10c 0c08 	add.w	ip, ip, #8
 80044cc:	f47f aeb0 	bne.w	8004230 <_malloc_r+0x128>
 80044d0:	e02b      	b.n	800452a <_malloc_r+0x422>
 80044d2:	f104 0308 	add.w	r3, r4, #8
 80044d6:	6964      	ldr	r4, [r4, #20]
 80044d8:	42a3      	cmp	r3, r4
 80044da:	bf08      	it	eq
 80044dc:	3002      	addeq	r0, #2
 80044de:	f43f ae68 	beq.w	80041b2 <_malloc_r+0xaa>
 80044e2:	e62d      	b.n	8004140 <_malloc_r+0x38>
 80044e4:	441a      	add	r2, r3
 80044e6:	461c      	mov	r4, r3
 80044e8:	6851      	ldr	r1, [r2, #4]
 80044ea:	68db      	ldr	r3, [r3, #12]
 80044ec:	f854 5f08 	ldr.w	r5, [r4, #8]!
 80044f0:	f041 0101 	orr.w	r1, r1, #1
 80044f4:	6051      	str	r1, [r2, #4]
 80044f6:	4630      	mov	r0, r6
 80044f8:	60eb      	str	r3, [r5, #12]
 80044fa:	609d      	str	r5, [r3, #8]
 80044fc:	f000 f894 	bl	8004628 <__malloc_unlock>
 8004500:	e62e      	b.n	8004160 <_malloc_r+0x58>
 8004502:	305b      	adds	r0, #91	; 0x5b
 8004504:	0041      	lsls	r1, r0, #1
 8004506:	e63f      	b.n	8004188 <_malloc_r+0x80>
 8004508:	099a      	lsrs	r2, r3, #6
 800450a:	3238      	adds	r2, #56	; 0x38
 800450c:	ea4f 0c42 	mov.w	ip, r2, lsl #1
 8004510:	e7a9      	b.n	8004466 <_malloc_r+0x35e>
 8004512:	42bc      	cmp	r4, r7
 8004514:	f43f af0e 	beq.w	8004334 <_malloc_r+0x22c>
 8004518:	68bc      	ldr	r4, [r7, #8]
 800451a:	6862      	ldr	r2, [r4, #4]
 800451c:	f022 0203 	bic.w	r2, r2, #3
 8004520:	e768      	b.n	80043f4 <_malloc_r+0x2ec>
 8004522:	f8d8 8000 	ldr.w	r8, [r8]
 8004526:	4598      	cmp	r8, r3
 8004528:	d177      	bne.n	800461a <_malloc_r+0x512>
 800452a:	f010 0f03 	tst.w	r0, #3
 800452e:	f1a8 0308 	sub.w	r3, r8, #8
 8004532:	f100 30ff 	add.w	r0, r0, #4294967295	; 0xffffffff
 8004536:	d1f4      	bne.n	8004522 <_malloc_r+0x41a>
 8004538:	687b      	ldr	r3, [r7, #4]
 800453a:	ea23 0304 	bic.w	r3, r3, r4
 800453e:	607b      	str	r3, [r7, #4]
 8004540:	0064      	lsls	r4, r4, #1
 8004542:	429c      	cmp	r4, r3
 8004544:	f63f aeca 	bhi.w	80042dc <_malloc_r+0x1d4>
 8004548:	2c00      	cmp	r4, #0
 800454a:	f43f aec7 	beq.w	80042dc <_malloc_r+0x1d4>
 800454e:	4223      	tst	r3, r4
 8004550:	4648      	mov	r0, r9
 8004552:	f47f ae69 	bne.w	8004228 <_malloc_r+0x120>
 8004556:	0064      	lsls	r4, r4, #1
 8004558:	4223      	tst	r3, r4
 800455a:	f100 0004 	add.w	r0, r0, #4
 800455e:	d0fa      	beq.n	8004556 <_malloc_r+0x44e>
 8004560:	e662      	b.n	8004228 <_malloc_r+0x120>
 8004562:	f5b0 7faa 	cmp.w	r0, #340	; 0x154
 8004566:	d818      	bhi.n	800459a <_malloc_r+0x492>
 8004568:	0be8      	lsrs	r0, r5, #15
 800456a:	3077      	adds	r0, #119	; 0x77
 800456c:	0041      	lsls	r1, r0, #1
 800456e:	e60b      	b.n	8004188 <_malloc_r+0x80>
 8004570:	f44f 5180 	mov.w	r1, #4096	; 0x1000
 8004574:	e6fb      	b.n	800436e <_malloc_r+0x266>
 8004576:	2301      	movs	r3, #1
 8004578:	f8c9 3004 	str.w	r3, [r9, #4]
 800457c:	464c      	mov	r4, r9
 800457e:	2200      	movs	r2, #0
 8004580:	e738      	b.n	80043f4 <_malloc_r+0x2ec>
 8004582:	f8d8 3004 	ldr.w	r3, [r8, #4]
 8004586:	1092      	asrs	r2, r2, #2
 8004588:	f04f 0c01 	mov.w	ip, #1
 800458c:	fa0c f202 	lsl.w	r2, ip, r2
 8004590:	4313      	orrs	r3, r2
 8004592:	f8c8 3004 	str.w	r3, [r8, #4]
 8004596:	460a      	mov	r2, r1
 8004598:	e778      	b.n	800448c <_malloc_r+0x384>
 800459a:	f240 5354 	movw	r3, #1364	; 0x554
 800459e:	4298      	cmp	r0, r3
 80045a0:	d817      	bhi.n	80045d2 <_malloc_r+0x4ca>
 80045a2:	0ca8      	lsrs	r0, r5, #18
 80045a4:	307c      	adds	r0, #124	; 0x7c
 80045a6:	0041      	lsls	r1, r0, #1
 80045a8:	e5ee      	b.n	8004188 <_malloc_r+0x80>
 80045aa:	3210      	adds	r2, #16
 80045ac:	e6b4      	b.n	8004318 <_malloc_r+0x210>
 80045ae:	2a54      	cmp	r2, #84	; 0x54
 80045b0:	d81e      	bhi.n	80045f0 <_malloc_r+0x4e8>
 80045b2:	0b1a      	lsrs	r2, r3, #12
 80045b4:	326e      	adds	r2, #110	; 0x6e
 80045b6:	ea4f 0c42 	mov.w	ip, r2, lsl #1
 80045ba:	e754      	b.n	8004466 <_malloc_r+0x35e>
 80045bc:	f3cb 000b 	ubfx	r0, fp, #0, #12
 80045c0:	2800      	cmp	r0, #0
 80045c2:	f47f aebe 	bne.w	8004342 <_malloc_r+0x23a>
 80045c6:	4442      	add	r2, r8
 80045c8:	68bb      	ldr	r3, [r7, #8]
 80045ca:	f042 0201 	orr.w	r2, r2, #1
 80045ce:	605a      	str	r2, [r3, #4]
 80045d0:	e702      	b.n	80043d8 <_malloc_r+0x2d0>
 80045d2:	21fc      	movs	r1, #252	; 0xfc
 80045d4:	207e      	movs	r0, #126	; 0x7e
 80045d6:	e5d7      	b.n	8004188 <_malloc_r+0x80>
 80045d8:	2201      	movs	r2, #1
 80045da:	f04f 0a00 	mov.w	sl, #0
 80045de:	e6d9      	b.n	8004394 <_malloc_r+0x28c>
 80045e0:	f104 0108 	add.w	r1, r4, #8
 80045e4:	4630      	mov	r0, r6
 80045e6:	f7ff fcb7 	bl	8003f58 <_free_r>
 80045ea:	f8da 1000 	ldr.w	r1, [sl]
 80045ee:	e6f3      	b.n	80043d8 <_malloc_r+0x2d0>
 80045f0:	f5b2 7faa 	cmp.w	r2, #340	; 0x154
 80045f4:	d804      	bhi.n	8004600 <_malloc_r+0x4f8>
 80045f6:	0bda      	lsrs	r2, r3, #15
 80045f8:	3277      	adds	r2, #119	; 0x77
 80045fa:	ea4f 0c42 	mov.w	ip, r2, lsl #1
 80045fe:	e732      	b.n	8004466 <_malloc_r+0x35e>
 8004600:	f240 5154 	movw	r1, #1364	; 0x554
 8004604:	428a      	cmp	r2, r1
 8004606:	d804      	bhi.n	8004612 <_malloc_r+0x50a>
 8004608:	0c9a      	lsrs	r2, r3, #18
 800460a:	327c      	adds	r2, #124	; 0x7c
 800460c:	ea4f 0c42 	mov.w	ip, r2, lsl #1
 8004610:	e729      	b.n	8004466 <_malloc_r+0x35e>
 8004612:	f04f 0cfc 	mov.w	ip, #252	; 0xfc
 8004616:	227e      	movs	r2, #126	; 0x7e
 8004618:	e725      	b.n	8004466 <_malloc_r+0x35e>
 800461a:	687b      	ldr	r3, [r7, #4]
 800461c:	e790      	b.n	8004540 <_malloc_r+0x438>
 800461e:	bf00      	nop
 8004620:	20000464 	.word	0x20000464

08004624 <__malloc_lock>:
 8004624:	4770      	bx	lr
 8004626:	bf00      	nop

08004628 <__malloc_unlock>:
 8004628:	4770      	bx	lr
 800462a:	bf00      	nop

0800462c <_sbrk_r>:
 800462c:	b538      	push	{r3, r4, r5, lr}
 800462e:	4c07      	ldr	r4, [pc, #28]	; (800464c <_sbrk_r+0x20>)
 8004630:	2300      	movs	r3, #0
 8004632:	4605      	mov	r5, r0
 8004634:	4608      	mov	r0, r1
 8004636:	6023      	str	r3, [r4, #0]
 8004638:	f7fc f908 	bl	800084c <_sbrk>
 800463c:	1c43      	adds	r3, r0, #1
 800463e:	d000      	beq.n	8004642 <_sbrk_r+0x16>
 8004640:	bd38      	pop	{r3, r4, r5, pc}
 8004642:	6823      	ldr	r3, [r4, #0]
 8004644:	2b00      	cmp	r3, #0
 8004646:	d0fb      	beq.n	8004640 <_sbrk_r+0x14>
 8004648:	602b      	str	r3, [r5, #0]
 800464a:	bd38      	pop	{r3, r4, r5, pc}
 800464c:	200008d0 	.word	0x200008d0
 8004650:	74697865 	.word	0x74697865
 8004654:	00000000 	.word	0x00000000
 8004658:	70616548 	.word	0x70616548
 800465c:	646e6120 	.word	0x646e6120
 8004660:	61747320 	.word	0x61747320
 8004664:	63206b63 	.word	0x63206b63
 8004668:	696c6c6f 	.word	0x696c6c6f
 800466c:	6e6f6973 	.word	0x6e6f6973
 8004670:	0000000a 	.word	0x0000000a
 8004674:	00000043 	.word	0x00000043

08004678 <_global_impure_ptr>:
 8004678:	20000038                                8.. 

0800467c <__EH_FRAME_BEGIN__>:
 800467c:	00000000                                ....

08004680 <_init>:
 8004680:	b5f8      	push	{r3, r4, r5, r6, r7, lr}
 8004682:	bf00      	nop
 8004684:	bcf8      	pop	{r3, r4, r5, r6, r7}
 8004686:	bc08      	pop	{r3}
 8004688:	469e      	mov	lr, r3
 800468a:	4770      	bx	lr

0800468c <_fini>:
 800468c:	b5f8      	push	{r3, r4, r5, r6, r7, lr}
 800468e:	bf00      	nop
 8004690:	bcf8      	pop	{r3, r4, r5, r6, r7}
 8004692:	bc08      	pop	{r3}
 8004694:	469e      	mov	lr, r3
 8004696:	4770      	bx	lr
